ARM GAS  C:\Users\marci\AppData\Local\Temp\ccNtE0Aw.s 			page 1


   1              		.cpu cortex-m4
   2              		.arch armv7e-m
   3              		.fpu fpv4-sp-d16
   4              		.eabi_attribute 27, 1
   5              		.eabi_attribute 28, 1
   6              		.eabi_attribute 20, 1
   7              		.eabi_attribute 21, 1
   8              		.eabi_attribute 23, 3
   9              		.eabi_attribute 24, 1
  10              		.eabi_attribute 25, 1
  11              		.eabi_attribute 26, 1
  12              		.eabi_attribute 30, 1
  13              		.eabi_attribute 34, 1
  14              		.eabi_attribute 18, 4
  15              		.file	"stm32f4xx_ll_usb.c"
  16              		.text
  17              	.Ltext0:
  18              		.cfi_sections	.debug_frame
  19              		.file 1 "Drivers/STM32F4xx_HAL_Driver/Src/stm32f4xx_ll_usb.c"
  20              		.section	.text.USB_CoreReset,"ax",%progbits
  21              		.align	1
  22              		.syntax unified
  23              		.thumb
  24              		.thumb_func
  26              	USB_CoreReset:
  27              	.LVL0:
  28              	.LFB168:
   1:Drivers/STM32F4xx_HAL_Driver/Src/stm32f4xx_ll_usb.c **** /**
   2:Drivers/STM32F4xx_HAL_Driver/Src/stm32f4xx_ll_usb.c ****   ******************************************************************************
   3:Drivers/STM32F4xx_HAL_Driver/Src/stm32f4xx_ll_usb.c ****   * @file    stm32f4xx_ll_usb.c
   4:Drivers/STM32F4xx_HAL_Driver/Src/stm32f4xx_ll_usb.c ****   * @author  MCD Application Team
   5:Drivers/STM32F4xx_HAL_Driver/Src/stm32f4xx_ll_usb.c ****   * @brief   USB Low Layer HAL module driver.
   6:Drivers/STM32F4xx_HAL_Driver/Src/stm32f4xx_ll_usb.c ****   *
   7:Drivers/STM32F4xx_HAL_Driver/Src/stm32f4xx_ll_usb.c ****   *          This file provides firmware functions to manage the following
   8:Drivers/STM32F4xx_HAL_Driver/Src/stm32f4xx_ll_usb.c ****   *          functionalities of the USB Peripheral Controller:
   9:Drivers/STM32F4xx_HAL_Driver/Src/stm32f4xx_ll_usb.c ****   *           + Initialization/de-initialization functions
  10:Drivers/STM32F4xx_HAL_Driver/Src/stm32f4xx_ll_usb.c ****   *           + I/O operation functions
  11:Drivers/STM32F4xx_HAL_Driver/Src/stm32f4xx_ll_usb.c ****   *           + Peripheral Control functions
  12:Drivers/STM32F4xx_HAL_Driver/Src/stm32f4xx_ll_usb.c ****   *           + Peripheral State functions
  13:Drivers/STM32F4xx_HAL_Driver/Src/stm32f4xx_ll_usb.c ****   *
  14:Drivers/STM32F4xx_HAL_Driver/Src/stm32f4xx_ll_usb.c ****   ******************************************************************************
  15:Drivers/STM32F4xx_HAL_Driver/Src/stm32f4xx_ll_usb.c ****   * @attention
  16:Drivers/STM32F4xx_HAL_Driver/Src/stm32f4xx_ll_usb.c ****   *
  17:Drivers/STM32F4xx_HAL_Driver/Src/stm32f4xx_ll_usb.c ****   * Copyright (c) 2016 STMicroelectronics.
  18:Drivers/STM32F4xx_HAL_Driver/Src/stm32f4xx_ll_usb.c ****   * All rights reserved.
  19:Drivers/STM32F4xx_HAL_Driver/Src/stm32f4xx_ll_usb.c ****   *
  20:Drivers/STM32F4xx_HAL_Driver/Src/stm32f4xx_ll_usb.c ****   * This software is licensed under terms that can be found in the LICENSE file
  21:Drivers/STM32F4xx_HAL_Driver/Src/stm32f4xx_ll_usb.c ****   * in the root directory of this software component.
  22:Drivers/STM32F4xx_HAL_Driver/Src/stm32f4xx_ll_usb.c ****   * If no LICENSE file comes with this software, it is provided AS-IS.
  23:Drivers/STM32F4xx_HAL_Driver/Src/stm32f4xx_ll_usb.c ****   *
  24:Drivers/STM32F4xx_HAL_Driver/Src/stm32f4xx_ll_usb.c ****   ******************************************************************************
  25:Drivers/STM32F4xx_HAL_Driver/Src/stm32f4xx_ll_usb.c ****   @verbatim
  26:Drivers/STM32F4xx_HAL_Driver/Src/stm32f4xx_ll_usb.c ****   ==============================================================================
  27:Drivers/STM32F4xx_HAL_Driver/Src/stm32f4xx_ll_usb.c ****                     ##### How to use this driver #####
  28:Drivers/STM32F4xx_HAL_Driver/Src/stm32f4xx_ll_usb.c ****   ==============================================================================
  29:Drivers/STM32F4xx_HAL_Driver/Src/stm32f4xx_ll_usb.c ****     [..]
  30:Drivers/STM32F4xx_HAL_Driver/Src/stm32f4xx_ll_usb.c ****       (#) Fill parameters of Init structure in USB_CfgTypeDef structure.
ARM GAS  C:\Users\marci\AppData\Local\Temp\ccNtE0Aw.s 			page 2


  31:Drivers/STM32F4xx_HAL_Driver/Src/stm32f4xx_ll_usb.c **** 
  32:Drivers/STM32F4xx_HAL_Driver/Src/stm32f4xx_ll_usb.c ****       (#) Call USB_CoreInit() API to initialize the USB Core peripheral.
  33:Drivers/STM32F4xx_HAL_Driver/Src/stm32f4xx_ll_usb.c **** 
  34:Drivers/STM32F4xx_HAL_Driver/Src/stm32f4xx_ll_usb.c ****       (#) The upper HAL HCD/PCD driver will call the right routines for its internal processes.
  35:Drivers/STM32F4xx_HAL_Driver/Src/stm32f4xx_ll_usb.c **** 
  36:Drivers/STM32F4xx_HAL_Driver/Src/stm32f4xx_ll_usb.c ****   @endverbatim
  37:Drivers/STM32F4xx_HAL_Driver/Src/stm32f4xx_ll_usb.c **** 
  38:Drivers/STM32F4xx_HAL_Driver/Src/stm32f4xx_ll_usb.c ****   ******************************************************************************
  39:Drivers/STM32F4xx_HAL_Driver/Src/stm32f4xx_ll_usb.c ****   */
  40:Drivers/STM32F4xx_HAL_Driver/Src/stm32f4xx_ll_usb.c **** 
  41:Drivers/STM32F4xx_HAL_Driver/Src/stm32f4xx_ll_usb.c **** /* Includes ------------------------------------------------------------------*/
  42:Drivers/STM32F4xx_HAL_Driver/Src/stm32f4xx_ll_usb.c **** #include "stm32f4xx_hal.h"
  43:Drivers/STM32F4xx_HAL_Driver/Src/stm32f4xx_ll_usb.c **** 
  44:Drivers/STM32F4xx_HAL_Driver/Src/stm32f4xx_ll_usb.c **** /** @addtogroup STM32F4xx_LL_USB_DRIVER
  45:Drivers/STM32F4xx_HAL_Driver/Src/stm32f4xx_ll_usb.c ****   * @{
  46:Drivers/STM32F4xx_HAL_Driver/Src/stm32f4xx_ll_usb.c ****   */
  47:Drivers/STM32F4xx_HAL_Driver/Src/stm32f4xx_ll_usb.c **** 
  48:Drivers/STM32F4xx_HAL_Driver/Src/stm32f4xx_ll_usb.c **** #if defined (HAL_PCD_MODULE_ENABLED) || defined (HAL_HCD_MODULE_ENABLED)
  49:Drivers/STM32F4xx_HAL_Driver/Src/stm32f4xx_ll_usb.c **** #if defined (USB_OTG_FS) || defined (USB_OTG_HS)
  50:Drivers/STM32F4xx_HAL_Driver/Src/stm32f4xx_ll_usb.c **** /* Private typedef -----------------------------------------------------------*/
  51:Drivers/STM32F4xx_HAL_Driver/Src/stm32f4xx_ll_usb.c **** /* Private define ------------------------------------------------------------*/
  52:Drivers/STM32F4xx_HAL_Driver/Src/stm32f4xx_ll_usb.c **** /* Private macro -------------------------------------------------------------*/
  53:Drivers/STM32F4xx_HAL_Driver/Src/stm32f4xx_ll_usb.c **** /* Private variables ---------------------------------------------------------*/
  54:Drivers/STM32F4xx_HAL_Driver/Src/stm32f4xx_ll_usb.c **** /* Private function prototypes -----------------------------------------------*/
  55:Drivers/STM32F4xx_HAL_Driver/Src/stm32f4xx_ll_usb.c **** /* Private functions ---------------------------------------------------------*/
  56:Drivers/STM32F4xx_HAL_Driver/Src/stm32f4xx_ll_usb.c **** #if defined (USB_OTG_FS) || defined (USB_OTG_HS)
  57:Drivers/STM32F4xx_HAL_Driver/Src/stm32f4xx_ll_usb.c **** static HAL_StatusTypeDef USB_CoreReset(USB_OTG_GlobalTypeDef *USBx);
  58:Drivers/STM32F4xx_HAL_Driver/Src/stm32f4xx_ll_usb.c **** 
  59:Drivers/STM32F4xx_HAL_Driver/Src/stm32f4xx_ll_usb.c **** /* Exported functions --------------------------------------------------------*/
  60:Drivers/STM32F4xx_HAL_Driver/Src/stm32f4xx_ll_usb.c **** /** @defgroup USB_LL_Exported_Functions USB Low Layer Exported Functions
  61:Drivers/STM32F4xx_HAL_Driver/Src/stm32f4xx_ll_usb.c ****   * @{
  62:Drivers/STM32F4xx_HAL_Driver/Src/stm32f4xx_ll_usb.c ****   */
  63:Drivers/STM32F4xx_HAL_Driver/Src/stm32f4xx_ll_usb.c **** 
  64:Drivers/STM32F4xx_HAL_Driver/Src/stm32f4xx_ll_usb.c **** /** @defgroup USB_LL_Exported_Functions_Group1 Initialization/de-initialization functions
  65:Drivers/STM32F4xx_HAL_Driver/Src/stm32f4xx_ll_usb.c ****   *  @brief    Initialization and Configuration functions
  66:Drivers/STM32F4xx_HAL_Driver/Src/stm32f4xx_ll_usb.c ****   *
  67:Drivers/STM32F4xx_HAL_Driver/Src/stm32f4xx_ll_usb.c **** @verbatim
  68:Drivers/STM32F4xx_HAL_Driver/Src/stm32f4xx_ll_usb.c ****  ===============================================================================
  69:Drivers/STM32F4xx_HAL_Driver/Src/stm32f4xx_ll_usb.c ****                       ##### Initialization/de-initialization functions #####
  70:Drivers/STM32F4xx_HAL_Driver/Src/stm32f4xx_ll_usb.c ****  ===============================================================================
  71:Drivers/STM32F4xx_HAL_Driver/Src/stm32f4xx_ll_usb.c **** 
  72:Drivers/STM32F4xx_HAL_Driver/Src/stm32f4xx_ll_usb.c **** @endverbatim
  73:Drivers/STM32F4xx_HAL_Driver/Src/stm32f4xx_ll_usb.c ****   * @{
  74:Drivers/STM32F4xx_HAL_Driver/Src/stm32f4xx_ll_usb.c ****   */
  75:Drivers/STM32F4xx_HAL_Driver/Src/stm32f4xx_ll_usb.c **** 
  76:Drivers/STM32F4xx_HAL_Driver/Src/stm32f4xx_ll_usb.c **** /**
  77:Drivers/STM32F4xx_HAL_Driver/Src/stm32f4xx_ll_usb.c ****   * @brief  Initializes the USB Core
  78:Drivers/STM32F4xx_HAL_Driver/Src/stm32f4xx_ll_usb.c ****   * @param  USBx USB Instance
  79:Drivers/STM32F4xx_HAL_Driver/Src/stm32f4xx_ll_usb.c ****   * @param  cfg pointer to a USB_OTG_CfgTypeDef structure that contains
  80:Drivers/STM32F4xx_HAL_Driver/Src/stm32f4xx_ll_usb.c ****   *         the configuration information for the specified USBx peripheral.
  81:Drivers/STM32F4xx_HAL_Driver/Src/stm32f4xx_ll_usb.c ****   * @retval HAL status
  82:Drivers/STM32F4xx_HAL_Driver/Src/stm32f4xx_ll_usb.c ****   */
  83:Drivers/STM32F4xx_HAL_Driver/Src/stm32f4xx_ll_usb.c **** HAL_StatusTypeDef USB_CoreInit(USB_OTG_GlobalTypeDef *USBx, USB_OTG_CfgTypeDef cfg)
  84:Drivers/STM32F4xx_HAL_Driver/Src/stm32f4xx_ll_usb.c **** {
  85:Drivers/STM32F4xx_HAL_Driver/Src/stm32f4xx_ll_usb.c ****   HAL_StatusTypeDef ret;
  86:Drivers/STM32F4xx_HAL_Driver/Src/stm32f4xx_ll_usb.c ****   if (cfg.phy_itface == USB_OTG_ULPI_PHY)
  87:Drivers/STM32F4xx_HAL_Driver/Src/stm32f4xx_ll_usb.c ****   {
ARM GAS  C:\Users\marci\AppData\Local\Temp\ccNtE0Aw.s 			page 3


  88:Drivers/STM32F4xx_HAL_Driver/Src/stm32f4xx_ll_usb.c ****     USBx->GCCFG &= ~(USB_OTG_GCCFG_PWRDWN);
  89:Drivers/STM32F4xx_HAL_Driver/Src/stm32f4xx_ll_usb.c **** 
  90:Drivers/STM32F4xx_HAL_Driver/Src/stm32f4xx_ll_usb.c ****     /* Init The ULPI Interface */
  91:Drivers/STM32F4xx_HAL_Driver/Src/stm32f4xx_ll_usb.c ****     USBx->GUSBCFG &= ~(USB_OTG_GUSBCFG_TSDPS | USB_OTG_GUSBCFG_ULPIFSLS | USB_OTG_GUSBCFG_PHYSEL);
  92:Drivers/STM32F4xx_HAL_Driver/Src/stm32f4xx_ll_usb.c **** 
  93:Drivers/STM32F4xx_HAL_Driver/Src/stm32f4xx_ll_usb.c ****     /* Select vbus source */
  94:Drivers/STM32F4xx_HAL_Driver/Src/stm32f4xx_ll_usb.c ****     USBx->GUSBCFG &= ~(USB_OTG_GUSBCFG_ULPIEVBUSD | USB_OTG_GUSBCFG_ULPIEVBUSI);
  95:Drivers/STM32F4xx_HAL_Driver/Src/stm32f4xx_ll_usb.c ****     if (cfg.use_external_vbus == 1U)
  96:Drivers/STM32F4xx_HAL_Driver/Src/stm32f4xx_ll_usb.c ****     {
  97:Drivers/STM32F4xx_HAL_Driver/Src/stm32f4xx_ll_usb.c ****       USBx->GUSBCFG |= USB_OTG_GUSBCFG_ULPIEVBUSD;
  98:Drivers/STM32F4xx_HAL_Driver/Src/stm32f4xx_ll_usb.c ****     }
  99:Drivers/STM32F4xx_HAL_Driver/Src/stm32f4xx_ll_usb.c **** 
 100:Drivers/STM32F4xx_HAL_Driver/Src/stm32f4xx_ll_usb.c ****     /* Reset after a PHY select */
 101:Drivers/STM32F4xx_HAL_Driver/Src/stm32f4xx_ll_usb.c ****     ret = USB_CoreReset(USBx);
 102:Drivers/STM32F4xx_HAL_Driver/Src/stm32f4xx_ll_usb.c ****   }
 103:Drivers/STM32F4xx_HAL_Driver/Src/stm32f4xx_ll_usb.c ****   else /* FS interface (embedded Phy) */
 104:Drivers/STM32F4xx_HAL_Driver/Src/stm32f4xx_ll_usb.c ****   {
 105:Drivers/STM32F4xx_HAL_Driver/Src/stm32f4xx_ll_usb.c ****     /* Select FS Embedded PHY */
 106:Drivers/STM32F4xx_HAL_Driver/Src/stm32f4xx_ll_usb.c ****     USBx->GUSBCFG |= USB_OTG_GUSBCFG_PHYSEL;
 107:Drivers/STM32F4xx_HAL_Driver/Src/stm32f4xx_ll_usb.c **** 
 108:Drivers/STM32F4xx_HAL_Driver/Src/stm32f4xx_ll_usb.c ****     /* Reset after a PHY select */
 109:Drivers/STM32F4xx_HAL_Driver/Src/stm32f4xx_ll_usb.c ****     ret = USB_CoreReset(USBx);
 110:Drivers/STM32F4xx_HAL_Driver/Src/stm32f4xx_ll_usb.c **** 
 111:Drivers/STM32F4xx_HAL_Driver/Src/stm32f4xx_ll_usb.c ****     if (cfg.battery_charging_enable == 0U)
 112:Drivers/STM32F4xx_HAL_Driver/Src/stm32f4xx_ll_usb.c ****     {
 113:Drivers/STM32F4xx_HAL_Driver/Src/stm32f4xx_ll_usb.c ****       /* Activate the USB Transceiver */
 114:Drivers/STM32F4xx_HAL_Driver/Src/stm32f4xx_ll_usb.c ****       USBx->GCCFG |= USB_OTG_GCCFG_PWRDWN;
 115:Drivers/STM32F4xx_HAL_Driver/Src/stm32f4xx_ll_usb.c ****     }
 116:Drivers/STM32F4xx_HAL_Driver/Src/stm32f4xx_ll_usb.c ****     else
 117:Drivers/STM32F4xx_HAL_Driver/Src/stm32f4xx_ll_usb.c ****     {
 118:Drivers/STM32F4xx_HAL_Driver/Src/stm32f4xx_ll_usb.c ****       /* Deactivate the USB Transceiver */
 119:Drivers/STM32F4xx_HAL_Driver/Src/stm32f4xx_ll_usb.c ****       USBx->GCCFG &= ~(USB_OTG_GCCFG_PWRDWN);
 120:Drivers/STM32F4xx_HAL_Driver/Src/stm32f4xx_ll_usb.c ****     }
 121:Drivers/STM32F4xx_HAL_Driver/Src/stm32f4xx_ll_usb.c ****   }
 122:Drivers/STM32F4xx_HAL_Driver/Src/stm32f4xx_ll_usb.c **** 
 123:Drivers/STM32F4xx_HAL_Driver/Src/stm32f4xx_ll_usb.c ****   if (cfg.dma_enable == 1U)
 124:Drivers/STM32F4xx_HAL_Driver/Src/stm32f4xx_ll_usb.c ****   {
 125:Drivers/STM32F4xx_HAL_Driver/Src/stm32f4xx_ll_usb.c ****     USBx->GAHBCFG |= USB_OTG_GAHBCFG_HBSTLEN_2;
 126:Drivers/STM32F4xx_HAL_Driver/Src/stm32f4xx_ll_usb.c ****     USBx->GAHBCFG |= USB_OTG_GAHBCFG_DMAEN;
 127:Drivers/STM32F4xx_HAL_Driver/Src/stm32f4xx_ll_usb.c ****   }
 128:Drivers/STM32F4xx_HAL_Driver/Src/stm32f4xx_ll_usb.c **** 
 129:Drivers/STM32F4xx_HAL_Driver/Src/stm32f4xx_ll_usb.c ****   return ret;
 130:Drivers/STM32F4xx_HAL_Driver/Src/stm32f4xx_ll_usb.c **** }
 131:Drivers/STM32F4xx_HAL_Driver/Src/stm32f4xx_ll_usb.c **** 
 132:Drivers/STM32F4xx_HAL_Driver/Src/stm32f4xx_ll_usb.c **** 
 133:Drivers/STM32F4xx_HAL_Driver/Src/stm32f4xx_ll_usb.c **** /**
 134:Drivers/STM32F4xx_HAL_Driver/Src/stm32f4xx_ll_usb.c ****   * @brief  Set the USB turnaround time
 135:Drivers/STM32F4xx_HAL_Driver/Src/stm32f4xx_ll_usb.c ****   * @param  USBx USB Instance
 136:Drivers/STM32F4xx_HAL_Driver/Src/stm32f4xx_ll_usb.c ****   * @param  hclk: AHB clock frequency
 137:Drivers/STM32F4xx_HAL_Driver/Src/stm32f4xx_ll_usb.c ****   * @retval USB turnaround time In PHY Clocks number
 138:Drivers/STM32F4xx_HAL_Driver/Src/stm32f4xx_ll_usb.c ****   */
 139:Drivers/STM32F4xx_HAL_Driver/Src/stm32f4xx_ll_usb.c **** HAL_StatusTypeDef USB_SetTurnaroundTime(USB_OTG_GlobalTypeDef *USBx,
 140:Drivers/STM32F4xx_HAL_Driver/Src/stm32f4xx_ll_usb.c ****                                         uint32_t hclk, uint8_t speed)
 141:Drivers/STM32F4xx_HAL_Driver/Src/stm32f4xx_ll_usb.c **** {
 142:Drivers/STM32F4xx_HAL_Driver/Src/stm32f4xx_ll_usb.c ****   uint32_t UsbTrd;
 143:Drivers/STM32F4xx_HAL_Driver/Src/stm32f4xx_ll_usb.c **** 
 144:Drivers/STM32F4xx_HAL_Driver/Src/stm32f4xx_ll_usb.c ****   /* The USBTRD is configured according to the tables below, depending on AHB frequency
ARM GAS  C:\Users\marci\AppData\Local\Temp\ccNtE0Aw.s 			page 4


 145:Drivers/STM32F4xx_HAL_Driver/Src/stm32f4xx_ll_usb.c ****   used by application. In the low AHB frequency range it is used to stretch enough the USB response
 146:Drivers/STM32F4xx_HAL_Driver/Src/stm32f4xx_ll_usb.c ****   time to IN tokens, the USB turnaround time, so to compensate for the longer AHB read access
 147:Drivers/STM32F4xx_HAL_Driver/Src/stm32f4xx_ll_usb.c ****   latency to the Data FIFO */
 148:Drivers/STM32F4xx_HAL_Driver/Src/stm32f4xx_ll_usb.c ****   if (speed == USBD_FS_SPEED)
 149:Drivers/STM32F4xx_HAL_Driver/Src/stm32f4xx_ll_usb.c ****   {
 150:Drivers/STM32F4xx_HAL_Driver/Src/stm32f4xx_ll_usb.c ****     if ((hclk >= 14200000U) && (hclk < 15000000U))
 151:Drivers/STM32F4xx_HAL_Driver/Src/stm32f4xx_ll_usb.c ****     {
 152:Drivers/STM32F4xx_HAL_Driver/Src/stm32f4xx_ll_usb.c ****       /* hclk Clock Range between 14.2-15 MHz */
 153:Drivers/STM32F4xx_HAL_Driver/Src/stm32f4xx_ll_usb.c ****       UsbTrd = 0xFU;
 154:Drivers/STM32F4xx_HAL_Driver/Src/stm32f4xx_ll_usb.c ****     }
 155:Drivers/STM32F4xx_HAL_Driver/Src/stm32f4xx_ll_usb.c ****     else if ((hclk >= 15000000U) && (hclk < 16000000U))
 156:Drivers/STM32F4xx_HAL_Driver/Src/stm32f4xx_ll_usb.c ****     {
 157:Drivers/STM32F4xx_HAL_Driver/Src/stm32f4xx_ll_usb.c ****       /* hclk Clock Range between 15-16 MHz */
 158:Drivers/STM32F4xx_HAL_Driver/Src/stm32f4xx_ll_usb.c ****       UsbTrd = 0xEU;
 159:Drivers/STM32F4xx_HAL_Driver/Src/stm32f4xx_ll_usb.c ****     }
 160:Drivers/STM32F4xx_HAL_Driver/Src/stm32f4xx_ll_usb.c ****     else if ((hclk >= 16000000U) && (hclk < 17200000U))
 161:Drivers/STM32F4xx_HAL_Driver/Src/stm32f4xx_ll_usb.c ****     {
 162:Drivers/STM32F4xx_HAL_Driver/Src/stm32f4xx_ll_usb.c ****       /* hclk Clock Range between 16-17.2 MHz */
 163:Drivers/STM32F4xx_HAL_Driver/Src/stm32f4xx_ll_usb.c ****       UsbTrd = 0xDU;
 164:Drivers/STM32F4xx_HAL_Driver/Src/stm32f4xx_ll_usb.c ****     }
 165:Drivers/STM32F4xx_HAL_Driver/Src/stm32f4xx_ll_usb.c ****     else if ((hclk >= 17200000U) && (hclk < 18500000U))
 166:Drivers/STM32F4xx_HAL_Driver/Src/stm32f4xx_ll_usb.c ****     {
 167:Drivers/STM32F4xx_HAL_Driver/Src/stm32f4xx_ll_usb.c ****       /* hclk Clock Range between 17.2-18.5 MHz */
 168:Drivers/STM32F4xx_HAL_Driver/Src/stm32f4xx_ll_usb.c ****       UsbTrd = 0xCU;
 169:Drivers/STM32F4xx_HAL_Driver/Src/stm32f4xx_ll_usb.c ****     }
 170:Drivers/STM32F4xx_HAL_Driver/Src/stm32f4xx_ll_usb.c ****     else if ((hclk >= 18500000U) && (hclk < 20000000U))
 171:Drivers/STM32F4xx_HAL_Driver/Src/stm32f4xx_ll_usb.c ****     {
 172:Drivers/STM32F4xx_HAL_Driver/Src/stm32f4xx_ll_usb.c ****       /* hclk Clock Range between 18.5-20 MHz */
 173:Drivers/STM32F4xx_HAL_Driver/Src/stm32f4xx_ll_usb.c ****       UsbTrd = 0xBU;
 174:Drivers/STM32F4xx_HAL_Driver/Src/stm32f4xx_ll_usb.c ****     }
 175:Drivers/STM32F4xx_HAL_Driver/Src/stm32f4xx_ll_usb.c ****     else if ((hclk >= 20000000U) && (hclk < 21800000U))
 176:Drivers/STM32F4xx_HAL_Driver/Src/stm32f4xx_ll_usb.c ****     {
 177:Drivers/STM32F4xx_HAL_Driver/Src/stm32f4xx_ll_usb.c ****       /* hclk Clock Range between 20-21.8 MHz */
 178:Drivers/STM32F4xx_HAL_Driver/Src/stm32f4xx_ll_usb.c ****       UsbTrd = 0xAU;
 179:Drivers/STM32F4xx_HAL_Driver/Src/stm32f4xx_ll_usb.c ****     }
 180:Drivers/STM32F4xx_HAL_Driver/Src/stm32f4xx_ll_usb.c ****     else if ((hclk >= 21800000U) && (hclk < 24000000U))
 181:Drivers/STM32F4xx_HAL_Driver/Src/stm32f4xx_ll_usb.c ****     {
 182:Drivers/STM32F4xx_HAL_Driver/Src/stm32f4xx_ll_usb.c ****       /* hclk Clock Range between 21.8-24 MHz */
 183:Drivers/STM32F4xx_HAL_Driver/Src/stm32f4xx_ll_usb.c ****       UsbTrd = 0x9U;
 184:Drivers/STM32F4xx_HAL_Driver/Src/stm32f4xx_ll_usb.c ****     }
 185:Drivers/STM32F4xx_HAL_Driver/Src/stm32f4xx_ll_usb.c ****     else if ((hclk >= 24000000U) && (hclk < 27700000U))
 186:Drivers/STM32F4xx_HAL_Driver/Src/stm32f4xx_ll_usb.c ****     {
 187:Drivers/STM32F4xx_HAL_Driver/Src/stm32f4xx_ll_usb.c ****       /* hclk Clock Range between 24-27.7 MHz */
 188:Drivers/STM32F4xx_HAL_Driver/Src/stm32f4xx_ll_usb.c ****       UsbTrd = 0x8U;
 189:Drivers/STM32F4xx_HAL_Driver/Src/stm32f4xx_ll_usb.c ****     }
 190:Drivers/STM32F4xx_HAL_Driver/Src/stm32f4xx_ll_usb.c ****     else if ((hclk >= 27700000U) && (hclk < 32000000U))
 191:Drivers/STM32F4xx_HAL_Driver/Src/stm32f4xx_ll_usb.c ****     {
 192:Drivers/STM32F4xx_HAL_Driver/Src/stm32f4xx_ll_usb.c ****       /* hclk Clock Range between 27.7-32 MHz */
 193:Drivers/STM32F4xx_HAL_Driver/Src/stm32f4xx_ll_usb.c ****       UsbTrd = 0x7U;
 194:Drivers/STM32F4xx_HAL_Driver/Src/stm32f4xx_ll_usb.c ****     }
 195:Drivers/STM32F4xx_HAL_Driver/Src/stm32f4xx_ll_usb.c ****     else /* if(hclk >= 32000000) */
 196:Drivers/STM32F4xx_HAL_Driver/Src/stm32f4xx_ll_usb.c ****     {
 197:Drivers/STM32F4xx_HAL_Driver/Src/stm32f4xx_ll_usb.c ****       /* hclk Clock Range between 32-200 MHz */
 198:Drivers/STM32F4xx_HAL_Driver/Src/stm32f4xx_ll_usb.c ****       UsbTrd = 0x6U;
 199:Drivers/STM32F4xx_HAL_Driver/Src/stm32f4xx_ll_usb.c ****     }
 200:Drivers/STM32F4xx_HAL_Driver/Src/stm32f4xx_ll_usb.c ****   }
 201:Drivers/STM32F4xx_HAL_Driver/Src/stm32f4xx_ll_usb.c ****   else if (speed == USBD_HS_SPEED)
ARM GAS  C:\Users\marci\AppData\Local\Temp\ccNtE0Aw.s 			page 5


 202:Drivers/STM32F4xx_HAL_Driver/Src/stm32f4xx_ll_usb.c ****   {
 203:Drivers/STM32F4xx_HAL_Driver/Src/stm32f4xx_ll_usb.c ****     UsbTrd = USBD_HS_TRDT_VALUE;
 204:Drivers/STM32F4xx_HAL_Driver/Src/stm32f4xx_ll_usb.c ****   }
 205:Drivers/STM32F4xx_HAL_Driver/Src/stm32f4xx_ll_usb.c ****   else
 206:Drivers/STM32F4xx_HAL_Driver/Src/stm32f4xx_ll_usb.c ****   {
 207:Drivers/STM32F4xx_HAL_Driver/Src/stm32f4xx_ll_usb.c ****     UsbTrd = USBD_DEFAULT_TRDT_VALUE;
 208:Drivers/STM32F4xx_HAL_Driver/Src/stm32f4xx_ll_usb.c ****   }
 209:Drivers/STM32F4xx_HAL_Driver/Src/stm32f4xx_ll_usb.c **** 
 210:Drivers/STM32F4xx_HAL_Driver/Src/stm32f4xx_ll_usb.c ****   USBx->GUSBCFG &= ~USB_OTG_GUSBCFG_TRDT;
 211:Drivers/STM32F4xx_HAL_Driver/Src/stm32f4xx_ll_usb.c ****   USBx->GUSBCFG |= (uint32_t)((UsbTrd << 10) & USB_OTG_GUSBCFG_TRDT);
 212:Drivers/STM32F4xx_HAL_Driver/Src/stm32f4xx_ll_usb.c **** 
 213:Drivers/STM32F4xx_HAL_Driver/Src/stm32f4xx_ll_usb.c ****   return HAL_OK;
 214:Drivers/STM32F4xx_HAL_Driver/Src/stm32f4xx_ll_usb.c **** }
 215:Drivers/STM32F4xx_HAL_Driver/Src/stm32f4xx_ll_usb.c **** 
 216:Drivers/STM32F4xx_HAL_Driver/Src/stm32f4xx_ll_usb.c **** /**
 217:Drivers/STM32F4xx_HAL_Driver/Src/stm32f4xx_ll_usb.c ****   * @brief  USB_EnableGlobalInt
 218:Drivers/STM32F4xx_HAL_Driver/Src/stm32f4xx_ll_usb.c ****   *         Enables the controller's Global Int in the AHB Config reg
 219:Drivers/STM32F4xx_HAL_Driver/Src/stm32f4xx_ll_usb.c ****   * @param  USBx  Selected device
 220:Drivers/STM32F4xx_HAL_Driver/Src/stm32f4xx_ll_usb.c ****   * @retval HAL status
 221:Drivers/STM32F4xx_HAL_Driver/Src/stm32f4xx_ll_usb.c ****   */
 222:Drivers/STM32F4xx_HAL_Driver/Src/stm32f4xx_ll_usb.c **** HAL_StatusTypeDef USB_EnableGlobalInt(USB_OTG_GlobalTypeDef *USBx)
 223:Drivers/STM32F4xx_HAL_Driver/Src/stm32f4xx_ll_usb.c **** {
 224:Drivers/STM32F4xx_HAL_Driver/Src/stm32f4xx_ll_usb.c ****   USBx->GAHBCFG |= USB_OTG_GAHBCFG_GINT;
 225:Drivers/STM32F4xx_HAL_Driver/Src/stm32f4xx_ll_usb.c ****   return HAL_OK;
 226:Drivers/STM32F4xx_HAL_Driver/Src/stm32f4xx_ll_usb.c **** }
 227:Drivers/STM32F4xx_HAL_Driver/Src/stm32f4xx_ll_usb.c **** 
 228:Drivers/STM32F4xx_HAL_Driver/Src/stm32f4xx_ll_usb.c **** /**
 229:Drivers/STM32F4xx_HAL_Driver/Src/stm32f4xx_ll_usb.c ****   * @brief  USB_DisableGlobalInt
 230:Drivers/STM32F4xx_HAL_Driver/Src/stm32f4xx_ll_usb.c ****   *         Disable the controller's Global Int in the AHB Config reg
 231:Drivers/STM32F4xx_HAL_Driver/Src/stm32f4xx_ll_usb.c ****   * @param  USBx  Selected device
 232:Drivers/STM32F4xx_HAL_Driver/Src/stm32f4xx_ll_usb.c ****   * @retval HAL status
 233:Drivers/STM32F4xx_HAL_Driver/Src/stm32f4xx_ll_usb.c ****   */
 234:Drivers/STM32F4xx_HAL_Driver/Src/stm32f4xx_ll_usb.c **** HAL_StatusTypeDef USB_DisableGlobalInt(USB_OTG_GlobalTypeDef *USBx)
 235:Drivers/STM32F4xx_HAL_Driver/Src/stm32f4xx_ll_usb.c **** {
 236:Drivers/STM32F4xx_HAL_Driver/Src/stm32f4xx_ll_usb.c ****   USBx->GAHBCFG &= ~USB_OTG_GAHBCFG_GINT;
 237:Drivers/STM32F4xx_HAL_Driver/Src/stm32f4xx_ll_usb.c ****   return HAL_OK;
 238:Drivers/STM32F4xx_HAL_Driver/Src/stm32f4xx_ll_usb.c **** }
 239:Drivers/STM32F4xx_HAL_Driver/Src/stm32f4xx_ll_usb.c **** 
 240:Drivers/STM32F4xx_HAL_Driver/Src/stm32f4xx_ll_usb.c **** /**
 241:Drivers/STM32F4xx_HAL_Driver/Src/stm32f4xx_ll_usb.c ****   * @brief  USB_SetCurrentMode Set functional mode
 242:Drivers/STM32F4xx_HAL_Driver/Src/stm32f4xx_ll_usb.c ****   * @param  USBx  Selected device
 243:Drivers/STM32F4xx_HAL_Driver/Src/stm32f4xx_ll_usb.c ****   * @param  mode  current core mode
 244:Drivers/STM32F4xx_HAL_Driver/Src/stm32f4xx_ll_usb.c ****   *          This parameter can be one of these values:
 245:Drivers/STM32F4xx_HAL_Driver/Src/stm32f4xx_ll_usb.c ****   *            @arg USB_DEVICE_MODE Peripheral mode
 246:Drivers/STM32F4xx_HAL_Driver/Src/stm32f4xx_ll_usb.c ****   *            @arg USB_HOST_MODE Host mode
 247:Drivers/STM32F4xx_HAL_Driver/Src/stm32f4xx_ll_usb.c ****   * @retval HAL status
 248:Drivers/STM32F4xx_HAL_Driver/Src/stm32f4xx_ll_usb.c ****   */
 249:Drivers/STM32F4xx_HAL_Driver/Src/stm32f4xx_ll_usb.c **** HAL_StatusTypeDef USB_SetCurrentMode(USB_OTG_GlobalTypeDef *USBx, USB_OTG_ModeTypeDef mode)
 250:Drivers/STM32F4xx_HAL_Driver/Src/stm32f4xx_ll_usb.c **** {
 251:Drivers/STM32F4xx_HAL_Driver/Src/stm32f4xx_ll_usb.c ****   uint32_t ms = 0U;
 252:Drivers/STM32F4xx_HAL_Driver/Src/stm32f4xx_ll_usb.c **** 
 253:Drivers/STM32F4xx_HAL_Driver/Src/stm32f4xx_ll_usb.c ****   USBx->GUSBCFG &= ~(USB_OTG_GUSBCFG_FHMOD | USB_OTG_GUSBCFG_FDMOD);
 254:Drivers/STM32F4xx_HAL_Driver/Src/stm32f4xx_ll_usb.c **** 
 255:Drivers/STM32F4xx_HAL_Driver/Src/stm32f4xx_ll_usb.c ****   if (mode == USB_HOST_MODE)
 256:Drivers/STM32F4xx_HAL_Driver/Src/stm32f4xx_ll_usb.c ****   {
 257:Drivers/STM32F4xx_HAL_Driver/Src/stm32f4xx_ll_usb.c ****     USBx->GUSBCFG |= USB_OTG_GUSBCFG_FHMOD;
 258:Drivers/STM32F4xx_HAL_Driver/Src/stm32f4xx_ll_usb.c **** 
ARM GAS  C:\Users\marci\AppData\Local\Temp\ccNtE0Aw.s 			page 6


 259:Drivers/STM32F4xx_HAL_Driver/Src/stm32f4xx_ll_usb.c ****     do
 260:Drivers/STM32F4xx_HAL_Driver/Src/stm32f4xx_ll_usb.c ****     {
 261:Drivers/STM32F4xx_HAL_Driver/Src/stm32f4xx_ll_usb.c ****       HAL_Delay(10U);
 262:Drivers/STM32F4xx_HAL_Driver/Src/stm32f4xx_ll_usb.c ****       ms += 10U;
 263:Drivers/STM32F4xx_HAL_Driver/Src/stm32f4xx_ll_usb.c ****     } while ((USB_GetMode(USBx) != (uint32_t)USB_HOST_MODE) && (ms < HAL_USB_CURRENT_MODE_MAX_DELAY
 264:Drivers/STM32F4xx_HAL_Driver/Src/stm32f4xx_ll_usb.c ****   }
 265:Drivers/STM32F4xx_HAL_Driver/Src/stm32f4xx_ll_usb.c ****   else if (mode == USB_DEVICE_MODE)
 266:Drivers/STM32F4xx_HAL_Driver/Src/stm32f4xx_ll_usb.c ****   {
 267:Drivers/STM32F4xx_HAL_Driver/Src/stm32f4xx_ll_usb.c ****     USBx->GUSBCFG |= USB_OTG_GUSBCFG_FDMOD;
 268:Drivers/STM32F4xx_HAL_Driver/Src/stm32f4xx_ll_usb.c **** 
 269:Drivers/STM32F4xx_HAL_Driver/Src/stm32f4xx_ll_usb.c ****     do
 270:Drivers/STM32F4xx_HAL_Driver/Src/stm32f4xx_ll_usb.c ****     {
 271:Drivers/STM32F4xx_HAL_Driver/Src/stm32f4xx_ll_usb.c ****       HAL_Delay(10U);
 272:Drivers/STM32F4xx_HAL_Driver/Src/stm32f4xx_ll_usb.c ****       ms += 10U;
 273:Drivers/STM32F4xx_HAL_Driver/Src/stm32f4xx_ll_usb.c ****     } while ((USB_GetMode(USBx) != (uint32_t)USB_DEVICE_MODE) && (ms < HAL_USB_CURRENT_MODE_MAX_DEL
 274:Drivers/STM32F4xx_HAL_Driver/Src/stm32f4xx_ll_usb.c ****   }
 275:Drivers/STM32F4xx_HAL_Driver/Src/stm32f4xx_ll_usb.c ****   else
 276:Drivers/STM32F4xx_HAL_Driver/Src/stm32f4xx_ll_usb.c ****   {
 277:Drivers/STM32F4xx_HAL_Driver/Src/stm32f4xx_ll_usb.c ****     return HAL_ERROR;
 278:Drivers/STM32F4xx_HAL_Driver/Src/stm32f4xx_ll_usb.c ****   }
 279:Drivers/STM32F4xx_HAL_Driver/Src/stm32f4xx_ll_usb.c **** 
 280:Drivers/STM32F4xx_HAL_Driver/Src/stm32f4xx_ll_usb.c ****   if (ms == HAL_USB_CURRENT_MODE_MAX_DELAY_MS)
 281:Drivers/STM32F4xx_HAL_Driver/Src/stm32f4xx_ll_usb.c ****   {
 282:Drivers/STM32F4xx_HAL_Driver/Src/stm32f4xx_ll_usb.c ****     return HAL_ERROR;
 283:Drivers/STM32F4xx_HAL_Driver/Src/stm32f4xx_ll_usb.c ****   }
 284:Drivers/STM32F4xx_HAL_Driver/Src/stm32f4xx_ll_usb.c **** 
 285:Drivers/STM32F4xx_HAL_Driver/Src/stm32f4xx_ll_usb.c ****   return HAL_OK;
 286:Drivers/STM32F4xx_HAL_Driver/Src/stm32f4xx_ll_usb.c **** }
 287:Drivers/STM32F4xx_HAL_Driver/Src/stm32f4xx_ll_usb.c **** 
 288:Drivers/STM32F4xx_HAL_Driver/Src/stm32f4xx_ll_usb.c **** /**
 289:Drivers/STM32F4xx_HAL_Driver/Src/stm32f4xx_ll_usb.c ****   * @brief  USB_DevInit Initializes the USB_OTG controller registers
 290:Drivers/STM32F4xx_HAL_Driver/Src/stm32f4xx_ll_usb.c ****   *         for device mode
 291:Drivers/STM32F4xx_HAL_Driver/Src/stm32f4xx_ll_usb.c ****   * @param  USBx  Selected device
 292:Drivers/STM32F4xx_HAL_Driver/Src/stm32f4xx_ll_usb.c ****   * @param  cfg   pointer to a USB_OTG_CfgTypeDef structure that contains
 293:Drivers/STM32F4xx_HAL_Driver/Src/stm32f4xx_ll_usb.c ****   *         the configuration information for the specified USBx peripheral.
 294:Drivers/STM32F4xx_HAL_Driver/Src/stm32f4xx_ll_usb.c ****   * @retval HAL status
 295:Drivers/STM32F4xx_HAL_Driver/Src/stm32f4xx_ll_usb.c ****   */
 296:Drivers/STM32F4xx_HAL_Driver/Src/stm32f4xx_ll_usb.c **** HAL_StatusTypeDef USB_DevInit(USB_OTG_GlobalTypeDef *USBx, USB_OTG_CfgTypeDef cfg)
 297:Drivers/STM32F4xx_HAL_Driver/Src/stm32f4xx_ll_usb.c **** {
 298:Drivers/STM32F4xx_HAL_Driver/Src/stm32f4xx_ll_usb.c ****   HAL_StatusTypeDef ret = HAL_OK;
 299:Drivers/STM32F4xx_HAL_Driver/Src/stm32f4xx_ll_usb.c ****   uint32_t USBx_BASE = (uint32_t)USBx;
 300:Drivers/STM32F4xx_HAL_Driver/Src/stm32f4xx_ll_usb.c ****   uint32_t i;
 301:Drivers/STM32F4xx_HAL_Driver/Src/stm32f4xx_ll_usb.c **** 
 302:Drivers/STM32F4xx_HAL_Driver/Src/stm32f4xx_ll_usb.c ****   for (i = 0U; i < 15U; i++)
 303:Drivers/STM32F4xx_HAL_Driver/Src/stm32f4xx_ll_usb.c ****   {
 304:Drivers/STM32F4xx_HAL_Driver/Src/stm32f4xx_ll_usb.c ****     USBx->DIEPTXF[i] = 0U;
 305:Drivers/STM32F4xx_HAL_Driver/Src/stm32f4xx_ll_usb.c ****   }
 306:Drivers/STM32F4xx_HAL_Driver/Src/stm32f4xx_ll_usb.c **** 
 307:Drivers/STM32F4xx_HAL_Driver/Src/stm32f4xx_ll_usb.c **** #if defined(STM32F446xx) || defined(STM32F469xx) || defined(STM32F479xx) || defined(STM32F412Zx) \
 308:Drivers/STM32F4xx_HAL_Driver/Src/stm32f4xx_ll_usb.c ****  || defined(STM32F412Vx) || defined(STM32F412Rx) || defined(STM32F412Cx) || defined(STM32F413xx) \
 309:Drivers/STM32F4xx_HAL_Driver/Src/stm32f4xx_ll_usb.c ****  || defined(STM32F423xx)
 310:Drivers/STM32F4xx_HAL_Driver/Src/stm32f4xx_ll_usb.c ****   /* VBUS Sensing setup */
 311:Drivers/STM32F4xx_HAL_Driver/Src/stm32f4xx_ll_usb.c ****   if (cfg.vbus_sensing_enable == 0U)
 312:Drivers/STM32F4xx_HAL_Driver/Src/stm32f4xx_ll_usb.c ****   {
 313:Drivers/STM32F4xx_HAL_Driver/Src/stm32f4xx_ll_usb.c ****     USBx_DEVICE->DCTL |= USB_OTG_DCTL_SDIS;
 314:Drivers/STM32F4xx_HAL_Driver/Src/stm32f4xx_ll_usb.c **** 
 315:Drivers/STM32F4xx_HAL_Driver/Src/stm32f4xx_ll_usb.c ****     /* Deactivate VBUS Sensing B */
ARM GAS  C:\Users\marci\AppData\Local\Temp\ccNtE0Aw.s 			page 7


 316:Drivers/STM32F4xx_HAL_Driver/Src/stm32f4xx_ll_usb.c ****     USBx->GCCFG &= ~USB_OTG_GCCFG_VBDEN;
 317:Drivers/STM32F4xx_HAL_Driver/Src/stm32f4xx_ll_usb.c **** 
 318:Drivers/STM32F4xx_HAL_Driver/Src/stm32f4xx_ll_usb.c ****     /* B-peripheral session valid override enable */
 319:Drivers/STM32F4xx_HAL_Driver/Src/stm32f4xx_ll_usb.c ****     USBx->GOTGCTL |= USB_OTG_GOTGCTL_BVALOEN;
 320:Drivers/STM32F4xx_HAL_Driver/Src/stm32f4xx_ll_usb.c ****     USBx->GOTGCTL |= USB_OTG_GOTGCTL_BVALOVAL;
 321:Drivers/STM32F4xx_HAL_Driver/Src/stm32f4xx_ll_usb.c ****   }
 322:Drivers/STM32F4xx_HAL_Driver/Src/stm32f4xx_ll_usb.c ****   else
 323:Drivers/STM32F4xx_HAL_Driver/Src/stm32f4xx_ll_usb.c ****   {
 324:Drivers/STM32F4xx_HAL_Driver/Src/stm32f4xx_ll_usb.c ****     /* Enable HW VBUS sensing */
 325:Drivers/STM32F4xx_HAL_Driver/Src/stm32f4xx_ll_usb.c ****     USBx->GCCFG |= USB_OTG_GCCFG_VBDEN;
 326:Drivers/STM32F4xx_HAL_Driver/Src/stm32f4xx_ll_usb.c ****   }
 327:Drivers/STM32F4xx_HAL_Driver/Src/stm32f4xx_ll_usb.c **** #else
 328:Drivers/STM32F4xx_HAL_Driver/Src/stm32f4xx_ll_usb.c ****   /* VBUS Sensing setup */
 329:Drivers/STM32F4xx_HAL_Driver/Src/stm32f4xx_ll_usb.c ****   if (cfg.vbus_sensing_enable == 0U)
 330:Drivers/STM32F4xx_HAL_Driver/Src/stm32f4xx_ll_usb.c ****   {
 331:Drivers/STM32F4xx_HAL_Driver/Src/stm32f4xx_ll_usb.c ****     /*
 332:Drivers/STM32F4xx_HAL_Driver/Src/stm32f4xx_ll_usb.c ****      * Disable HW VBUS sensing. VBUS is internally considered to be always
 333:Drivers/STM32F4xx_HAL_Driver/Src/stm32f4xx_ll_usb.c ****      * at VBUS-Valid level (5V).
 334:Drivers/STM32F4xx_HAL_Driver/Src/stm32f4xx_ll_usb.c ****      */
 335:Drivers/STM32F4xx_HAL_Driver/Src/stm32f4xx_ll_usb.c ****     USBx_DEVICE->DCTL |= USB_OTG_DCTL_SDIS;
 336:Drivers/STM32F4xx_HAL_Driver/Src/stm32f4xx_ll_usb.c ****     USBx->GCCFG |= USB_OTG_GCCFG_NOVBUSSENS;
 337:Drivers/STM32F4xx_HAL_Driver/Src/stm32f4xx_ll_usb.c ****     USBx->GCCFG &= ~USB_OTG_GCCFG_VBUSBSEN;
 338:Drivers/STM32F4xx_HAL_Driver/Src/stm32f4xx_ll_usb.c ****     USBx->GCCFG &= ~USB_OTG_GCCFG_VBUSASEN;
 339:Drivers/STM32F4xx_HAL_Driver/Src/stm32f4xx_ll_usb.c ****   }
 340:Drivers/STM32F4xx_HAL_Driver/Src/stm32f4xx_ll_usb.c ****   else
 341:Drivers/STM32F4xx_HAL_Driver/Src/stm32f4xx_ll_usb.c ****   {
 342:Drivers/STM32F4xx_HAL_Driver/Src/stm32f4xx_ll_usb.c ****     /* Enable HW VBUS sensing */
 343:Drivers/STM32F4xx_HAL_Driver/Src/stm32f4xx_ll_usb.c ****     USBx->GCCFG &= ~USB_OTG_GCCFG_NOVBUSSENS;
 344:Drivers/STM32F4xx_HAL_Driver/Src/stm32f4xx_ll_usb.c ****     USBx->GCCFG |= USB_OTG_GCCFG_VBUSBSEN;
 345:Drivers/STM32F4xx_HAL_Driver/Src/stm32f4xx_ll_usb.c ****   }
 346:Drivers/STM32F4xx_HAL_Driver/Src/stm32f4xx_ll_usb.c **** #endif /* defined(STM32F446xx) || defined(STM32F469xx) || defined(STM32F479xx) || defined(STM32F412
 347:Drivers/STM32F4xx_HAL_Driver/Src/stm32f4xx_ll_usb.c ****           defined(STM32F412Vx) || defined(STM32F412Rx) || defined(STM32F412Cx) || defined(STM32F413
 348:Drivers/STM32F4xx_HAL_Driver/Src/stm32f4xx_ll_usb.c ****           defined(STM32F423xx) */
 349:Drivers/STM32F4xx_HAL_Driver/Src/stm32f4xx_ll_usb.c **** 
 350:Drivers/STM32F4xx_HAL_Driver/Src/stm32f4xx_ll_usb.c ****   /* Restart the Phy Clock */
 351:Drivers/STM32F4xx_HAL_Driver/Src/stm32f4xx_ll_usb.c ****   USBx_PCGCCTL = 0U;
 352:Drivers/STM32F4xx_HAL_Driver/Src/stm32f4xx_ll_usb.c **** 
 353:Drivers/STM32F4xx_HAL_Driver/Src/stm32f4xx_ll_usb.c ****   if (cfg.phy_itface == USB_OTG_ULPI_PHY)
 354:Drivers/STM32F4xx_HAL_Driver/Src/stm32f4xx_ll_usb.c ****   {
 355:Drivers/STM32F4xx_HAL_Driver/Src/stm32f4xx_ll_usb.c ****     if (cfg.speed == USBD_HS_SPEED)
 356:Drivers/STM32F4xx_HAL_Driver/Src/stm32f4xx_ll_usb.c ****     {
 357:Drivers/STM32F4xx_HAL_Driver/Src/stm32f4xx_ll_usb.c ****       /* Set Core speed to High speed mode */
 358:Drivers/STM32F4xx_HAL_Driver/Src/stm32f4xx_ll_usb.c ****       (void)USB_SetDevSpeed(USBx, USB_OTG_SPEED_HIGH);
 359:Drivers/STM32F4xx_HAL_Driver/Src/stm32f4xx_ll_usb.c ****     }
 360:Drivers/STM32F4xx_HAL_Driver/Src/stm32f4xx_ll_usb.c ****     else
 361:Drivers/STM32F4xx_HAL_Driver/Src/stm32f4xx_ll_usb.c ****     {
 362:Drivers/STM32F4xx_HAL_Driver/Src/stm32f4xx_ll_usb.c ****       /* Set Core speed to Full speed mode */
 363:Drivers/STM32F4xx_HAL_Driver/Src/stm32f4xx_ll_usb.c ****       (void)USB_SetDevSpeed(USBx, USB_OTG_SPEED_HIGH_IN_FULL);
 364:Drivers/STM32F4xx_HAL_Driver/Src/stm32f4xx_ll_usb.c ****     }
 365:Drivers/STM32F4xx_HAL_Driver/Src/stm32f4xx_ll_usb.c ****   }
 366:Drivers/STM32F4xx_HAL_Driver/Src/stm32f4xx_ll_usb.c ****   else
 367:Drivers/STM32F4xx_HAL_Driver/Src/stm32f4xx_ll_usb.c ****   {
 368:Drivers/STM32F4xx_HAL_Driver/Src/stm32f4xx_ll_usb.c ****     /* Set Core speed to Full speed mode */
 369:Drivers/STM32F4xx_HAL_Driver/Src/stm32f4xx_ll_usb.c ****     (void)USB_SetDevSpeed(USBx, USB_OTG_SPEED_FULL);
 370:Drivers/STM32F4xx_HAL_Driver/Src/stm32f4xx_ll_usb.c ****   }
 371:Drivers/STM32F4xx_HAL_Driver/Src/stm32f4xx_ll_usb.c **** 
 372:Drivers/STM32F4xx_HAL_Driver/Src/stm32f4xx_ll_usb.c ****   /* Flush the FIFOs */
ARM GAS  C:\Users\marci\AppData\Local\Temp\ccNtE0Aw.s 			page 8


 373:Drivers/STM32F4xx_HAL_Driver/Src/stm32f4xx_ll_usb.c ****   if (USB_FlushTxFifo(USBx, 0x10U) != HAL_OK) /* all Tx FIFOs */
 374:Drivers/STM32F4xx_HAL_Driver/Src/stm32f4xx_ll_usb.c ****   {
 375:Drivers/STM32F4xx_HAL_Driver/Src/stm32f4xx_ll_usb.c ****     ret = HAL_ERROR;
 376:Drivers/STM32F4xx_HAL_Driver/Src/stm32f4xx_ll_usb.c ****   }
 377:Drivers/STM32F4xx_HAL_Driver/Src/stm32f4xx_ll_usb.c **** 
 378:Drivers/STM32F4xx_HAL_Driver/Src/stm32f4xx_ll_usb.c ****   if (USB_FlushRxFifo(USBx) != HAL_OK)
 379:Drivers/STM32F4xx_HAL_Driver/Src/stm32f4xx_ll_usb.c ****   {
 380:Drivers/STM32F4xx_HAL_Driver/Src/stm32f4xx_ll_usb.c ****     ret = HAL_ERROR;
 381:Drivers/STM32F4xx_HAL_Driver/Src/stm32f4xx_ll_usb.c ****   }
 382:Drivers/STM32F4xx_HAL_Driver/Src/stm32f4xx_ll_usb.c **** 
 383:Drivers/STM32F4xx_HAL_Driver/Src/stm32f4xx_ll_usb.c ****   /* Clear all pending Device Interrupts */
 384:Drivers/STM32F4xx_HAL_Driver/Src/stm32f4xx_ll_usb.c ****   USBx_DEVICE->DIEPMSK = 0U;
 385:Drivers/STM32F4xx_HAL_Driver/Src/stm32f4xx_ll_usb.c ****   USBx_DEVICE->DOEPMSK = 0U;
 386:Drivers/STM32F4xx_HAL_Driver/Src/stm32f4xx_ll_usb.c ****   USBx_DEVICE->DAINTMSK = 0U;
 387:Drivers/STM32F4xx_HAL_Driver/Src/stm32f4xx_ll_usb.c **** 
 388:Drivers/STM32F4xx_HAL_Driver/Src/stm32f4xx_ll_usb.c ****   for (i = 0U; i < cfg.dev_endpoints; i++)
 389:Drivers/STM32F4xx_HAL_Driver/Src/stm32f4xx_ll_usb.c ****   {
 390:Drivers/STM32F4xx_HAL_Driver/Src/stm32f4xx_ll_usb.c ****     if ((USBx_INEP(i)->DIEPCTL & USB_OTG_DIEPCTL_EPENA) == USB_OTG_DIEPCTL_EPENA)
 391:Drivers/STM32F4xx_HAL_Driver/Src/stm32f4xx_ll_usb.c ****     {
 392:Drivers/STM32F4xx_HAL_Driver/Src/stm32f4xx_ll_usb.c ****       if (i == 0U)
 393:Drivers/STM32F4xx_HAL_Driver/Src/stm32f4xx_ll_usb.c ****       {
 394:Drivers/STM32F4xx_HAL_Driver/Src/stm32f4xx_ll_usb.c ****         USBx_INEP(i)->DIEPCTL = USB_OTG_DIEPCTL_SNAK;
 395:Drivers/STM32F4xx_HAL_Driver/Src/stm32f4xx_ll_usb.c ****       }
 396:Drivers/STM32F4xx_HAL_Driver/Src/stm32f4xx_ll_usb.c ****       else
 397:Drivers/STM32F4xx_HAL_Driver/Src/stm32f4xx_ll_usb.c ****       {
 398:Drivers/STM32F4xx_HAL_Driver/Src/stm32f4xx_ll_usb.c ****         USBx_INEP(i)->DIEPCTL = USB_OTG_DIEPCTL_EPDIS | USB_OTG_DIEPCTL_SNAK;
 399:Drivers/STM32F4xx_HAL_Driver/Src/stm32f4xx_ll_usb.c ****       }
 400:Drivers/STM32F4xx_HAL_Driver/Src/stm32f4xx_ll_usb.c ****     }
 401:Drivers/STM32F4xx_HAL_Driver/Src/stm32f4xx_ll_usb.c ****     else
 402:Drivers/STM32F4xx_HAL_Driver/Src/stm32f4xx_ll_usb.c ****     {
 403:Drivers/STM32F4xx_HAL_Driver/Src/stm32f4xx_ll_usb.c ****       USBx_INEP(i)->DIEPCTL = 0U;
 404:Drivers/STM32F4xx_HAL_Driver/Src/stm32f4xx_ll_usb.c ****     }
 405:Drivers/STM32F4xx_HAL_Driver/Src/stm32f4xx_ll_usb.c **** 
 406:Drivers/STM32F4xx_HAL_Driver/Src/stm32f4xx_ll_usb.c ****     USBx_INEP(i)->DIEPTSIZ = 0U;
 407:Drivers/STM32F4xx_HAL_Driver/Src/stm32f4xx_ll_usb.c ****     USBx_INEP(i)->DIEPINT  = 0xFB7FU;
 408:Drivers/STM32F4xx_HAL_Driver/Src/stm32f4xx_ll_usb.c ****   }
 409:Drivers/STM32F4xx_HAL_Driver/Src/stm32f4xx_ll_usb.c **** 
 410:Drivers/STM32F4xx_HAL_Driver/Src/stm32f4xx_ll_usb.c ****   for (i = 0U; i < cfg.dev_endpoints; i++)
 411:Drivers/STM32F4xx_HAL_Driver/Src/stm32f4xx_ll_usb.c ****   {
 412:Drivers/STM32F4xx_HAL_Driver/Src/stm32f4xx_ll_usb.c ****     if ((USBx_OUTEP(i)->DOEPCTL & USB_OTG_DOEPCTL_EPENA) == USB_OTG_DOEPCTL_EPENA)
 413:Drivers/STM32F4xx_HAL_Driver/Src/stm32f4xx_ll_usb.c ****     {
 414:Drivers/STM32F4xx_HAL_Driver/Src/stm32f4xx_ll_usb.c ****       if (i == 0U)
 415:Drivers/STM32F4xx_HAL_Driver/Src/stm32f4xx_ll_usb.c ****       {
 416:Drivers/STM32F4xx_HAL_Driver/Src/stm32f4xx_ll_usb.c ****         USBx_OUTEP(i)->DOEPCTL = USB_OTG_DOEPCTL_SNAK;
 417:Drivers/STM32F4xx_HAL_Driver/Src/stm32f4xx_ll_usb.c ****       }
 418:Drivers/STM32F4xx_HAL_Driver/Src/stm32f4xx_ll_usb.c ****       else
 419:Drivers/STM32F4xx_HAL_Driver/Src/stm32f4xx_ll_usb.c ****       {
 420:Drivers/STM32F4xx_HAL_Driver/Src/stm32f4xx_ll_usb.c ****         USBx_OUTEP(i)->DOEPCTL = USB_OTG_DOEPCTL_EPDIS | USB_OTG_DOEPCTL_SNAK;
 421:Drivers/STM32F4xx_HAL_Driver/Src/stm32f4xx_ll_usb.c ****       }
 422:Drivers/STM32F4xx_HAL_Driver/Src/stm32f4xx_ll_usb.c ****     }
 423:Drivers/STM32F4xx_HAL_Driver/Src/stm32f4xx_ll_usb.c ****     else
 424:Drivers/STM32F4xx_HAL_Driver/Src/stm32f4xx_ll_usb.c ****     {
 425:Drivers/STM32F4xx_HAL_Driver/Src/stm32f4xx_ll_usb.c ****       USBx_OUTEP(i)->DOEPCTL = 0U;
 426:Drivers/STM32F4xx_HAL_Driver/Src/stm32f4xx_ll_usb.c ****     }
 427:Drivers/STM32F4xx_HAL_Driver/Src/stm32f4xx_ll_usb.c **** 
 428:Drivers/STM32F4xx_HAL_Driver/Src/stm32f4xx_ll_usb.c ****     USBx_OUTEP(i)->DOEPTSIZ = 0U;
 429:Drivers/STM32F4xx_HAL_Driver/Src/stm32f4xx_ll_usb.c ****     USBx_OUTEP(i)->DOEPINT  = 0xFB7FU;
ARM GAS  C:\Users\marci\AppData\Local\Temp\ccNtE0Aw.s 			page 9


 430:Drivers/STM32F4xx_HAL_Driver/Src/stm32f4xx_ll_usb.c ****   }
 431:Drivers/STM32F4xx_HAL_Driver/Src/stm32f4xx_ll_usb.c **** 
 432:Drivers/STM32F4xx_HAL_Driver/Src/stm32f4xx_ll_usb.c ****   USBx_DEVICE->DIEPMSK &= ~(USB_OTG_DIEPMSK_TXFURM);
 433:Drivers/STM32F4xx_HAL_Driver/Src/stm32f4xx_ll_usb.c **** 
 434:Drivers/STM32F4xx_HAL_Driver/Src/stm32f4xx_ll_usb.c ****   /* Disable all interrupts. */
 435:Drivers/STM32F4xx_HAL_Driver/Src/stm32f4xx_ll_usb.c ****   USBx->GINTMSK = 0U;
 436:Drivers/STM32F4xx_HAL_Driver/Src/stm32f4xx_ll_usb.c **** 
 437:Drivers/STM32F4xx_HAL_Driver/Src/stm32f4xx_ll_usb.c ****   /* Clear any pending interrupts */
 438:Drivers/STM32F4xx_HAL_Driver/Src/stm32f4xx_ll_usb.c ****   USBx->GINTSTS = 0xBFFFFFFFU;
 439:Drivers/STM32F4xx_HAL_Driver/Src/stm32f4xx_ll_usb.c **** 
 440:Drivers/STM32F4xx_HAL_Driver/Src/stm32f4xx_ll_usb.c ****   /* Enable the common interrupts */
 441:Drivers/STM32F4xx_HAL_Driver/Src/stm32f4xx_ll_usb.c ****   if (cfg.dma_enable == 0U)
 442:Drivers/STM32F4xx_HAL_Driver/Src/stm32f4xx_ll_usb.c ****   {
 443:Drivers/STM32F4xx_HAL_Driver/Src/stm32f4xx_ll_usb.c ****     USBx->GINTMSK |= USB_OTG_GINTMSK_RXFLVLM;
 444:Drivers/STM32F4xx_HAL_Driver/Src/stm32f4xx_ll_usb.c ****   }
 445:Drivers/STM32F4xx_HAL_Driver/Src/stm32f4xx_ll_usb.c **** 
 446:Drivers/STM32F4xx_HAL_Driver/Src/stm32f4xx_ll_usb.c ****   /* Enable interrupts matching to the Device mode ONLY */
 447:Drivers/STM32F4xx_HAL_Driver/Src/stm32f4xx_ll_usb.c ****   USBx->GINTMSK |= USB_OTG_GINTMSK_USBSUSPM | USB_OTG_GINTMSK_USBRST |
 448:Drivers/STM32F4xx_HAL_Driver/Src/stm32f4xx_ll_usb.c ****                    USB_OTG_GINTMSK_ENUMDNEM | USB_OTG_GINTMSK_IEPINT |
 449:Drivers/STM32F4xx_HAL_Driver/Src/stm32f4xx_ll_usb.c ****                    USB_OTG_GINTMSK_OEPINT   | USB_OTG_GINTMSK_IISOIXFRM |
 450:Drivers/STM32F4xx_HAL_Driver/Src/stm32f4xx_ll_usb.c ****                    USB_OTG_GINTMSK_PXFRM_IISOOXFRM | USB_OTG_GINTMSK_WUIM;
 451:Drivers/STM32F4xx_HAL_Driver/Src/stm32f4xx_ll_usb.c **** 
 452:Drivers/STM32F4xx_HAL_Driver/Src/stm32f4xx_ll_usb.c ****   if (cfg.Sof_enable != 0U)
 453:Drivers/STM32F4xx_HAL_Driver/Src/stm32f4xx_ll_usb.c ****   {
 454:Drivers/STM32F4xx_HAL_Driver/Src/stm32f4xx_ll_usb.c ****     USBx->GINTMSK |= USB_OTG_GINTMSK_SOFM;
 455:Drivers/STM32F4xx_HAL_Driver/Src/stm32f4xx_ll_usb.c ****   }
 456:Drivers/STM32F4xx_HAL_Driver/Src/stm32f4xx_ll_usb.c **** 
 457:Drivers/STM32F4xx_HAL_Driver/Src/stm32f4xx_ll_usb.c ****   if (cfg.vbus_sensing_enable == 1U)
 458:Drivers/STM32F4xx_HAL_Driver/Src/stm32f4xx_ll_usb.c ****   {
 459:Drivers/STM32F4xx_HAL_Driver/Src/stm32f4xx_ll_usb.c ****     USBx->GINTMSK |= (USB_OTG_GINTMSK_SRQIM | USB_OTG_GINTMSK_OTGINT);
 460:Drivers/STM32F4xx_HAL_Driver/Src/stm32f4xx_ll_usb.c ****   }
 461:Drivers/STM32F4xx_HAL_Driver/Src/stm32f4xx_ll_usb.c **** 
 462:Drivers/STM32F4xx_HAL_Driver/Src/stm32f4xx_ll_usb.c ****   return ret;
 463:Drivers/STM32F4xx_HAL_Driver/Src/stm32f4xx_ll_usb.c **** }
 464:Drivers/STM32F4xx_HAL_Driver/Src/stm32f4xx_ll_usb.c **** 
 465:Drivers/STM32F4xx_HAL_Driver/Src/stm32f4xx_ll_usb.c **** /**
 466:Drivers/STM32F4xx_HAL_Driver/Src/stm32f4xx_ll_usb.c ****   * @brief  USB_FlushTxFifo Flush a Tx FIFO
 467:Drivers/STM32F4xx_HAL_Driver/Src/stm32f4xx_ll_usb.c ****   * @param  USBx  Selected device
 468:Drivers/STM32F4xx_HAL_Driver/Src/stm32f4xx_ll_usb.c ****   * @param  num  FIFO number
 469:Drivers/STM32F4xx_HAL_Driver/Src/stm32f4xx_ll_usb.c ****   *         This parameter can be a value from 1 to 15
 470:Drivers/STM32F4xx_HAL_Driver/Src/stm32f4xx_ll_usb.c ****             15 means Flush all Tx FIFOs
 471:Drivers/STM32F4xx_HAL_Driver/Src/stm32f4xx_ll_usb.c ****   * @retval HAL status
 472:Drivers/STM32F4xx_HAL_Driver/Src/stm32f4xx_ll_usb.c ****   */
 473:Drivers/STM32F4xx_HAL_Driver/Src/stm32f4xx_ll_usb.c **** HAL_StatusTypeDef USB_FlushTxFifo(USB_OTG_GlobalTypeDef *USBx, uint32_t num)
 474:Drivers/STM32F4xx_HAL_Driver/Src/stm32f4xx_ll_usb.c **** {
 475:Drivers/STM32F4xx_HAL_Driver/Src/stm32f4xx_ll_usb.c ****   __IO uint32_t count = 0U;
 476:Drivers/STM32F4xx_HAL_Driver/Src/stm32f4xx_ll_usb.c **** 
 477:Drivers/STM32F4xx_HAL_Driver/Src/stm32f4xx_ll_usb.c ****   /* Wait for AHB master IDLE state. */
 478:Drivers/STM32F4xx_HAL_Driver/Src/stm32f4xx_ll_usb.c ****   do
 479:Drivers/STM32F4xx_HAL_Driver/Src/stm32f4xx_ll_usb.c ****   {
 480:Drivers/STM32F4xx_HAL_Driver/Src/stm32f4xx_ll_usb.c ****     count++;
 481:Drivers/STM32F4xx_HAL_Driver/Src/stm32f4xx_ll_usb.c **** 
 482:Drivers/STM32F4xx_HAL_Driver/Src/stm32f4xx_ll_usb.c ****     if (count > HAL_USB_TIMEOUT)
 483:Drivers/STM32F4xx_HAL_Driver/Src/stm32f4xx_ll_usb.c ****     {
 484:Drivers/STM32F4xx_HAL_Driver/Src/stm32f4xx_ll_usb.c ****       return HAL_TIMEOUT;
 485:Drivers/STM32F4xx_HAL_Driver/Src/stm32f4xx_ll_usb.c ****     }
 486:Drivers/STM32F4xx_HAL_Driver/Src/stm32f4xx_ll_usb.c ****   } while ((USBx->GRSTCTL & USB_OTG_GRSTCTL_AHBIDL) == 0U);
ARM GAS  C:\Users\marci\AppData\Local\Temp\ccNtE0Aw.s 			page 10


 487:Drivers/STM32F4xx_HAL_Driver/Src/stm32f4xx_ll_usb.c **** 
 488:Drivers/STM32F4xx_HAL_Driver/Src/stm32f4xx_ll_usb.c ****   /* Flush TX Fifo */
 489:Drivers/STM32F4xx_HAL_Driver/Src/stm32f4xx_ll_usb.c ****   count = 0U;
 490:Drivers/STM32F4xx_HAL_Driver/Src/stm32f4xx_ll_usb.c ****   USBx->GRSTCTL = (USB_OTG_GRSTCTL_TXFFLSH | (num << 6));
 491:Drivers/STM32F4xx_HAL_Driver/Src/stm32f4xx_ll_usb.c **** 
 492:Drivers/STM32F4xx_HAL_Driver/Src/stm32f4xx_ll_usb.c ****   do
 493:Drivers/STM32F4xx_HAL_Driver/Src/stm32f4xx_ll_usb.c ****   {
 494:Drivers/STM32F4xx_HAL_Driver/Src/stm32f4xx_ll_usb.c ****     count++;
 495:Drivers/STM32F4xx_HAL_Driver/Src/stm32f4xx_ll_usb.c **** 
 496:Drivers/STM32F4xx_HAL_Driver/Src/stm32f4xx_ll_usb.c ****     if (count > HAL_USB_TIMEOUT)
 497:Drivers/STM32F4xx_HAL_Driver/Src/stm32f4xx_ll_usb.c ****     {
 498:Drivers/STM32F4xx_HAL_Driver/Src/stm32f4xx_ll_usb.c ****       return HAL_TIMEOUT;
 499:Drivers/STM32F4xx_HAL_Driver/Src/stm32f4xx_ll_usb.c ****     }
 500:Drivers/STM32F4xx_HAL_Driver/Src/stm32f4xx_ll_usb.c ****   } while ((USBx->GRSTCTL & USB_OTG_GRSTCTL_TXFFLSH) == USB_OTG_GRSTCTL_TXFFLSH);
 501:Drivers/STM32F4xx_HAL_Driver/Src/stm32f4xx_ll_usb.c **** 
 502:Drivers/STM32F4xx_HAL_Driver/Src/stm32f4xx_ll_usb.c ****   return HAL_OK;
 503:Drivers/STM32F4xx_HAL_Driver/Src/stm32f4xx_ll_usb.c **** }
 504:Drivers/STM32F4xx_HAL_Driver/Src/stm32f4xx_ll_usb.c **** 
 505:Drivers/STM32F4xx_HAL_Driver/Src/stm32f4xx_ll_usb.c **** /**
 506:Drivers/STM32F4xx_HAL_Driver/Src/stm32f4xx_ll_usb.c ****   * @brief  USB_FlushRxFifo  Flush Rx FIFO
 507:Drivers/STM32F4xx_HAL_Driver/Src/stm32f4xx_ll_usb.c ****   * @param  USBx  Selected device
 508:Drivers/STM32F4xx_HAL_Driver/Src/stm32f4xx_ll_usb.c ****   * @retval HAL status
 509:Drivers/STM32F4xx_HAL_Driver/Src/stm32f4xx_ll_usb.c ****   */
 510:Drivers/STM32F4xx_HAL_Driver/Src/stm32f4xx_ll_usb.c **** HAL_StatusTypeDef USB_FlushRxFifo(USB_OTG_GlobalTypeDef *USBx)
 511:Drivers/STM32F4xx_HAL_Driver/Src/stm32f4xx_ll_usb.c **** {
 512:Drivers/STM32F4xx_HAL_Driver/Src/stm32f4xx_ll_usb.c ****   __IO uint32_t count = 0U;
 513:Drivers/STM32F4xx_HAL_Driver/Src/stm32f4xx_ll_usb.c **** 
 514:Drivers/STM32F4xx_HAL_Driver/Src/stm32f4xx_ll_usb.c ****   /* Wait for AHB master IDLE state. */
 515:Drivers/STM32F4xx_HAL_Driver/Src/stm32f4xx_ll_usb.c ****   do
 516:Drivers/STM32F4xx_HAL_Driver/Src/stm32f4xx_ll_usb.c ****   {
 517:Drivers/STM32F4xx_HAL_Driver/Src/stm32f4xx_ll_usb.c ****     count++;
 518:Drivers/STM32F4xx_HAL_Driver/Src/stm32f4xx_ll_usb.c **** 
 519:Drivers/STM32F4xx_HAL_Driver/Src/stm32f4xx_ll_usb.c ****     if (count > HAL_USB_TIMEOUT)
 520:Drivers/STM32F4xx_HAL_Driver/Src/stm32f4xx_ll_usb.c ****     {
 521:Drivers/STM32F4xx_HAL_Driver/Src/stm32f4xx_ll_usb.c ****       return HAL_TIMEOUT;
 522:Drivers/STM32F4xx_HAL_Driver/Src/stm32f4xx_ll_usb.c ****     }
 523:Drivers/STM32F4xx_HAL_Driver/Src/stm32f4xx_ll_usb.c ****   } while ((USBx->GRSTCTL & USB_OTG_GRSTCTL_AHBIDL) == 0U);
 524:Drivers/STM32F4xx_HAL_Driver/Src/stm32f4xx_ll_usb.c **** 
 525:Drivers/STM32F4xx_HAL_Driver/Src/stm32f4xx_ll_usb.c ****   /* Flush RX Fifo */
 526:Drivers/STM32F4xx_HAL_Driver/Src/stm32f4xx_ll_usb.c ****   count = 0U;
 527:Drivers/STM32F4xx_HAL_Driver/Src/stm32f4xx_ll_usb.c ****   USBx->GRSTCTL = USB_OTG_GRSTCTL_RXFFLSH;
 528:Drivers/STM32F4xx_HAL_Driver/Src/stm32f4xx_ll_usb.c **** 
 529:Drivers/STM32F4xx_HAL_Driver/Src/stm32f4xx_ll_usb.c ****   do
 530:Drivers/STM32F4xx_HAL_Driver/Src/stm32f4xx_ll_usb.c ****   {
 531:Drivers/STM32F4xx_HAL_Driver/Src/stm32f4xx_ll_usb.c ****     count++;
 532:Drivers/STM32F4xx_HAL_Driver/Src/stm32f4xx_ll_usb.c **** 
 533:Drivers/STM32F4xx_HAL_Driver/Src/stm32f4xx_ll_usb.c ****     if (count > HAL_USB_TIMEOUT)
 534:Drivers/STM32F4xx_HAL_Driver/Src/stm32f4xx_ll_usb.c ****     {
 535:Drivers/STM32F4xx_HAL_Driver/Src/stm32f4xx_ll_usb.c ****       return HAL_TIMEOUT;
 536:Drivers/STM32F4xx_HAL_Driver/Src/stm32f4xx_ll_usb.c ****     }
 537:Drivers/STM32F4xx_HAL_Driver/Src/stm32f4xx_ll_usb.c ****   } while ((USBx->GRSTCTL & USB_OTG_GRSTCTL_RXFFLSH) == USB_OTG_GRSTCTL_RXFFLSH);
 538:Drivers/STM32F4xx_HAL_Driver/Src/stm32f4xx_ll_usb.c **** 
 539:Drivers/STM32F4xx_HAL_Driver/Src/stm32f4xx_ll_usb.c ****   return HAL_OK;
 540:Drivers/STM32F4xx_HAL_Driver/Src/stm32f4xx_ll_usb.c **** }
 541:Drivers/STM32F4xx_HAL_Driver/Src/stm32f4xx_ll_usb.c **** 
 542:Drivers/STM32F4xx_HAL_Driver/Src/stm32f4xx_ll_usb.c **** /**
 543:Drivers/STM32F4xx_HAL_Driver/Src/stm32f4xx_ll_usb.c ****   * @brief  USB_SetDevSpeed  Initializes the DevSpd field of DCFG register
ARM GAS  C:\Users\marci\AppData\Local\Temp\ccNtE0Aw.s 			page 11


 544:Drivers/STM32F4xx_HAL_Driver/Src/stm32f4xx_ll_usb.c ****   *         depending the PHY type and the enumeration speed of the device.
 545:Drivers/STM32F4xx_HAL_Driver/Src/stm32f4xx_ll_usb.c ****   * @param  USBx  Selected device
 546:Drivers/STM32F4xx_HAL_Driver/Src/stm32f4xx_ll_usb.c ****   * @param  speed  device speed
 547:Drivers/STM32F4xx_HAL_Driver/Src/stm32f4xx_ll_usb.c ****   *          This parameter can be one of these values:
 548:Drivers/STM32F4xx_HAL_Driver/Src/stm32f4xx_ll_usb.c ****   *            @arg USB_OTG_SPEED_HIGH: High speed mode
 549:Drivers/STM32F4xx_HAL_Driver/Src/stm32f4xx_ll_usb.c ****   *            @arg USB_OTG_SPEED_HIGH_IN_FULL: High speed core in Full Speed mode
 550:Drivers/STM32F4xx_HAL_Driver/Src/stm32f4xx_ll_usb.c ****   *            @arg USB_OTG_SPEED_FULL: Full speed mode
 551:Drivers/STM32F4xx_HAL_Driver/Src/stm32f4xx_ll_usb.c ****   * @retval  Hal status
 552:Drivers/STM32F4xx_HAL_Driver/Src/stm32f4xx_ll_usb.c ****   */
 553:Drivers/STM32F4xx_HAL_Driver/Src/stm32f4xx_ll_usb.c **** HAL_StatusTypeDef USB_SetDevSpeed(const USB_OTG_GlobalTypeDef *USBx, uint8_t speed)
 554:Drivers/STM32F4xx_HAL_Driver/Src/stm32f4xx_ll_usb.c **** {
 555:Drivers/STM32F4xx_HAL_Driver/Src/stm32f4xx_ll_usb.c ****   uint32_t USBx_BASE = (uint32_t)USBx;
 556:Drivers/STM32F4xx_HAL_Driver/Src/stm32f4xx_ll_usb.c **** 
 557:Drivers/STM32F4xx_HAL_Driver/Src/stm32f4xx_ll_usb.c ****   USBx_DEVICE->DCFG |= speed;
 558:Drivers/STM32F4xx_HAL_Driver/Src/stm32f4xx_ll_usb.c ****   return HAL_OK;
 559:Drivers/STM32F4xx_HAL_Driver/Src/stm32f4xx_ll_usb.c **** }
 560:Drivers/STM32F4xx_HAL_Driver/Src/stm32f4xx_ll_usb.c **** 
 561:Drivers/STM32F4xx_HAL_Driver/Src/stm32f4xx_ll_usb.c **** /**
 562:Drivers/STM32F4xx_HAL_Driver/Src/stm32f4xx_ll_usb.c ****   * @brief  USB_GetDevSpeed  Return the Dev Speed
 563:Drivers/STM32F4xx_HAL_Driver/Src/stm32f4xx_ll_usb.c ****   * @param  USBx  Selected device
 564:Drivers/STM32F4xx_HAL_Driver/Src/stm32f4xx_ll_usb.c ****   * @retval speed  device speed
 565:Drivers/STM32F4xx_HAL_Driver/Src/stm32f4xx_ll_usb.c ****   *          This parameter can be one of these values:
 566:Drivers/STM32F4xx_HAL_Driver/Src/stm32f4xx_ll_usb.c ****   *            @arg USBD_HS_SPEED: High speed mode
 567:Drivers/STM32F4xx_HAL_Driver/Src/stm32f4xx_ll_usb.c ****   *            @arg USBD_FS_SPEED: Full speed mode
 568:Drivers/STM32F4xx_HAL_Driver/Src/stm32f4xx_ll_usb.c ****   */
 569:Drivers/STM32F4xx_HAL_Driver/Src/stm32f4xx_ll_usb.c **** uint8_t USB_GetDevSpeed(const USB_OTG_GlobalTypeDef *USBx)
 570:Drivers/STM32F4xx_HAL_Driver/Src/stm32f4xx_ll_usb.c **** {
 571:Drivers/STM32F4xx_HAL_Driver/Src/stm32f4xx_ll_usb.c ****   uint32_t USBx_BASE = (uint32_t)USBx;
 572:Drivers/STM32F4xx_HAL_Driver/Src/stm32f4xx_ll_usb.c ****   uint8_t speed;
 573:Drivers/STM32F4xx_HAL_Driver/Src/stm32f4xx_ll_usb.c ****   uint32_t DevEnumSpeed = USBx_DEVICE->DSTS & USB_OTG_DSTS_ENUMSPD;
 574:Drivers/STM32F4xx_HAL_Driver/Src/stm32f4xx_ll_usb.c **** 
 575:Drivers/STM32F4xx_HAL_Driver/Src/stm32f4xx_ll_usb.c ****   if (DevEnumSpeed == DSTS_ENUMSPD_HS_PHY_30MHZ_OR_60MHZ)
 576:Drivers/STM32F4xx_HAL_Driver/Src/stm32f4xx_ll_usb.c ****   {
 577:Drivers/STM32F4xx_HAL_Driver/Src/stm32f4xx_ll_usb.c ****     speed = USBD_HS_SPEED;
 578:Drivers/STM32F4xx_HAL_Driver/Src/stm32f4xx_ll_usb.c ****   }
 579:Drivers/STM32F4xx_HAL_Driver/Src/stm32f4xx_ll_usb.c ****   else if ((DevEnumSpeed == DSTS_ENUMSPD_FS_PHY_30MHZ_OR_60MHZ) ||
 580:Drivers/STM32F4xx_HAL_Driver/Src/stm32f4xx_ll_usb.c ****            (DevEnumSpeed == DSTS_ENUMSPD_FS_PHY_48MHZ))
 581:Drivers/STM32F4xx_HAL_Driver/Src/stm32f4xx_ll_usb.c ****   {
 582:Drivers/STM32F4xx_HAL_Driver/Src/stm32f4xx_ll_usb.c ****     speed = USBD_FS_SPEED;
 583:Drivers/STM32F4xx_HAL_Driver/Src/stm32f4xx_ll_usb.c ****   }
 584:Drivers/STM32F4xx_HAL_Driver/Src/stm32f4xx_ll_usb.c ****   else
 585:Drivers/STM32F4xx_HAL_Driver/Src/stm32f4xx_ll_usb.c ****   {
 586:Drivers/STM32F4xx_HAL_Driver/Src/stm32f4xx_ll_usb.c ****     speed = 0xFU;
 587:Drivers/STM32F4xx_HAL_Driver/Src/stm32f4xx_ll_usb.c ****   }
 588:Drivers/STM32F4xx_HAL_Driver/Src/stm32f4xx_ll_usb.c **** 
 589:Drivers/STM32F4xx_HAL_Driver/Src/stm32f4xx_ll_usb.c ****   return speed;
 590:Drivers/STM32F4xx_HAL_Driver/Src/stm32f4xx_ll_usb.c **** }
 591:Drivers/STM32F4xx_HAL_Driver/Src/stm32f4xx_ll_usb.c **** 
 592:Drivers/STM32F4xx_HAL_Driver/Src/stm32f4xx_ll_usb.c **** /**
 593:Drivers/STM32F4xx_HAL_Driver/Src/stm32f4xx_ll_usb.c ****   * @brief  Activate and configure an endpoint
 594:Drivers/STM32F4xx_HAL_Driver/Src/stm32f4xx_ll_usb.c ****   * @param  USBx  Selected device
 595:Drivers/STM32F4xx_HAL_Driver/Src/stm32f4xx_ll_usb.c ****   * @param  ep pointer to endpoint structure
 596:Drivers/STM32F4xx_HAL_Driver/Src/stm32f4xx_ll_usb.c ****   * @retval HAL status
 597:Drivers/STM32F4xx_HAL_Driver/Src/stm32f4xx_ll_usb.c ****   */
 598:Drivers/STM32F4xx_HAL_Driver/Src/stm32f4xx_ll_usb.c **** HAL_StatusTypeDef USB_ActivateEndpoint(const USB_OTG_GlobalTypeDef *USBx, const USB_OTG_EPTypeDef *
 599:Drivers/STM32F4xx_HAL_Driver/Src/stm32f4xx_ll_usb.c **** {
 600:Drivers/STM32F4xx_HAL_Driver/Src/stm32f4xx_ll_usb.c ****   uint32_t USBx_BASE = (uint32_t)USBx;
ARM GAS  C:\Users\marci\AppData\Local\Temp\ccNtE0Aw.s 			page 12


 601:Drivers/STM32F4xx_HAL_Driver/Src/stm32f4xx_ll_usb.c ****   uint32_t epnum = (uint32_t)ep->num;
 602:Drivers/STM32F4xx_HAL_Driver/Src/stm32f4xx_ll_usb.c **** 
 603:Drivers/STM32F4xx_HAL_Driver/Src/stm32f4xx_ll_usb.c ****   if (ep->is_in == 1U)
 604:Drivers/STM32F4xx_HAL_Driver/Src/stm32f4xx_ll_usb.c ****   {
 605:Drivers/STM32F4xx_HAL_Driver/Src/stm32f4xx_ll_usb.c ****     USBx_DEVICE->DAINTMSK |= USB_OTG_DAINTMSK_IEPM & (uint32_t)(1UL << (ep->num & EP_ADDR_MSK));
 606:Drivers/STM32F4xx_HAL_Driver/Src/stm32f4xx_ll_usb.c **** 
 607:Drivers/STM32F4xx_HAL_Driver/Src/stm32f4xx_ll_usb.c ****     if ((USBx_INEP(epnum)->DIEPCTL & USB_OTG_DIEPCTL_USBAEP) == 0U)
 608:Drivers/STM32F4xx_HAL_Driver/Src/stm32f4xx_ll_usb.c ****     {
 609:Drivers/STM32F4xx_HAL_Driver/Src/stm32f4xx_ll_usb.c ****       USBx_INEP(epnum)->DIEPCTL |= (ep->maxpacket & USB_OTG_DIEPCTL_MPSIZ) |
 610:Drivers/STM32F4xx_HAL_Driver/Src/stm32f4xx_ll_usb.c ****                                    ((uint32_t)ep->type << 18) | (epnum << 22) |
 611:Drivers/STM32F4xx_HAL_Driver/Src/stm32f4xx_ll_usb.c ****                                    USB_OTG_DIEPCTL_SD0PID_SEVNFRM |
 612:Drivers/STM32F4xx_HAL_Driver/Src/stm32f4xx_ll_usb.c ****                                    USB_OTG_DIEPCTL_USBAEP;
 613:Drivers/STM32F4xx_HAL_Driver/Src/stm32f4xx_ll_usb.c ****     }
 614:Drivers/STM32F4xx_HAL_Driver/Src/stm32f4xx_ll_usb.c ****   }
 615:Drivers/STM32F4xx_HAL_Driver/Src/stm32f4xx_ll_usb.c ****   else
 616:Drivers/STM32F4xx_HAL_Driver/Src/stm32f4xx_ll_usb.c ****   {
 617:Drivers/STM32F4xx_HAL_Driver/Src/stm32f4xx_ll_usb.c ****     USBx_DEVICE->DAINTMSK |= USB_OTG_DAINTMSK_OEPM & ((uint32_t)(1UL << (ep->num & EP_ADDR_MSK)) <<
 618:Drivers/STM32F4xx_HAL_Driver/Src/stm32f4xx_ll_usb.c **** 
 619:Drivers/STM32F4xx_HAL_Driver/Src/stm32f4xx_ll_usb.c ****     if (((USBx_OUTEP(epnum)->DOEPCTL) & USB_OTG_DOEPCTL_USBAEP) == 0U)
 620:Drivers/STM32F4xx_HAL_Driver/Src/stm32f4xx_ll_usb.c ****     {
 621:Drivers/STM32F4xx_HAL_Driver/Src/stm32f4xx_ll_usb.c ****       USBx_OUTEP(epnum)->DOEPCTL |= (ep->maxpacket & USB_OTG_DOEPCTL_MPSIZ) |
 622:Drivers/STM32F4xx_HAL_Driver/Src/stm32f4xx_ll_usb.c ****                                     ((uint32_t)ep->type << 18) |
 623:Drivers/STM32F4xx_HAL_Driver/Src/stm32f4xx_ll_usb.c ****                                     USB_OTG_DIEPCTL_SD0PID_SEVNFRM |
 624:Drivers/STM32F4xx_HAL_Driver/Src/stm32f4xx_ll_usb.c ****                                     USB_OTG_DOEPCTL_USBAEP;
 625:Drivers/STM32F4xx_HAL_Driver/Src/stm32f4xx_ll_usb.c ****     }
 626:Drivers/STM32F4xx_HAL_Driver/Src/stm32f4xx_ll_usb.c ****   }
 627:Drivers/STM32F4xx_HAL_Driver/Src/stm32f4xx_ll_usb.c ****   return HAL_OK;
 628:Drivers/STM32F4xx_HAL_Driver/Src/stm32f4xx_ll_usb.c **** }
 629:Drivers/STM32F4xx_HAL_Driver/Src/stm32f4xx_ll_usb.c **** 
 630:Drivers/STM32F4xx_HAL_Driver/Src/stm32f4xx_ll_usb.c **** /**
 631:Drivers/STM32F4xx_HAL_Driver/Src/stm32f4xx_ll_usb.c ****   * @brief  Activate and configure a dedicated endpoint
 632:Drivers/STM32F4xx_HAL_Driver/Src/stm32f4xx_ll_usb.c ****   * @param  USBx  Selected device
 633:Drivers/STM32F4xx_HAL_Driver/Src/stm32f4xx_ll_usb.c ****   * @param  ep pointer to endpoint structure
 634:Drivers/STM32F4xx_HAL_Driver/Src/stm32f4xx_ll_usb.c ****   * @retval HAL status
 635:Drivers/STM32F4xx_HAL_Driver/Src/stm32f4xx_ll_usb.c ****   */
 636:Drivers/STM32F4xx_HAL_Driver/Src/stm32f4xx_ll_usb.c **** HAL_StatusTypeDef USB_ActivateDedicatedEndpoint(const USB_OTG_GlobalTypeDef *USBx, const USB_OTG_EP
 637:Drivers/STM32F4xx_HAL_Driver/Src/stm32f4xx_ll_usb.c **** {
 638:Drivers/STM32F4xx_HAL_Driver/Src/stm32f4xx_ll_usb.c ****   uint32_t USBx_BASE = (uint32_t)USBx;
 639:Drivers/STM32F4xx_HAL_Driver/Src/stm32f4xx_ll_usb.c ****   uint32_t epnum = (uint32_t)ep->num;
 640:Drivers/STM32F4xx_HAL_Driver/Src/stm32f4xx_ll_usb.c **** 
 641:Drivers/STM32F4xx_HAL_Driver/Src/stm32f4xx_ll_usb.c ****   /* Read DEPCTLn register */
 642:Drivers/STM32F4xx_HAL_Driver/Src/stm32f4xx_ll_usb.c ****   if (ep->is_in == 1U)
 643:Drivers/STM32F4xx_HAL_Driver/Src/stm32f4xx_ll_usb.c ****   {
 644:Drivers/STM32F4xx_HAL_Driver/Src/stm32f4xx_ll_usb.c ****     if (((USBx_INEP(epnum)->DIEPCTL) & USB_OTG_DIEPCTL_USBAEP) == 0U)
 645:Drivers/STM32F4xx_HAL_Driver/Src/stm32f4xx_ll_usb.c ****     {
 646:Drivers/STM32F4xx_HAL_Driver/Src/stm32f4xx_ll_usb.c ****       USBx_INEP(epnum)->DIEPCTL |= (ep->maxpacket & USB_OTG_DIEPCTL_MPSIZ) |
 647:Drivers/STM32F4xx_HAL_Driver/Src/stm32f4xx_ll_usb.c ****                                    ((uint32_t)ep->type << 18) | (epnum << 22) |
 648:Drivers/STM32F4xx_HAL_Driver/Src/stm32f4xx_ll_usb.c ****                                    USB_OTG_DIEPCTL_SD0PID_SEVNFRM |
 649:Drivers/STM32F4xx_HAL_Driver/Src/stm32f4xx_ll_usb.c ****                                    USB_OTG_DIEPCTL_USBAEP;
 650:Drivers/STM32F4xx_HAL_Driver/Src/stm32f4xx_ll_usb.c ****     }
 651:Drivers/STM32F4xx_HAL_Driver/Src/stm32f4xx_ll_usb.c **** 
 652:Drivers/STM32F4xx_HAL_Driver/Src/stm32f4xx_ll_usb.c ****     USBx_DEVICE->DEACHMSK |= USB_OTG_DAINTMSK_IEPM & (uint32_t)(1UL << (ep->num & EP_ADDR_MSK));
 653:Drivers/STM32F4xx_HAL_Driver/Src/stm32f4xx_ll_usb.c ****   }
 654:Drivers/STM32F4xx_HAL_Driver/Src/stm32f4xx_ll_usb.c ****   else
 655:Drivers/STM32F4xx_HAL_Driver/Src/stm32f4xx_ll_usb.c ****   {
 656:Drivers/STM32F4xx_HAL_Driver/Src/stm32f4xx_ll_usb.c ****     if (((USBx_OUTEP(epnum)->DOEPCTL) & USB_OTG_DOEPCTL_USBAEP) == 0U)
 657:Drivers/STM32F4xx_HAL_Driver/Src/stm32f4xx_ll_usb.c ****     {
ARM GAS  C:\Users\marci\AppData\Local\Temp\ccNtE0Aw.s 			page 13


 658:Drivers/STM32F4xx_HAL_Driver/Src/stm32f4xx_ll_usb.c ****       USBx_OUTEP(epnum)->DOEPCTL |= (ep->maxpacket & USB_OTG_DOEPCTL_MPSIZ) |
 659:Drivers/STM32F4xx_HAL_Driver/Src/stm32f4xx_ll_usb.c ****                                     ((uint32_t)ep->type << 18) | (epnum << 22) |
 660:Drivers/STM32F4xx_HAL_Driver/Src/stm32f4xx_ll_usb.c ****                                     USB_OTG_DOEPCTL_USBAEP;
 661:Drivers/STM32F4xx_HAL_Driver/Src/stm32f4xx_ll_usb.c ****     }
 662:Drivers/STM32F4xx_HAL_Driver/Src/stm32f4xx_ll_usb.c **** 
 663:Drivers/STM32F4xx_HAL_Driver/Src/stm32f4xx_ll_usb.c ****     USBx_DEVICE->DEACHMSK |= USB_OTG_DAINTMSK_OEPM & ((uint32_t)(1UL << (ep->num & EP_ADDR_MSK)) <<
 664:Drivers/STM32F4xx_HAL_Driver/Src/stm32f4xx_ll_usb.c ****   }
 665:Drivers/STM32F4xx_HAL_Driver/Src/stm32f4xx_ll_usb.c **** 
 666:Drivers/STM32F4xx_HAL_Driver/Src/stm32f4xx_ll_usb.c ****   return HAL_OK;
 667:Drivers/STM32F4xx_HAL_Driver/Src/stm32f4xx_ll_usb.c **** }
 668:Drivers/STM32F4xx_HAL_Driver/Src/stm32f4xx_ll_usb.c **** 
 669:Drivers/STM32F4xx_HAL_Driver/Src/stm32f4xx_ll_usb.c **** /**
 670:Drivers/STM32F4xx_HAL_Driver/Src/stm32f4xx_ll_usb.c ****   * @brief  De-activate and de-initialize an endpoint
 671:Drivers/STM32F4xx_HAL_Driver/Src/stm32f4xx_ll_usb.c ****   * @param  USBx  Selected device
 672:Drivers/STM32F4xx_HAL_Driver/Src/stm32f4xx_ll_usb.c ****   * @param  ep pointer to endpoint structure
 673:Drivers/STM32F4xx_HAL_Driver/Src/stm32f4xx_ll_usb.c ****   * @retval HAL status
 674:Drivers/STM32F4xx_HAL_Driver/Src/stm32f4xx_ll_usb.c ****   */
 675:Drivers/STM32F4xx_HAL_Driver/Src/stm32f4xx_ll_usb.c **** HAL_StatusTypeDef USB_DeactivateEndpoint(const USB_OTG_GlobalTypeDef *USBx, const USB_OTG_EPTypeDef
 676:Drivers/STM32F4xx_HAL_Driver/Src/stm32f4xx_ll_usb.c **** {
 677:Drivers/STM32F4xx_HAL_Driver/Src/stm32f4xx_ll_usb.c ****   uint32_t USBx_BASE = (uint32_t)USBx;
 678:Drivers/STM32F4xx_HAL_Driver/Src/stm32f4xx_ll_usb.c ****   uint32_t epnum = (uint32_t)ep->num;
 679:Drivers/STM32F4xx_HAL_Driver/Src/stm32f4xx_ll_usb.c **** 
 680:Drivers/STM32F4xx_HAL_Driver/Src/stm32f4xx_ll_usb.c ****   /* Read DEPCTLn register */
 681:Drivers/STM32F4xx_HAL_Driver/Src/stm32f4xx_ll_usb.c ****   if (ep->is_in == 1U)
 682:Drivers/STM32F4xx_HAL_Driver/Src/stm32f4xx_ll_usb.c ****   {
 683:Drivers/STM32F4xx_HAL_Driver/Src/stm32f4xx_ll_usb.c ****     if ((USBx_INEP(epnum)->DIEPCTL & USB_OTG_DIEPCTL_EPENA) == USB_OTG_DIEPCTL_EPENA)
 684:Drivers/STM32F4xx_HAL_Driver/Src/stm32f4xx_ll_usb.c ****     {
 685:Drivers/STM32F4xx_HAL_Driver/Src/stm32f4xx_ll_usb.c ****       USBx_INEP(epnum)->DIEPCTL |= USB_OTG_DIEPCTL_SNAK;
 686:Drivers/STM32F4xx_HAL_Driver/Src/stm32f4xx_ll_usb.c ****       USBx_INEP(epnum)->DIEPCTL |= USB_OTG_DIEPCTL_EPDIS;
 687:Drivers/STM32F4xx_HAL_Driver/Src/stm32f4xx_ll_usb.c ****     }
 688:Drivers/STM32F4xx_HAL_Driver/Src/stm32f4xx_ll_usb.c **** 
 689:Drivers/STM32F4xx_HAL_Driver/Src/stm32f4xx_ll_usb.c ****     USBx_DEVICE->DEACHMSK &= ~(USB_OTG_DAINTMSK_IEPM & (uint32_t)(1UL << (ep->num & EP_ADDR_MSK)));
 690:Drivers/STM32F4xx_HAL_Driver/Src/stm32f4xx_ll_usb.c ****     USBx_DEVICE->DAINTMSK &= ~(USB_OTG_DAINTMSK_IEPM & (uint32_t)(1UL << (ep->num & EP_ADDR_MSK)));
 691:Drivers/STM32F4xx_HAL_Driver/Src/stm32f4xx_ll_usb.c ****     USBx_INEP(epnum)->DIEPCTL &= ~(USB_OTG_DIEPCTL_USBAEP |
 692:Drivers/STM32F4xx_HAL_Driver/Src/stm32f4xx_ll_usb.c ****                                    USB_OTG_DIEPCTL_MPSIZ |
 693:Drivers/STM32F4xx_HAL_Driver/Src/stm32f4xx_ll_usb.c ****                                    USB_OTG_DIEPCTL_TXFNUM |
 694:Drivers/STM32F4xx_HAL_Driver/Src/stm32f4xx_ll_usb.c ****                                    USB_OTG_DIEPCTL_SD0PID_SEVNFRM |
 695:Drivers/STM32F4xx_HAL_Driver/Src/stm32f4xx_ll_usb.c ****                                    USB_OTG_DIEPCTL_EPTYP);
 696:Drivers/STM32F4xx_HAL_Driver/Src/stm32f4xx_ll_usb.c ****   }
 697:Drivers/STM32F4xx_HAL_Driver/Src/stm32f4xx_ll_usb.c ****   else
 698:Drivers/STM32F4xx_HAL_Driver/Src/stm32f4xx_ll_usb.c ****   {
 699:Drivers/STM32F4xx_HAL_Driver/Src/stm32f4xx_ll_usb.c ****     if ((USBx_OUTEP(epnum)->DOEPCTL & USB_OTG_DOEPCTL_EPENA) == USB_OTG_DOEPCTL_EPENA)
 700:Drivers/STM32F4xx_HAL_Driver/Src/stm32f4xx_ll_usb.c ****     {
 701:Drivers/STM32F4xx_HAL_Driver/Src/stm32f4xx_ll_usb.c ****       USBx_OUTEP(epnum)->DOEPCTL |= USB_OTG_DOEPCTL_SNAK;
 702:Drivers/STM32F4xx_HAL_Driver/Src/stm32f4xx_ll_usb.c ****       USBx_OUTEP(epnum)->DOEPCTL |= USB_OTG_DOEPCTL_EPDIS;
 703:Drivers/STM32F4xx_HAL_Driver/Src/stm32f4xx_ll_usb.c ****     }
 704:Drivers/STM32F4xx_HAL_Driver/Src/stm32f4xx_ll_usb.c **** 
 705:Drivers/STM32F4xx_HAL_Driver/Src/stm32f4xx_ll_usb.c ****     USBx_DEVICE->DEACHMSK &= ~(USB_OTG_DAINTMSK_OEPM & ((uint32_t)(1UL << (ep->num & EP_ADDR_MSK)) 
 706:Drivers/STM32F4xx_HAL_Driver/Src/stm32f4xx_ll_usb.c ****     USBx_DEVICE->DAINTMSK &= ~(USB_OTG_DAINTMSK_OEPM & ((uint32_t)(1UL << (ep->num & EP_ADDR_MSK)) 
 707:Drivers/STM32F4xx_HAL_Driver/Src/stm32f4xx_ll_usb.c ****     USBx_OUTEP(epnum)->DOEPCTL &= ~(USB_OTG_DOEPCTL_USBAEP |
 708:Drivers/STM32F4xx_HAL_Driver/Src/stm32f4xx_ll_usb.c ****                                     USB_OTG_DOEPCTL_MPSIZ |
 709:Drivers/STM32F4xx_HAL_Driver/Src/stm32f4xx_ll_usb.c ****                                     USB_OTG_DOEPCTL_SD0PID_SEVNFRM |
 710:Drivers/STM32F4xx_HAL_Driver/Src/stm32f4xx_ll_usb.c ****                                     USB_OTG_DOEPCTL_EPTYP);
 711:Drivers/STM32F4xx_HAL_Driver/Src/stm32f4xx_ll_usb.c ****   }
 712:Drivers/STM32F4xx_HAL_Driver/Src/stm32f4xx_ll_usb.c **** 
 713:Drivers/STM32F4xx_HAL_Driver/Src/stm32f4xx_ll_usb.c ****   return HAL_OK;
 714:Drivers/STM32F4xx_HAL_Driver/Src/stm32f4xx_ll_usb.c **** }
ARM GAS  C:\Users\marci\AppData\Local\Temp\ccNtE0Aw.s 			page 14


 715:Drivers/STM32F4xx_HAL_Driver/Src/stm32f4xx_ll_usb.c **** 
 716:Drivers/STM32F4xx_HAL_Driver/Src/stm32f4xx_ll_usb.c **** /**
 717:Drivers/STM32F4xx_HAL_Driver/Src/stm32f4xx_ll_usb.c ****   * @brief  De-activate and de-initialize a dedicated endpoint
 718:Drivers/STM32F4xx_HAL_Driver/Src/stm32f4xx_ll_usb.c ****   * @param  USBx  Selected device
 719:Drivers/STM32F4xx_HAL_Driver/Src/stm32f4xx_ll_usb.c ****   * @param  ep pointer to endpoint structure
 720:Drivers/STM32F4xx_HAL_Driver/Src/stm32f4xx_ll_usb.c ****   * @retval HAL status
 721:Drivers/STM32F4xx_HAL_Driver/Src/stm32f4xx_ll_usb.c ****   */
 722:Drivers/STM32F4xx_HAL_Driver/Src/stm32f4xx_ll_usb.c **** HAL_StatusTypeDef USB_DeactivateDedicatedEndpoint(const USB_OTG_GlobalTypeDef *USBx, const USB_OTG_
 723:Drivers/STM32F4xx_HAL_Driver/Src/stm32f4xx_ll_usb.c **** {
 724:Drivers/STM32F4xx_HAL_Driver/Src/stm32f4xx_ll_usb.c ****   uint32_t USBx_BASE = (uint32_t)USBx;
 725:Drivers/STM32F4xx_HAL_Driver/Src/stm32f4xx_ll_usb.c ****   uint32_t epnum = (uint32_t)ep->num;
 726:Drivers/STM32F4xx_HAL_Driver/Src/stm32f4xx_ll_usb.c **** 
 727:Drivers/STM32F4xx_HAL_Driver/Src/stm32f4xx_ll_usb.c ****   /* Read DEPCTLn register */
 728:Drivers/STM32F4xx_HAL_Driver/Src/stm32f4xx_ll_usb.c ****   if (ep->is_in == 1U)
 729:Drivers/STM32F4xx_HAL_Driver/Src/stm32f4xx_ll_usb.c ****   {
 730:Drivers/STM32F4xx_HAL_Driver/Src/stm32f4xx_ll_usb.c ****     if ((USBx_INEP(epnum)->DIEPCTL & USB_OTG_DIEPCTL_EPENA) == USB_OTG_DIEPCTL_EPENA)
 731:Drivers/STM32F4xx_HAL_Driver/Src/stm32f4xx_ll_usb.c ****     {
 732:Drivers/STM32F4xx_HAL_Driver/Src/stm32f4xx_ll_usb.c ****       USBx_INEP(epnum)->DIEPCTL  |= USB_OTG_DIEPCTL_SNAK;
 733:Drivers/STM32F4xx_HAL_Driver/Src/stm32f4xx_ll_usb.c ****       USBx_INEP(epnum)->DIEPCTL  |= USB_OTG_DIEPCTL_EPDIS;
 734:Drivers/STM32F4xx_HAL_Driver/Src/stm32f4xx_ll_usb.c ****     }
 735:Drivers/STM32F4xx_HAL_Driver/Src/stm32f4xx_ll_usb.c **** 
 736:Drivers/STM32F4xx_HAL_Driver/Src/stm32f4xx_ll_usb.c ****     USBx_INEP(epnum)->DIEPCTL &= ~ USB_OTG_DIEPCTL_USBAEP;
 737:Drivers/STM32F4xx_HAL_Driver/Src/stm32f4xx_ll_usb.c ****     USBx_DEVICE->DAINTMSK &= ~(USB_OTG_DAINTMSK_IEPM & (uint32_t)(1UL << (ep->num & EP_ADDR_MSK)));
 738:Drivers/STM32F4xx_HAL_Driver/Src/stm32f4xx_ll_usb.c ****   }
 739:Drivers/STM32F4xx_HAL_Driver/Src/stm32f4xx_ll_usb.c ****   else
 740:Drivers/STM32F4xx_HAL_Driver/Src/stm32f4xx_ll_usb.c ****   {
 741:Drivers/STM32F4xx_HAL_Driver/Src/stm32f4xx_ll_usb.c ****     if ((USBx_OUTEP(epnum)->DOEPCTL & USB_OTG_DOEPCTL_EPENA) == USB_OTG_DOEPCTL_EPENA)
 742:Drivers/STM32F4xx_HAL_Driver/Src/stm32f4xx_ll_usb.c ****     {
 743:Drivers/STM32F4xx_HAL_Driver/Src/stm32f4xx_ll_usb.c ****       USBx_OUTEP(epnum)->DOEPCTL  |= USB_OTG_DOEPCTL_SNAK;
 744:Drivers/STM32F4xx_HAL_Driver/Src/stm32f4xx_ll_usb.c ****       USBx_OUTEP(epnum)->DOEPCTL  |= USB_OTG_DOEPCTL_EPDIS;
 745:Drivers/STM32F4xx_HAL_Driver/Src/stm32f4xx_ll_usb.c ****     }
 746:Drivers/STM32F4xx_HAL_Driver/Src/stm32f4xx_ll_usb.c **** 
 747:Drivers/STM32F4xx_HAL_Driver/Src/stm32f4xx_ll_usb.c ****     USBx_OUTEP(epnum)->DOEPCTL &= ~USB_OTG_DOEPCTL_USBAEP;
 748:Drivers/STM32F4xx_HAL_Driver/Src/stm32f4xx_ll_usb.c ****     USBx_DEVICE->DAINTMSK &= ~(USB_OTG_DAINTMSK_OEPM & ((uint32_t)(1UL << (ep->num & EP_ADDR_MSK)) 
 749:Drivers/STM32F4xx_HAL_Driver/Src/stm32f4xx_ll_usb.c ****   }
 750:Drivers/STM32F4xx_HAL_Driver/Src/stm32f4xx_ll_usb.c **** 
 751:Drivers/STM32F4xx_HAL_Driver/Src/stm32f4xx_ll_usb.c ****   return HAL_OK;
 752:Drivers/STM32F4xx_HAL_Driver/Src/stm32f4xx_ll_usb.c **** }
 753:Drivers/STM32F4xx_HAL_Driver/Src/stm32f4xx_ll_usb.c **** 
 754:Drivers/STM32F4xx_HAL_Driver/Src/stm32f4xx_ll_usb.c **** /**
 755:Drivers/STM32F4xx_HAL_Driver/Src/stm32f4xx_ll_usb.c ****   * @brief  USB_EPStartXfer : setup and starts a transfer over an EP
 756:Drivers/STM32F4xx_HAL_Driver/Src/stm32f4xx_ll_usb.c ****   * @param  USBx  Selected device
 757:Drivers/STM32F4xx_HAL_Driver/Src/stm32f4xx_ll_usb.c ****   * @param  ep pointer to endpoint structure
 758:Drivers/STM32F4xx_HAL_Driver/Src/stm32f4xx_ll_usb.c ****   * @param  dma USB dma enabled or disabled
 759:Drivers/STM32F4xx_HAL_Driver/Src/stm32f4xx_ll_usb.c ****   *          This parameter can be one of these values:
 760:Drivers/STM32F4xx_HAL_Driver/Src/stm32f4xx_ll_usb.c ****   *           0 : DMA feature not used
 761:Drivers/STM32F4xx_HAL_Driver/Src/stm32f4xx_ll_usb.c ****   *           1 : DMA feature used
 762:Drivers/STM32F4xx_HAL_Driver/Src/stm32f4xx_ll_usb.c ****   * @retval HAL status
 763:Drivers/STM32F4xx_HAL_Driver/Src/stm32f4xx_ll_usb.c ****   */
 764:Drivers/STM32F4xx_HAL_Driver/Src/stm32f4xx_ll_usb.c **** HAL_StatusTypeDef USB_EPStartXfer(USB_OTG_GlobalTypeDef *USBx, USB_OTG_EPTypeDef *ep, uint8_t dma)
 765:Drivers/STM32F4xx_HAL_Driver/Src/stm32f4xx_ll_usb.c **** {
 766:Drivers/STM32F4xx_HAL_Driver/Src/stm32f4xx_ll_usb.c ****   uint32_t USBx_BASE = (uint32_t)USBx;
 767:Drivers/STM32F4xx_HAL_Driver/Src/stm32f4xx_ll_usb.c ****   uint32_t epnum = (uint32_t)ep->num;
 768:Drivers/STM32F4xx_HAL_Driver/Src/stm32f4xx_ll_usb.c ****   uint16_t pktcnt;
 769:Drivers/STM32F4xx_HAL_Driver/Src/stm32f4xx_ll_usb.c **** 
 770:Drivers/STM32F4xx_HAL_Driver/Src/stm32f4xx_ll_usb.c ****   /* IN endpoint */
 771:Drivers/STM32F4xx_HAL_Driver/Src/stm32f4xx_ll_usb.c ****   if (ep->is_in == 1U)
ARM GAS  C:\Users\marci\AppData\Local\Temp\ccNtE0Aw.s 			page 15


 772:Drivers/STM32F4xx_HAL_Driver/Src/stm32f4xx_ll_usb.c ****   {
 773:Drivers/STM32F4xx_HAL_Driver/Src/stm32f4xx_ll_usb.c ****     /* Zero Length Packet? */
 774:Drivers/STM32F4xx_HAL_Driver/Src/stm32f4xx_ll_usb.c ****     if (ep->xfer_len == 0U)
 775:Drivers/STM32F4xx_HAL_Driver/Src/stm32f4xx_ll_usb.c ****     {
 776:Drivers/STM32F4xx_HAL_Driver/Src/stm32f4xx_ll_usb.c ****       USBx_INEP(epnum)->DIEPTSIZ &= ~(USB_OTG_DIEPTSIZ_PKTCNT);
 777:Drivers/STM32F4xx_HAL_Driver/Src/stm32f4xx_ll_usb.c ****       USBx_INEP(epnum)->DIEPTSIZ |= (USB_OTG_DIEPTSIZ_PKTCNT & (1U << 19));
 778:Drivers/STM32F4xx_HAL_Driver/Src/stm32f4xx_ll_usb.c ****       USBx_INEP(epnum)->DIEPTSIZ &= ~(USB_OTG_DIEPTSIZ_XFRSIZ);
 779:Drivers/STM32F4xx_HAL_Driver/Src/stm32f4xx_ll_usb.c ****     }
 780:Drivers/STM32F4xx_HAL_Driver/Src/stm32f4xx_ll_usb.c ****     else
 781:Drivers/STM32F4xx_HAL_Driver/Src/stm32f4xx_ll_usb.c ****     {
 782:Drivers/STM32F4xx_HAL_Driver/Src/stm32f4xx_ll_usb.c ****       /* Program the transfer size and packet count
 783:Drivers/STM32F4xx_HAL_Driver/Src/stm32f4xx_ll_usb.c ****       * as follows: xfersize = N * maxpacket +
 784:Drivers/STM32F4xx_HAL_Driver/Src/stm32f4xx_ll_usb.c ****       * short_packet pktcnt = N + (short_packet
 785:Drivers/STM32F4xx_HAL_Driver/Src/stm32f4xx_ll_usb.c ****       * exist ? 1 : 0)
 786:Drivers/STM32F4xx_HAL_Driver/Src/stm32f4xx_ll_usb.c ****       */
 787:Drivers/STM32F4xx_HAL_Driver/Src/stm32f4xx_ll_usb.c ****       USBx_INEP(epnum)->DIEPTSIZ &= ~(USB_OTG_DIEPTSIZ_XFRSIZ);
 788:Drivers/STM32F4xx_HAL_Driver/Src/stm32f4xx_ll_usb.c ****       USBx_INEP(epnum)->DIEPTSIZ &= ~(USB_OTG_DIEPTSIZ_PKTCNT);
 789:Drivers/STM32F4xx_HAL_Driver/Src/stm32f4xx_ll_usb.c **** 
 790:Drivers/STM32F4xx_HAL_Driver/Src/stm32f4xx_ll_usb.c ****       if (epnum == 0U)
 791:Drivers/STM32F4xx_HAL_Driver/Src/stm32f4xx_ll_usb.c ****       {
 792:Drivers/STM32F4xx_HAL_Driver/Src/stm32f4xx_ll_usb.c ****         if (ep->xfer_len > ep->maxpacket)
 793:Drivers/STM32F4xx_HAL_Driver/Src/stm32f4xx_ll_usb.c ****         {
 794:Drivers/STM32F4xx_HAL_Driver/Src/stm32f4xx_ll_usb.c ****           ep->xfer_len = ep->maxpacket;
 795:Drivers/STM32F4xx_HAL_Driver/Src/stm32f4xx_ll_usb.c ****         }
 796:Drivers/STM32F4xx_HAL_Driver/Src/stm32f4xx_ll_usb.c **** 
 797:Drivers/STM32F4xx_HAL_Driver/Src/stm32f4xx_ll_usb.c ****         USBx_INEP(epnum)->DIEPTSIZ |= (USB_OTG_DIEPTSIZ_PKTCNT & (1U << 19));
 798:Drivers/STM32F4xx_HAL_Driver/Src/stm32f4xx_ll_usb.c ****       }
 799:Drivers/STM32F4xx_HAL_Driver/Src/stm32f4xx_ll_usb.c ****       else
 800:Drivers/STM32F4xx_HAL_Driver/Src/stm32f4xx_ll_usb.c ****       {
 801:Drivers/STM32F4xx_HAL_Driver/Src/stm32f4xx_ll_usb.c ****         USBx_INEP(epnum)->DIEPTSIZ |= (USB_OTG_DIEPTSIZ_PKTCNT &
 802:Drivers/STM32F4xx_HAL_Driver/Src/stm32f4xx_ll_usb.c ****                                        (((ep->xfer_len + ep->maxpacket - 1U) / ep->maxpacket) << 19
 803:Drivers/STM32F4xx_HAL_Driver/Src/stm32f4xx_ll_usb.c ****       }
 804:Drivers/STM32F4xx_HAL_Driver/Src/stm32f4xx_ll_usb.c **** 
 805:Drivers/STM32F4xx_HAL_Driver/Src/stm32f4xx_ll_usb.c ****       USBx_INEP(epnum)->DIEPTSIZ |= (USB_OTG_DIEPTSIZ_XFRSIZ & ep->xfer_len);
 806:Drivers/STM32F4xx_HAL_Driver/Src/stm32f4xx_ll_usb.c **** 
 807:Drivers/STM32F4xx_HAL_Driver/Src/stm32f4xx_ll_usb.c ****       if (ep->type == EP_TYPE_ISOC)
 808:Drivers/STM32F4xx_HAL_Driver/Src/stm32f4xx_ll_usb.c ****       {
 809:Drivers/STM32F4xx_HAL_Driver/Src/stm32f4xx_ll_usb.c ****         USBx_INEP(epnum)->DIEPTSIZ &= ~(USB_OTG_DIEPTSIZ_MULCNT);
 810:Drivers/STM32F4xx_HAL_Driver/Src/stm32f4xx_ll_usb.c ****         USBx_INEP(epnum)->DIEPTSIZ |= (USB_OTG_DIEPTSIZ_MULCNT & (1U << 29));
 811:Drivers/STM32F4xx_HAL_Driver/Src/stm32f4xx_ll_usb.c ****       }
 812:Drivers/STM32F4xx_HAL_Driver/Src/stm32f4xx_ll_usb.c ****     }
 813:Drivers/STM32F4xx_HAL_Driver/Src/stm32f4xx_ll_usb.c **** 
 814:Drivers/STM32F4xx_HAL_Driver/Src/stm32f4xx_ll_usb.c ****     if (dma == 1U)
 815:Drivers/STM32F4xx_HAL_Driver/Src/stm32f4xx_ll_usb.c ****     {
 816:Drivers/STM32F4xx_HAL_Driver/Src/stm32f4xx_ll_usb.c ****       if ((uint32_t)ep->dma_addr != 0U)
 817:Drivers/STM32F4xx_HAL_Driver/Src/stm32f4xx_ll_usb.c ****       {
 818:Drivers/STM32F4xx_HAL_Driver/Src/stm32f4xx_ll_usb.c ****         USBx_INEP(epnum)->DIEPDMA = (uint32_t)(ep->dma_addr);
 819:Drivers/STM32F4xx_HAL_Driver/Src/stm32f4xx_ll_usb.c ****       }
 820:Drivers/STM32F4xx_HAL_Driver/Src/stm32f4xx_ll_usb.c **** 
 821:Drivers/STM32F4xx_HAL_Driver/Src/stm32f4xx_ll_usb.c ****       if (ep->type == EP_TYPE_ISOC)
 822:Drivers/STM32F4xx_HAL_Driver/Src/stm32f4xx_ll_usb.c ****       {
 823:Drivers/STM32F4xx_HAL_Driver/Src/stm32f4xx_ll_usb.c ****         if ((USBx_DEVICE->DSTS & (1U << 8)) == 0U)
 824:Drivers/STM32F4xx_HAL_Driver/Src/stm32f4xx_ll_usb.c ****         {
 825:Drivers/STM32F4xx_HAL_Driver/Src/stm32f4xx_ll_usb.c ****           USBx_INEP(epnum)->DIEPCTL |= USB_OTG_DIEPCTL_SODDFRM;
 826:Drivers/STM32F4xx_HAL_Driver/Src/stm32f4xx_ll_usb.c ****         }
 827:Drivers/STM32F4xx_HAL_Driver/Src/stm32f4xx_ll_usb.c ****         else
 828:Drivers/STM32F4xx_HAL_Driver/Src/stm32f4xx_ll_usb.c ****         {
ARM GAS  C:\Users\marci\AppData\Local\Temp\ccNtE0Aw.s 			page 16


 829:Drivers/STM32F4xx_HAL_Driver/Src/stm32f4xx_ll_usb.c ****           USBx_INEP(epnum)->DIEPCTL |= USB_OTG_DIEPCTL_SD0PID_SEVNFRM;
 830:Drivers/STM32F4xx_HAL_Driver/Src/stm32f4xx_ll_usb.c ****         }
 831:Drivers/STM32F4xx_HAL_Driver/Src/stm32f4xx_ll_usb.c ****       }
 832:Drivers/STM32F4xx_HAL_Driver/Src/stm32f4xx_ll_usb.c **** 
 833:Drivers/STM32F4xx_HAL_Driver/Src/stm32f4xx_ll_usb.c ****       /* EP enable, IN data in FIFO */
 834:Drivers/STM32F4xx_HAL_Driver/Src/stm32f4xx_ll_usb.c ****       USBx_INEP(epnum)->DIEPCTL |= (USB_OTG_DIEPCTL_CNAK | USB_OTG_DIEPCTL_EPENA);
 835:Drivers/STM32F4xx_HAL_Driver/Src/stm32f4xx_ll_usb.c ****     }
 836:Drivers/STM32F4xx_HAL_Driver/Src/stm32f4xx_ll_usb.c ****     else
 837:Drivers/STM32F4xx_HAL_Driver/Src/stm32f4xx_ll_usb.c ****     {
 838:Drivers/STM32F4xx_HAL_Driver/Src/stm32f4xx_ll_usb.c ****       /* EP enable, IN data in FIFO */
 839:Drivers/STM32F4xx_HAL_Driver/Src/stm32f4xx_ll_usb.c ****       USBx_INEP(epnum)->DIEPCTL |= (USB_OTG_DIEPCTL_CNAK | USB_OTG_DIEPCTL_EPENA);
 840:Drivers/STM32F4xx_HAL_Driver/Src/stm32f4xx_ll_usb.c **** 
 841:Drivers/STM32F4xx_HAL_Driver/Src/stm32f4xx_ll_usb.c ****       if (ep->type != EP_TYPE_ISOC)
 842:Drivers/STM32F4xx_HAL_Driver/Src/stm32f4xx_ll_usb.c ****       {
 843:Drivers/STM32F4xx_HAL_Driver/Src/stm32f4xx_ll_usb.c ****         /* Enable the Tx FIFO Empty Interrupt for this EP */
 844:Drivers/STM32F4xx_HAL_Driver/Src/stm32f4xx_ll_usb.c ****         if (ep->xfer_len > 0U)
 845:Drivers/STM32F4xx_HAL_Driver/Src/stm32f4xx_ll_usb.c ****         {
 846:Drivers/STM32F4xx_HAL_Driver/Src/stm32f4xx_ll_usb.c ****           USBx_DEVICE->DIEPEMPMSK |= 1UL << (ep->num & EP_ADDR_MSK);
 847:Drivers/STM32F4xx_HAL_Driver/Src/stm32f4xx_ll_usb.c ****         }
 848:Drivers/STM32F4xx_HAL_Driver/Src/stm32f4xx_ll_usb.c ****       }
 849:Drivers/STM32F4xx_HAL_Driver/Src/stm32f4xx_ll_usb.c ****       else
 850:Drivers/STM32F4xx_HAL_Driver/Src/stm32f4xx_ll_usb.c ****       {
 851:Drivers/STM32F4xx_HAL_Driver/Src/stm32f4xx_ll_usb.c ****         if ((USBx_DEVICE->DSTS & (1U << 8)) == 0U)
 852:Drivers/STM32F4xx_HAL_Driver/Src/stm32f4xx_ll_usb.c ****         {
 853:Drivers/STM32F4xx_HAL_Driver/Src/stm32f4xx_ll_usb.c ****           USBx_INEP(epnum)->DIEPCTL |= USB_OTG_DIEPCTL_SODDFRM;
 854:Drivers/STM32F4xx_HAL_Driver/Src/stm32f4xx_ll_usb.c ****         }
 855:Drivers/STM32F4xx_HAL_Driver/Src/stm32f4xx_ll_usb.c ****         else
 856:Drivers/STM32F4xx_HAL_Driver/Src/stm32f4xx_ll_usb.c ****         {
 857:Drivers/STM32F4xx_HAL_Driver/Src/stm32f4xx_ll_usb.c ****           USBx_INEP(epnum)->DIEPCTL |= USB_OTG_DIEPCTL_SD0PID_SEVNFRM;
 858:Drivers/STM32F4xx_HAL_Driver/Src/stm32f4xx_ll_usb.c ****         }
 859:Drivers/STM32F4xx_HAL_Driver/Src/stm32f4xx_ll_usb.c **** 
 860:Drivers/STM32F4xx_HAL_Driver/Src/stm32f4xx_ll_usb.c ****         (void)USB_WritePacket(USBx, ep->xfer_buff, ep->num, (uint16_t)ep->xfer_len, dma);
 861:Drivers/STM32F4xx_HAL_Driver/Src/stm32f4xx_ll_usb.c ****       }
 862:Drivers/STM32F4xx_HAL_Driver/Src/stm32f4xx_ll_usb.c ****     }
 863:Drivers/STM32F4xx_HAL_Driver/Src/stm32f4xx_ll_usb.c ****   }
 864:Drivers/STM32F4xx_HAL_Driver/Src/stm32f4xx_ll_usb.c ****   else /* OUT endpoint */
 865:Drivers/STM32F4xx_HAL_Driver/Src/stm32f4xx_ll_usb.c ****   {
 866:Drivers/STM32F4xx_HAL_Driver/Src/stm32f4xx_ll_usb.c ****     /* Program the transfer size and packet count as follows:
 867:Drivers/STM32F4xx_HAL_Driver/Src/stm32f4xx_ll_usb.c ****     * pktcnt = N
 868:Drivers/STM32F4xx_HAL_Driver/Src/stm32f4xx_ll_usb.c ****     * xfersize = N * maxpacket
 869:Drivers/STM32F4xx_HAL_Driver/Src/stm32f4xx_ll_usb.c ****     */
 870:Drivers/STM32F4xx_HAL_Driver/Src/stm32f4xx_ll_usb.c ****     USBx_OUTEP(epnum)->DOEPTSIZ &= ~(USB_OTG_DOEPTSIZ_XFRSIZ);
 871:Drivers/STM32F4xx_HAL_Driver/Src/stm32f4xx_ll_usb.c ****     USBx_OUTEP(epnum)->DOEPTSIZ &= ~(USB_OTG_DOEPTSIZ_PKTCNT);
 872:Drivers/STM32F4xx_HAL_Driver/Src/stm32f4xx_ll_usb.c **** 
 873:Drivers/STM32F4xx_HAL_Driver/Src/stm32f4xx_ll_usb.c ****     if (epnum == 0U)
 874:Drivers/STM32F4xx_HAL_Driver/Src/stm32f4xx_ll_usb.c ****     {
 875:Drivers/STM32F4xx_HAL_Driver/Src/stm32f4xx_ll_usb.c ****       if (ep->xfer_len > 0U)
 876:Drivers/STM32F4xx_HAL_Driver/Src/stm32f4xx_ll_usb.c ****       {
 877:Drivers/STM32F4xx_HAL_Driver/Src/stm32f4xx_ll_usb.c ****         ep->xfer_len = ep->maxpacket;
 878:Drivers/STM32F4xx_HAL_Driver/Src/stm32f4xx_ll_usb.c ****       }
 879:Drivers/STM32F4xx_HAL_Driver/Src/stm32f4xx_ll_usb.c **** 
 880:Drivers/STM32F4xx_HAL_Driver/Src/stm32f4xx_ll_usb.c ****       /* Store transfer size, for EP0 this is equal to endpoint max packet size */
 881:Drivers/STM32F4xx_HAL_Driver/Src/stm32f4xx_ll_usb.c ****       ep->xfer_size = ep->maxpacket;
 882:Drivers/STM32F4xx_HAL_Driver/Src/stm32f4xx_ll_usb.c **** 
 883:Drivers/STM32F4xx_HAL_Driver/Src/stm32f4xx_ll_usb.c ****       USBx_OUTEP(epnum)->DOEPTSIZ |= (USB_OTG_DOEPTSIZ_XFRSIZ & ep->xfer_size);
 884:Drivers/STM32F4xx_HAL_Driver/Src/stm32f4xx_ll_usb.c ****       USBx_OUTEP(epnum)->DOEPTSIZ |= (USB_OTG_DOEPTSIZ_PKTCNT & (1U << 19));
 885:Drivers/STM32F4xx_HAL_Driver/Src/stm32f4xx_ll_usb.c ****     }
ARM GAS  C:\Users\marci\AppData\Local\Temp\ccNtE0Aw.s 			page 17


 886:Drivers/STM32F4xx_HAL_Driver/Src/stm32f4xx_ll_usb.c ****     else
 887:Drivers/STM32F4xx_HAL_Driver/Src/stm32f4xx_ll_usb.c ****     {
 888:Drivers/STM32F4xx_HAL_Driver/Src/stm32f4xx_ll_usb.c ****       if (ep->xfer_len == 0U)
 889:Drivers/STM32F4xx_HAL_Driver/Src/stm32f4xx_ll_usb.c ****       {
 890:Drivers/STM32F4xx_HAL_Driver/Src/stm32f4xx_ll_usb.c ****         USBx_OUTEP(epnum)->DOEPTSIZ |= (USB_OTG_DOEPTSIZ_XFRSIZ & ep->maxpacket);
 891:Drivers/STM32F4xx_HAL_Driver/Src/stm32f4xx_ll_usb.c ****         USBx_OUTEP(epnum)->DOEPTSIZ |= (USB_OTG_DOEPTSIZ_PKTCNT & (1U << 19));
 892:Drivers/STM32F4xx_HAL_Driver/Src/stm32f4xx_ll_usb.c ****       }
 893:Drivers/STM32F4xx_HAL_Driver/Src/stm32f4xx_ll_usb.c ****       else
 894:Drivers/STM32F4xx_HAL_Driver/Src/stm32f4xx_ll_usb.c ****       {
 895:Drivers/STM32F4xx_HAL_Driver/Src/stm32f4xx_ll_usb.c ****         pktcnt = (uint16_t)((ep->xfer_len + ep->maxpacket - 1U) / ep->maxpacket);
 896:Drivers/STM32F4xx_HAL_Driver/Src/stm32f4xx_ll_usb.c ****         ep->xfer_size = ep->maxpacket * pktcnt;
 897:Drivers/STM32F4xx_HAL_Driver/Src/stm32f4xx_ll_usb.c **** 
 898:Drivers/STM32F4xx_HAL_Driver/Src/stm32f4xx_ll_usb.c ****         USBx_OUTEP(epnum)->DOEPTSIZ |= USB_OTG_DOEPTSIZ_PKTCNT & ((uint32_t)pktcnt << 19);
 899:Drivers/STM32F4xx_HAL_Driver/Src/stm32f4xx_ll_usb.c ****         USBx_OUTEP(epnum)->DOEPTSIZ |= USB_OTG_DOEPTSIZ_XFRSIZ & ep->xfer_size;
 900:Drivers/STM32F4xx_HAL_Driver/Src/stm32f4xx_ll_usb.c ****       }
 901:Drivers/STM32F4xx_HAL_Driver/Src/stm32f4xx_ll_usb.c ****     }
 902:Drivers/STM32F4xx_HAL_Driver/Src/stm32f4xx_ll_usb.c **** 
 903:Drivers/STM32F4xx_HAL_Driver/Src/stm32f4xx_ll_usb.c ****     if (dma == 1U)
 904:Drivers/STM32F4xx_HAL_Driver/Src/stm32f4xx_ll_usb.c ****     {
 905:Drivers/STM32F4xx_HAL_Driver/Src/stm32f4xx_ll_usb.c ****       if ((uint32_t)ep->xfer_buff != 0U)
 906:Drivers/STM32F4xx_HAL_Driver/Src/stm32f4xx_ll_usb.c ****       {
 907:Drivers/STM32F4xx_HAL_Driver/Src/stm32f4xx_ll_usb.c ****         USBx_OUTEP(epnum)->DOEPDMA = (uint32_t)(ep->xfer_buff);
 908:Drivers/STM32F4xx_HAL_Driver/Src/stm32f4xx_ll_usb.c ****       }
 909:Drivers/STM32F4xx_HAL_Driver/Src/stm32f4xx_ll_usb.c ****     }
 910:Drivers/STM32F4xx_HAL_Driver/Src/stm32f4xx_ll_usb.c **** 
 911:Drivers/STM32F4xx_HAL_Driver/Src/stm32f4xx_ll_usb.c ****     if (ep->type == EP_TYPE_ISOC)
 912:Drivers/STM32F4xx_HAL_Driver/Src/stm32f4xx_ll_usb.c ****     {
 913:Drivers/STM32F4xx_HAL_Driver/Src/stm32f4xx_ll_usb.c ****       if ((USBx_DEVICE->DSTS & (1U << 8)) == 0U)
 914:Drivers/STM32F4xx_HAL_Driver/Src/stm32f4xx_ll_usb.c ****       {
 915:Drivers/STM32F4xx_HAL_Driver/Src/stm32f4xx_ll_usb.c ****         USBx_OUTEP(epnum)->DOEPCTL |= USB_OTG_DOEPCTL_SODDFRM;
 916:Drivers/STM32F4xx_HAL_Driver/Src/stm32f4xx_ll_usb.c ****       }
 917:Drivers/STM32F4xx_HAL_Driver/Src/stm32f4xx_ll_usb.c ****       else
 918:Drivers/STM32F4xx_HAL_Driver/Src/stm32f4xx_ll_usb.c ****       {
 919:Drivers/STM32F4xx_HAL_Driver/Src/stm32f4xx_ll_usb.c ****         USBx_OUTEP(epnum)->DOEPCTL |= USB_OTG_DOEPCTL_SD0PID_SEVNFRM;
 920:Drivers/STM32F4xx_HAL_Driver/Src/stm32f4xx_ll_usb.c ****       }
 921:Drivers/STM32F4xx_HAL_Driver/Src/stm32f4xx_ll_usb.c ****     }
 922:Drivers/STM32F4xx_HAL_Driver/Src/stm32f4xx_ll_usb.c ****     /* EP enable */
 923:Drivers/STM32F4xx_HAL_Driver/Src/stm32f4xx_ll_usb.c ****     USBx_OUTEP(epnum)->DOEPCTL |= (USB_OTG_DOEPCTL_CNAK | USB_OTG_DOEPCTL_EPENA);
 924:Drivers/STM32F4xx_HAL_Driver/Src/stm32f4xx_ll_usb.c ****   }
 925:Drivers/STM32F4xx_HAL_Driver/Src/stm32f4xx_ll_usb.c **** 
 926:Drivers/STM32F4xx_HAL_Driver/Src/stm32f4xx_ll_usb.c ****   return HAL_OK;
 927:Drivers/STM32F4xx_HAL_Driver/Src/stm32f4xx_ll_usb.c **** }
 928:Drivers/STM32F4xx_HAL_Driver/Src/stm32f4xx_ll_usb.c **** 
 929:Drivers/STM32F4xx_HAL_Driver/Src/stm32f4xx_ll_usb.c **** 
 930:Drivers/STM32F4xx_HAL_Driver/Src/stm32f4xx_ll_usb.c **** /**
 931:Drivers/STM32F4xx_HAL_Driver/Src/stm32f4xx_ll_usb.c ****    * @brief  USB_EPStoptXfer  Stop transfer on an EP
 932:Drivers/STM32F4xx_HAL_Driver/Src/stm32f4xx_ll_usb.c ****    * @param  USBx  usb device instance
 933:Drivers/STM32F4xx_HAL_Driver/Src/stm32f4xx_ll_usb.c ****    * @param  ep pointer to endpoint structure
 934:Drivers/STM32F4xx_HAL_Driver/Src/stm32f4xx_ll_usb.c ****    * @retval HAL status
 935:Drivers/STM32F4xx_HAL_Driver/Src/stm32f4xx_ll_usb.c ****    */
 936:Drivers/STM32F4xx_HAL_Driver/Src/stm32f4xx_ll_usb.c **** HAL_StatusTypeDef USB_EPStopXfer(const USB_OTG_GlobalTypeDef *USBx, USB_OTG_EPTypeDef *ep)
 937:Drivers/STM32F4xx_HAL_Driver/Src/stm32f4xx_ll_usb.c **** {
 938:Drivers/STM32F4xx_HAL_Driver/Src/stm32f4xx_ll_usb.c ****   __IO uint32_t count = 0U;
 939:Drivers/STM32F4xx_HAL_Driver/Src/stm32f4xx_ll_usb.c ****   HAL_StatusTypeDef ret = HAL_OK;
 940:Drivers/STM32F4xx_HAL_Driver/Src/stm32f4xx_ll_usb.c ****   uint32_t USBx_BASE = (uint32_t)USBx;
 941:Drivers/STM32F4xx_HAL_Driver/Src/stm32f4xx_ll_usb.c **** 
 942:Drivers/STM32F4xx_HAL_Driver/Src/stm32f4xx_ll_usb.c ****   /* IN endpoint */
ARM GAS  C:\Users\marci\AppData\Local\Temp\ccNtE0Aw.s 			page 18


 943:Drivers/STM32F4xx_HAL_Driver/Src/stm32f4xx_ll_usb.c ****   if (ep->is_in == 1U)
 944:Drivers/STM32F4xx_HAL_Driver/Src/stm32f4xx_ll_usb.c ****   {
 945:Drivers/STM32F4xx_HAL_Driver/Src/stm32f4xx_ll_usb.c ****     /* EP enable, IN data in FIFO */
 946:Drivers/STM32F4xx_HAL_Driver/Src/stm32f4xx_ll_usb.c ****     if (((USBx_INEP(ep->num)->DIEPCTL) & USB_OTG_DIEPCTL_EPENA) == USB_OTG_DIEPCTL_EPENA)
 947:Drivers/STM32F4xx_HAL_Driver/Src/stm32f4xx_ll_usb.c ****     {
 948:Drivers/STM32F4xx_HAL_Driver/Src/stm32f4xx_ll_usb.c ****       USBx_INEP(ep->num)->DIEPCTL |= (USB_OTG_DIEPCTL_SNAK);
 949:Drivers/STM32F4xx_HAL_Driver/Src/stm32f4xx_ll_usb.c ****       USBx_INEP(ep->num)->DIEPCTL |= (USB_OTG_DIEPCTL_EPDIS);
 950:Drivers/STM32F4xx_HAL_Driver/Src/stm32f4xx_ll_usb.c **** 
 951:Drivers/STM32F4xx_HAL_Driver/Src/stm32f4xx_ll_usb.c ****       do
 952:Drivers/STM32F4xx_HAL_Driver/Src/stm32f4xx_ll_usb.c ****       {
 953:Drivers/STM32F4xx_HAL_Driver/Src/stm32f4xx_ll_usb.c ****         count++;
 954:Drivers/STM32F4xx_HAL_Driver/Src/stm32f4xx_ll_usb.c **** 
 955:Drivers/STM32F4xx_HAL_Driver/Src/stm32f4xx_ll_usb.c ****         if (count > 10000U)
 956:Drivers/STM32F4xx_HAL_Driver/Src/stm32f4xx_ll_usb.c ****         {
 957:Drivers/STM32F4xx_HAL_Driver/Src/stm32f4xx_ll_usb.c ****           ret = HAL_ERROR;
 958:Drivers/STM32F4xx_HAL_Driver/Src/stm32f4xx_ll_usb.c ****           break;
 959:Drivers/STM32F4xx_HAL_Driver/Src/stm32f4xx_ll_usb.c ****         }
 960:Drivers/STM32F4xx_HAL_Driver/Src/stm32f4xx_ll_usb.c ****       } while (((USBx_INEP(ep->num)->DIEPCTL) & USB_OTG_DIEPCTL_EPENA) ==  USB_OTG_DIEPCTL_EPENA);
 961:Drivers/STM32F4xx_HAL_Driver/Src/stm32f4xx_ll_usb.c ****     }
 962:Drivers/STM32F4xx_HAL_Driver/Src/stm32f4xx_ll_usb.c ****   }
 963:Drivers/STM32F4xx_HAL_Driver/Src/stm32f4xx_ll_usb.c ****   else /* OUT endpoint */
 964:Drivers/STM32F4xx_HAL_Driver/Src/stm32f4xx_ll_usb.c ****   {
 965:Drivers/STM32F4xx_HAL_Driver/Src/stm32f4xx_ll_usb.c ****     if (((USBx_OUTEP(ep->num)->DOEPCTL) & USB_OTG_DOEPCTL_EPENA) == USB_OTG_DOEPCTL_EPENA)
 966:Drivers/STM32F4xx_HAL_Driver/Src/stm32f4xx_ll_usb.c ****     {
 967:Drivers/STM32F4xx_HAL_Driver/Src/stm32f4xx_ll_usb.c ****       USBx_OUTEP(ep->num)->DOEPCTL |= (USB_OTG_DOEPCTL_SNAK);
 968:Drivers/STM32F4xx_HAL_Driver/Src/stm32f4xx_ll_usb.c ****       USBx_OUTEP(ep->num)->DOEPCTL |= (USB_OTG_DOEPCTL_EPDIS);
 969:Drivers/STM32F4xx_HAL_Driver/Src/stm32f4xx_ll_usb.c **** 
 970:Drivers/STM32F4xx_HAL_Driver/Src/stm32f4xx_ll_usb.c ****       do
 971:Drivers/STM32F4xx_HAL_Driver/Src/stm32f4xx_ll_usb.c ****       {
 972:Drivers/STM32F4xx_HAL_Driver/Src/stm32f4xx_ll_usb.c ****         count++;
 973:Drivers/STM32F4xx_HAL_Driver/Src/stm32f4xx_ll_usb.c **** 
 974:Drivers/STM32F4xx_HAL_Driver/Src/stm32f4xx_ll_usb.c ****         if (count > 10000U)
 975:Drivers/STM32F4xx_HAL_Driver/Src/stm32f4xx_ll_usb.c ****         {
 976:Drivers/STM32F4xx_HAL_Driver/Src/stm32f4xx_ll_usb.c ****           ret = HAL_ERROR;
 977:Drivers/STM32F4xx_HAL_Driver/Src/stm32f4xx_ll_usb.c ****           break;
 978:Drivers/STM32F4xx_HAL_Driver/Src/stm32f4xx_ll_usb.c ****         }
 979:Drivers/STM32F4xx_HAL_Driver/Src/stm32f4xx_ll_usb.c ****       } while (((USBx_OUTEP(ep->num)->DOEPCTL) & USB_OTG_DOEPCTL_EPENA) ==  USB_OTG_DOEPCTL_EPENA);
 980:Drivers/STM32F4xx_HAL_Driver/Src/stm32f4xx_ll_usb.c ****     }
 981:Drivers/STM32F4xx_HAL_Driver/Src/stm32f4xx_ll_usb.c ****   }
 982:Drivers/STM32F4xx_HAL_Driver/Src/stm32f4xx_ll_usb.c **** 
 983:Drivers/STM32F4xx_HAL_Driver/Src/stm32f4xx_ll_usb.c ****   return ret;
 984:Drivers/STM32F4xx_HAL_Driver/Src/stm32f4xx_ll_usb.c **** }
 985:Drivers/STM32F4xx_HAL_Driver/Src/stm32f4xx_ll_usb.c **** 
 986:Drivers/STM32F4xx_HAL_Driver/Src/stm32f4xx_ll_usb.c **** 
 987:Drivers/STM32F4xx_HAL_Driver/Src/stm32f4xx_ll_usb.c **** /**
 988:Drivers/STM32F4xx_HAL_Driver/Src/stm32f4xx_ll_usb.c ****   * @brief  USB_WritePacket : Writes a packet into the Tx FIFO associated
 989:Drivers/STM32F4xx_HAL_Driver/Src/stm32f4xx_ll_usb.c ****   *         with the EP/channel
 990:Drivers/STM32F4xx_HAL_Driver/Src/stm32f4xx_ll_usb.c ****   * @param  USBx  Selected device
 991:Drivers/STM32F4xx_HAL_Driver/Src/stm32f4xx_ll_usb.c ****   * @param  src   pointer to source buffer
 992:Drivers/STM32F4xx_HAL_Driver/Src/stm32f4xx_ll_usb.c ****   * @param  ch_ep_num  endpoint or host channel number
 993:Drivers/STM32F4xx_HAL_Driver/Src/stm32f4xx_ll_usb.c ****   * @param  len  Number of bytes to write
 994:Drivers/STM32F4xx_HAL_Driver/Src/stm32f4xx_ll_usb.c ****   * @param  dma USB dma enabled or disabled
 995:Drivers/STM32F4xx_HAL_Driver/Src/stm32f4xx_ll_usb.c ****   *          This parameter can be one of these values:
 996:Drivers/STM32F4xx_HAL_Driver/Src/stm32f4xx_ll_usb.c ****   *           0 : DMA feature not used
 997:Drivers/STM32F4xx_HAL_Driver/Src/stm32f4xx_ll_usb.c ****   *           1 : DMA feature used
 998:Drivers/STM32F4xx_HAL_Driver/Src/stm32f4xx_ll_usb.c ****   * @retval HAL status
 999:Drivers/STM32F4xx_HAL_Driver/Src/stm32f4xx_ll_usb.c ****   */
ARM GAS  C:\Users\marci\AppData\Local\Temp\ccNtE0Aw.s 			page 19


1000:Drivers/STM32F4xx_HAL_Driver/Src/stm32f4xx_ll_usb.c **** HAL_StatusTypeDef USB_WritePacket(const USB_OTG_GlobalTypeDef *USBx, uint8_t *src,
1001:Drivers/STM32F4xx_HAL_Driver/Src/stm32f4xx_ll_usb.c ****                                   uint8_t ch_ep_num, uint16_t len, uint8_t dma)
1002:Drivers/STM32F4xx_HAL_Driver/Src/stm32f4xx_ll_usb.c **** {
1003:Drivers/STM32F4xx_HAL_Driver/Src/stm32f4xx_ll_usb.c ****   uint32_t USBx_BASE = (uint32_t)USBx;
1004:Drivers/STM32F4xx_HAL_Driver/Src/stm32f4xx_ll_usb.c ****   uint8_t *pSrc = src;
1005:Drivers/STM32F4xx_HAL_Driver/Src/stm32f4xx_ll_usb.c ****   uint32_t count32b;
1006:Drivers/STM32F4xx_HAL_Driver/Src/stm32f4xx_ll_usb.c ****   uint32_t i;
1007:Drivers/STM32F4xx_HAL_Driver/Src/stm32f4xx_ll_usb.c **** 
1008:Drivers/STM32F4xx_HAL_Driver/Src/stm32f4xx_ll_usb.c ****   if (dma == 0U)
1009:Drivers/STM32F4xx_HAL_Driver/Src/stm32f4xx_ll_usb.c ****   {
1010:Drivers/STM32F4xx_HAL_Driver/Src/stm32f4xx_ll_usb.c ****     count32b = ((uint32_t)len + 3U) / 4U;
1011:Drivers/STM32F4xx_HAL_Driver/Src/stm32f4xx_ll_usb.c ****     for (i = 0U; i < count32b; i++)
1012:Drivers/STM32F4xx_HAL_Driver/Src/stm32f4xx_ll_usb.c ****     {
1013:Drivers/STM32F4xx_HAL_Driver/Src/stm32f4xx_ll_usb.c ****       USBx_DFIFO((uint32_t)ch_ep_num) = __UNALIGNED_UINT32_READ(pSrc);
1014:Drivers/STM32F4xx_HAL_Driver/Src/stm32f4xx_ll_usb.c ****       pSrc++;
1015:Drivers/STM32F4xx_HAL_Driver/Src/stm32f4xx_ll_usb.c ****       pSrc++;
1016:Drivers/STM32F4xx_HAL_Driver/Src/stm32f4xx_ll_usb.c ****       pSrc++;
1017:Drivers/STM32F4xx_HAL_Driver/Src/stm32f4xx_ll_usb.c ****       pSrc++;
1018:Drivers/STM32F4xx_HAL_Driver/Src/stm32f4xx_ll_usb.c ****     }
1019:Drivers/STM32F4xx_HAL_Driver/Src/stm32f4xx_ll_usb.c ****   }
1020:Drivers/STM32F4xx_HAL_Driver/Src/stm32f4xx_ll_usb.c **** 
1021:Drivers/STM32F4xx_HAL_Driver/Src/stm32f4xx_ll_usb.c ****   return HAL_OK;
1022:Drivers/STM32F4xx_HAL_Driver/Src/stm32f4xx_ll_usb.c **** }
1023:Drivers/STM32F4xx_HAL_Driver/Src/stm32f4xx_ll_usb.c **** 
1024:Drivers/STM32F4xx_HAL_Driver/Src/stm32f4xx_ll_usb.c **** /**
1025:Drivers/STM32F4xx_HAL_Driver/Src/stm32f4xx_ll_usb.c ****   * @brief  USB_ReadPacket : read a packet from the RX FIFO
1026:Drivers/STM32F4xx_HAL_Driver/Src/stm32f4xx_ll_usb.c ****   * @param  USBx  Selected device
1027:Drivers/STM32F4xx_HAL_Driver/Src/stm32f4xx_ll_usb.c ****   * @param  dest  source pointer
1028:Drivers/STM32F4xx_HAL_Driver/Src/stm32f4xx_ll_usb.c ****   * @param  len  Number of bytes to read
1029:Drivers/STM32F4xx_HAL_Driver/Src/stm32f4xx_ll_usb.c ****   * @retval pointer to destination buffer
1030:Drivers/STM32F4xx_HAL_Driver/Src/stm32f4xx_ll_usb.c ****   */
1031:Drivers/STM32F4xx_HAL_Driver/Src/stm32f4xx_ll_usb.c **** void *USB_ReadPacket(const USB_OTG_GlobalTypeDef *USBx, uint8_t *dest, uint16_t len)
1032:Drivers/STM32F4xx_HAL_Driver/Src/stm32f4xx_ll_usb.c **** {
1033:Drivers/STM32F4xx_HAL_Driver/Src/stm32f4xx_ll_usb.c ****   uint32_t USBx_BASE = (uint32_t)USBx;
1034:Drivers/STM32F4xx_HAL_Driver/Src/stm32f4xx_ll_usb.c ****   uint8_t *pDest = dest;
1035:Drivers/STM32F4xx_HAL_Driver/Src/stm32f4xx_ll_usb.c ****   uint32_t pData;
1036:Drivers/STM32F4xx_HAL_Driver/Src/stm32f4xx_ll_usb.c ****   uint32_t i;
1037:Drivers/STM32F4xx_HAL_Driver/Src/stm32f4xx_ll_usb.c ****   uint32_t count32b = (uint32_t)len >> 2U;
1038:Drivers/STM32F4xx_HAL_Driver/Src/stm32f4xx_ll_usb.c ****   uint16_t remaining_bytes = len % 4U;
1039:Drivers/STM32F4xx_HAL_Driver/Src/stm32f4xx_ll_usb.c **** 
1040:Drivers/STM32F4xx_HAL_Driver/Src/stm32f4xx_ll_usb.c ****   for (i = 0U; i < count32b; i++)
1041:Drivers/STM32F4xx_HAL_Driver/Src/stm32f4xx_ll_usb.c ****   {
1042:Drivers/STM32F4xx_HAL_Driver/Src/stm32f4xx_ll_usb.c ****     __UNALIGNED_UINT32_WRITE(pDest, USBx_DFIFO(0U));
1043:Drivers/STM32F4xx_HAL_Driver/Src/stm32f4xx_ll_usb.c ****     pDest++;
1044:Drivers/STM32F4xx_HAL_Driver/Src/stm32f4xx_ll_usb.c ****     pDest++;
1045:Drivers/STM32F4xx_HAL_Driver/Src/stm32f4xx_ll_usb.c ****     pDest++;
1046:Drivers/STM32F4xx_HAL_Driver/Src/stm32f4xx_ll_usb.c ****     pDest++;
1047:Drivers/STM32F4xx_HAL_Driver/Src/stm32f4xx_ll_usb.c ****   }
1048:Drivers/STM32F4xx_HAL_Driver/Src/stm32f4xx_ll_usb.c **** 
1049:Drivers/STM32F4xx_HAL_Driver/Src/stm32f4xx_ll_usb.c ****   /* When Number of data is not word aligned, read the remaining byte */
1050:Drivers/STM32F4xx_HAL_Driver/Src/stm32f4xx_ll_usb.c ****   if (remaining_bytes != 0U)
1051:Drivers/STM32F4xx_HAL_Driver/Src/stm32f4xx_ll_usb.c ****   {
1052:Drivers/STM32F4xx_HAL_Driver/Src/stm32f4xx_ll_usb.c ****     i = 0U;
1053:Drivers/STM32F4xx_HAL_Driver/Src/stm32f4xx_ll_usb.c ****     __UNALIGNED_UINT32_WRITE(&pData, USBx_DFIFO(0U));
1054:Drivers/STM32F4xx_HAL_Driver/Src/stm32f4xx_ll_usb.c **** 
1055:Drivers/STM32F4xx_HAL_Driver/Src/stm32f4xx_ll_usb.c ****     do
1056:Drivers/STM32F4xx_HAL_Driver/Src/stm32f4xx_ll_usb.c ****     {
ARM GAS  C:\Users\marci\AppData\Local\Temp\ccNtE0Aw.s 			page 20


1057:Drivers/STM32F4xx_HAL_Driver/Src/stm32f4xx_ll_usb.c ****       *(uint8_t *)pDest = (uint8_t)(pData >> (8U * (uint8_t)(i)));
1058:Drivers/STM32F4xx_HAL_Driver/Src/stm32f4xx_ll_usb.c ****       i++;
1059:Drivers/STM32F4xx_HAL_Driver/Src/stm32f4xx_ll_usb.c ****       pDest++;
1060:Drivers/STM32F4xx_HAL_Driver/Src/stm32f4xx_ll_usb.c ****       remaining_bytes--;
1061:Drivers/STM32F4xx_HAL_Driver/Src/stm32f4xx_ll_usb.c ****     } while (remaining_bytes != 0U);
1062:Drivers/STM32F4xx_HAL_Driver/Src/stm32f4xx_ll_usb.c ****   }
1063:Drivers/STM32F4xx_HAL_Driver/Src/stm32f4xx_ll_usb.c **** 
1064:Drivers/STM32F4xx_HAL_Driver/Src/stm32f4xx_ll_usb.c ****   return ((void *)pDest);
1065:Drivers/STM32F4xx_HAL_Driver/Src/stm32f4xx_ll_usb.c **** }
1066:Drivers/STM32F4xx_HAL_Driver/Src/stm32f4xx_ll_usb.c **** 
1067:Drivers/STM32F4xx_HAL_Driver/Src/stm32f4xx_ll_usb.c **** /**
1068:Drivers/STM32F4xx_HAL_Driver/Src/stm32f4xx_ll_usb.c ****   * @brief  USB_EPSetStall : set a stall condition over an EP
1069:Drivers/STM32F4xx_HAL_Driver/Src/stm32f4xx_ll_usb.c ****   * @param  USBx  Selected device
1070:Drivers/STM32F4xx_HAL_Driver/Src/stm32f4xx_ll_usb.c ****   * @param  ep pointer to endpoint structure
1071:Drivers/STM32F4xx_HAL_Driver/Src/stm32f4xx_ll_usb.c ****   * @retval HAL status
1072:Drivers/STM32F4xx_HAL_Driver/Src/stm32f4xx_ll_usb.c ****   */
1073:Drivers/STM32F4xx_HAL_Driver/Src/stm32f4xx_ll_usb.c **** HAL_StatusTypeDef USB_EPSetStall(const USB_OTG_GlobalTypeDef *USBx, const USB_OTG_EPTypeDef *ep)
1074:Drivers/STM32F4xx_HAL_Driver/Src/stm32f4xx_ll_usb.c **** {
1075:Drivers/STM32F4xx_HAL_Driver/Src/stm32f4xx_ll_usb.c ****   uint32_t USBx_BASE = (uint32_t)USBx;
1076:Drivers/STM32F4xx_HAL_Driver/Src/stm32f4xx_ll_usb.c ****   uint32_t epnum = (uint32_t)ep->num;
1077:Drivers/STM32F4xx_HAL_Driver/Src/stm32f4xx_ll_usb.c **** 
1078:Drivers/STM32F4xx_HAL_Driver/Src/stm32f4xx_ll_usb.c ****   if (ep->is_in == 1U)
1079:Drivers/STM32F4xx_HAL_Driver/Src/stm32f4xx_ll_usb.c ****   {
1080:Drivers/STM32F4xx_HAL_Driver/Src/stm32f4xx_ll_usb.c ****     if (((USBx_INEP(epnum)->DIEPCTL & USB_OTG_DIEPCTL_EPENA) == 0U) && (epnum != 0U))
1081:Drivers/STM32F4xx_HAL_Driver/Src/stm32f4xx_ll_usb.c ****     {
1082:Drivers/STM32F4xx_HAL_Driver/Src/stm32f4xx_ll_usb.c ****       USBx_INEP(epnum)->DIEPCTL &= ~(USB_OTG_DIEPCTL_EPDIS);
1083:Drivers/STM32F4xx_HAL_Driver/Src/stm32f4xx_ll_usb.c ****     }
1084:Drivers/STM32F4xx_HAL_Driver/Src/stm32f4xx_ll_usb.c ****     USBx_INEP(epnum)->DIEPCTL |= USB_OTG_DIEPCTL_STALL;
1085:Drivers/STM32F4xx_HAL_Driver/Src/stm32f4xx_ll_usb.c ****   }
1086:Drivers/STM32F4xx_HAL_Driver/Src/stm32f4xx_ll_usb.c ****   else
1087:Drivers/STM32F4xx_HAL_Driver/Src/stm32f4xx_ll_usb.c ****   {
1088:Drivers/STM32F4xx_HAL_Driver/Src/stm32f4xx_ll_usb.c ****     if (((USBx_OUTEP(epnum)->DOEPCTL & USB_OTG_DOEPCTL_EPENA) == 0U) && (epnum != 0U))
1089:Drivers/STM32F4xx_HAL_Driver/Src/stm32f4xx_ll_usb.c ****     {
1090:Drivers/STM32F4xx_HAL_Driver/Src/stm32f4xx_ll_usb.c ****       USBx_OUTEP(epnum)->DOEPCTL &= ~(USB_OTG_DOEPCTL_EPDIS);
1091:Drivers/STM32F4xx_HAL_Driver/Src/stm32f4xx_ll_usb.c ****     }
1092:Drivers/STM32F4xx_HAL_Driver/Src/stm32f4xx_ll_usb.c ****     USBx_OUTEP(epnum)->DOEPCTL |= USB_OTG_DOEPCTL_STALL;
1093:Drivers/STM32F4xx_HAL_Driver/Src/stm32f4xx_ll_usb.c ****   }
1094:Drivers/STM32F4xx_HAL_Driver/Src/stm32f4xx_ll_usb.c **** 
1095:Drivers/STM32F4xx_HAL_Driver/Src/stm32f4xx_ll_usb.c ****   return HAL_OK;
1096:Drivers/STM32F4xx_HAL_Driver/Src/stm32f4xx_ll_usb.c **** }
1097:Drivers/STM32F4xx_HAL_Driver/Src/stm32f4xx_ll_usb.c **** 
1098:Drivers/STM32F4xx_HAL_Driver/Src/stm32f4xx_ll_usb.c **** /**
1099:Drivers/STM32F4xx_HAL_Driver/Src/stm32f4xx_ll_usb.c ****   * @brief  USB_EPClearStall : Clear a stall condition over an EP
1100:Drivers/STM32F4xx_HAL_Driver/Src/stm32f4xx_ll_usb.c ****   * @param  USBx  Selected device
1101:Drivers/STM32F4xx_HAL_Driver/Src/stm32f4xx_ll_usb.c ****   * @param  ep pointer to endpoint structure
1102:Drivers/STM32F4xx_HAL_Driver/Src/stm32f4xx_ll_usb.c ****   * @retval HAL status
1103:Drivers/STM32F4xx_HAL_Driver/Src/stm32f4xx_ll_usb.c ****   */
1104:Drivers/STM32F4xx_HAL_Driver/Src/stm32f4xx_ll_usb.c **** HAL_StatusTypeDef USB_EPClearStall(const USB_OTG_GlobalTypeDef *USBx, const USB_OTG_EPTypeDef *ep)
1105:Drivers/STM32F4xx_HAL_Driver/Src/stm32f4xx_ll_usb.c **** {
1106:Drivers/STM32F4xx_HAL_Driver/Src/stm32f4xx_ll_usb.c ****   uint32_t USBx_BASE = (uint32_t)USBx;
1107:Drivers/STM32F4xx_HAL_Driver/Src/stm32f4xx_ll_usb.c ****   uint32_t epnum = (uint32_t)ep->num;
1108:Drivers/STM32F4xx_HAL_Driver/Src/stm32f4xx_ll_usb.c **** 
1109:Drivers/STM32F4xx_HAL_Driver/Src/stm32f4xx_ll_usb.c ****   if (ep->is_in == 1U)
1110:Drivers/STM32F4xx_HAL_Driver/Src/stm32f4xx_ll_usb.c ****   {
1111:Drivers/STM32F4xx_HAL_Driver/Src/stm32f4xx_ll_usb.c ****     USBx_INEP(epnum)->DIEPCTL &= ~USB_OTG_DIEPCTL_STALL;
1112:Drivers/STM32F4xx_HAL_Driver/Src/stm32f4xx_ll_usb.c ****     if ((ep->type == EP_TYPE_INTR) || (ep->type == EP_TYPE_BULK))
1113:Drivers/STM32F4xx_HAL_Driver/Src/stm32f4xx_ll_usb.c ****     {
ARM GAS  C:\Users\marci\AppData\Local\Temp\ccNtE0Aw.s 			page 21


1114:Drivers/STM32F4xx_HAL_Driver/Src/stm32f4xx_ll_usb.c ****       USBx_INEP(epnum)->DIEPCTL |= USB_OTG_DIEPCTL_SD0PID_SEVNFRM; /* DATA0 */
1115:Drivers/STM32F4xx_HAL_Driver/Src/stm32f4xx_ll_usb.c ****     }
1116:Drivers/STM32F4xx_HAL_Driver/Src/stm32f4xx_ll_usb.c ****   }
1117:Drivers/STM32F4xx_HAL_Driver/Src/stm32f4xx_ll_usb.c ****   else
1118:Drivers/STM32F4xx_HAL_Driver/Src/stm32f4xx_ll_usb.c ****   {
1119:Drivers/STM32F4xx_HAL_Driver/Src/stm32f4xx_ll_usb.c ****     USBx_OUTEP(epnum)->DOEPCTL &= ~USB_OTG_DOEPCTL_STALL;
1120:Drivers/STM32F4xx_HAL_Driver/Src/stm32f4xx_ll_usb.c ****     if ((ep->type == EP_TYPE_INTR) || (ep->type == EP_TYPE_BULK))
1121:Drivers/STM32F4xx_HAL_Driver/Src/stm32f4xx_ll_usb.c ****     {
1122:Drivers/STM32F4xx_HAL_Driver/Src/stm32f4xx_ll_usb.c ****       USBx_OUTEP(epnum)->DOEPCTL |= USB_OTG_DOEPCTL_SD0PID_SEVNFRM; /* DATA0 */
1123:Drivers/STM32F4xx_HAL_Driver/Src/stm32f4xx_ll_usb.c ****     }
1124:Drivers/STM32F4xx_HAL_Driver/Src/stm32f4xx_ll_usb.c ****   }
1125:Drivers/STM32F4xx_HAL_Driver/Src/stm32f4xx_ll_usb.c ****   return HAL_OK;
1126:Drivers/STM32F4xx_HAL_Driver/Src/stm32f4xx_ll_usb.c **** }
1127:Drivers/STM32F4xx_HAL_Driver/Src/stm32f4xx_ll_usb.c **** 
1128:Drivers/STM32F4xx_HAL_Driver/Src/stm32f4xx_ll_usb.c **** /**
1129:Drivers/STM32F4xx_HAL_Driver/Src/stm32f4xx_ll_usb.c ****   * @brief  USB_StopDevice : Stop the usb device mode
1130:Drivers/STM32F4xx_HAL_Driver/Src/stm32f4xx_ll_usb.c ****   * @param  USBx  Selected device
1131:Drivers/STM32F4xx_HAL_Driver/Src/stm32f4xx_ll_usb.c ****   * @retval HAL status
1132:Drivers/STM32F4xx_HAL_Driver/Src/stm32f4xx_ll_usb.c ****   */
1133:Drivers/STM32F4xx_HAL_Driver/Src/stm32f4xx_ll_usb.c **** HAL_StatusTypeDef USB_StopDevice(USB_OTG_GlobalTypeDef *USBx)
1134:Drivers/STM32F4xx_HAL_Driver/Src/stm32f4xx_ll_usb.c **** {
1135:Drivers/STM32F4xx_HAL_Driver/Src/stm32f4xx_ll_usb.c ****   HAL_StatusTypeDef ret;
1136:Drivers/STM32F4xx_HAL_Driver/Src/stm32f4xx_ll_usb.c ****   uint32_t USBx_BASE = (uint32_t)USBx;
1137:Drivers/STM32F4xx_HAL_Driver/Src/stm32f4xx_ll_usb.c ****   uint32_t i;
1138:Drivers/STM32F4xx_HAL_Driver/Src/stm32f4xx_ll_usb.c **** 
1139:Drivers/STM32F4xx_HAL_Driver/Src/stm32f4xx_ll_usb.c ****   /* Clear Pending interrupt */
1140:Drivers/STM32F4xx_HAL_Driver/Src/stm32f4xx_ll_usb.c ****   for (i = 0U; i < 15U; i++)
1141:Drivers/STM32F4xx_HAL_Driver/Src/stm32f4xx_ll_usb.c ****   {
1142:Drivers/STM32F4xx_HAL_Driver/Src/stm32f4xx_ll_usb.c ****     USBx_INEP(i)->DIEPINT = 0xFB7FU;
1143:Drivers/STM32F4xx_HAL_Driver/Src/stm32f4xx_ll_usb.c ****     USBx_OUTEP(i)->DOEPINT = 0xFB7FU;
1144:Drivers/STM32F4xx_HAL_Driver/Src/stm32f4xx_ll_usb.c ****   }
1145:Drivers/STM32F4xx_HAL_Driver/Src/stm32f4xx_ll_usb.c **** 
1146:Drivers/STM32F4xx_HAL_Driver/Src/stm32f4xx_ll_usb.c ****   /* Clear interrupt masks */
1147:Drivers/STM32F4xx_HAL_Driver/Src/stm32f4xx_ll_usb.c ****   USBx_DEVICE->DIEPMSK  = 0U;
1148:Drivers/STM32F4xx_HAL_Driver/Src/stm32f4xx_ll_usb.c ****   USBx_DEVICE->DOEPMSK  = 0U;
1149:Drivers/STM32F4xx_HAL_Driver/Src/stm32f4xx_ll_usb.c ****   USBx_DEVICE->DAINTMSK = 0U;
1150:Drivers/STM32F4xx_HAL_Driver/Src/stm32f4xx_ll_usb.c **** 
1151:Drivers/STM32F4xx_HAL_Driver/Src/stm32f4xx_ll_usb.c ****   /* Flush the FIFO */
1152:Drivers/STM32F4xx_HAL_Driver/Src/stm32f4xx_ll_usb.c ****   ret = USB_FlushRxFifo(USBx);
1153:Drivers/STM32F4xx_HAL_Driver/Src/stm32f4xx_ll_usb.c ****   if (ret != HAL_OK)
1154:Drivers/STM32F4xx_HAL_Driver/Src/stm32f4xx_ll_usb.c ****   {
1155:Drivers/STM32F4xx_HAL_Driver/Src/stm32f4xx_ll_usb.c ****     return ret;
1156:Drivers/STM32F4xx_HAL_Driver/Src/stm32f4xx_ll_usb.c ****   }
1157:Drivers/STM32F4xx_HAL_Driver/Src/stm32f4xx_ll_usb.c **** 
1158:Drivers/STM32F4xx_HAL_Driver/Src/stm32f4xx_ll_usb.c ****   ret = USB_FlushTxFifo(USBx,  0x10U);
1159:Drivers/STM32F4xx_HAL_Driver/Src/stm32f4xx_ll_usb.c ****   if (ret != HAL_OK)
1160:Drivers/STM32F4xx_HAL_Driver/Src/stm32f4xx_ll_usb.c ****   {
1161:Drivers/STM32F4xx_HAL_Driver/Src/stm32f4xx_ll_usb.c ****     return ret;
1162:Drivers/STM32F4xx_HAL_Driver/Src/stm32f4xx_ll_usb.c ****   }
1163:Drivers/STM32F4xx_HAL_Driver/Src/stm32f4xx_ll_usb.c **** 
1164:Drivers/STM32F4xx_HAL_Driver/Src/stm32f4xx_ll_usb.c ****   return ret;
1165:Drivers/STM32F4xx_HAL_Driver/Src/stm32f4xx_ll_usb.c **** }
1166:Drivers/STM32F4xx_HAL_Driver/Src/stm32f4xx_ll_usb.c **** 
1167:Drivers/STM32F4xx_HAL_Driver/Src/stm32f4xx_ll_usb.c **** /**
1168:Drivers/STM32F4xx_HAL_Driver/Src/stm32f4xx_ll_usb.c ****   * @brief  USB_SetDevAddress : Stop the usb device mode
1169:Drivers/STM32F4xx_HAL_Driver/Src/stm32f4xx_ll_usb.c ****   * @param  USBx  Selected device
1170:Drivers/STM32F4xx_HAL_Driver/Src/stm32f4xx_ll_usb.c ****   * @param  address  new device address to be assigned
ARM GAS  C:\Users\marci\AppData\Local\Temp\ccNtE0Aw.s 			page 22


1171:Drivers/STM32F4xx_HAL_Driver/Src/stm32f4xx_ll_usb.c ****   *          This parameter can be a value from 0 to 255
1172:Drivers/STM32F4xx_HAL_Driver/Src/stm32f4xx_ll_usb.c ****   * @retval HAL status
1173:Drivers/STM32F4xx_HAL_Driver/Src/stm32f4xx_ll_usb.c ****   */
1174:Drivers/STM32F4xx_HAL_Driver/Src/stm32f4xx_ll_usb.c **** HAL_StatusTypeDef USB_SetDevAddress(const USB_OTG_GlobalTypeDef *USBx, uint8_t address)
1175:Drivers/STM32F4xx_HAL_Driver/Src/stm32f4xx_ll_usb.c **** {
1176:Drivers/STM32F4xx_HAL_Driver/Src/stm32f4xx_ll_usb.c ****   uint32_t USBx_BASE = (uint32_t)USBx;
1177:Drivers/STM32F4xx_HAL_Driver/Src/stm32f4xx_ll_usb.c **** 
1178:Drivers/STM32F4xx_HAL_Driver/Src/stm32f4xx_ll_usb.c ****   USBx_DEVICE->DCFG &= ~(USB_OTG_DCFG_DAD);
1179:Drivers/STM32F4xx_HAL_Driver/Src/stm32f4xx_ll_usb.c ****   USBx_DEVICE->DCFG |= ((uint32_t)address << 4) & USB_OTG_DCFG_DAD;
1180:Drivers/STM32F4xx_HAL_Driver/Src/stm32f4xx_ll_usb.c **** 
1181:Drivers/STM32F4xx_HAL_Driver/Src/stm32f4xx_ll_usb.c ****   return HAL_OK;
1182:Drivers/STM32F4xx_HAL_Driver/Src/stm32f4xx_ll_usb.c **** }
1183:Drivers/STM32F4xx_HAL_Driver/Src/stm32f4xx_ll_usb.c **** 
1184:Drivers/STM32F4xx_HAL_Driver/Src/stm32f4xx_ll_usb.c **** /**
1185:Drivers/STM32F4xx_HAL_Driver/Src/stm32f4xx_ll_usb.c ****   * @brief  USB_DevConnect : Connect the USB device by enabling Rpu
1186:Drivers/STM32F4xx_HAL_Driver/Src/stm32f4xx_ll_usb.c ****   * @param  USBx  Selected device
1187:Drivers/STM32F4xx_HAL_Driver/Src/stm32f4xx_ll_usb.c ****   * @retval HAL status
1188:Drivers/STM32F4xx_HAL_Driver/Src/stm32f4xx_ll_usb.c ****   */
1189:Drivers/STM32F4xx_HAL_Driver/Src/stm32f4xx_ll_usb.c **** HAL_StatusTypeDef USB_DevConnect(const USB_OTG_GlobalTypeDef *USBx)
1190:Drivers/STM32F4xx_HAL_Driver/Src/stm32f4xx_ll_usb.c **** {
1191:Drivers/STM32F4xx_HAL_Driver/Src/stm32f4xx_ll_usb.c ****   uint32_t USBx_BASE = (uint32_t)USBx;
1192:Drivers/STM32F4xx_HAL_Driver/Src/stm32f4xx_ll_usb.c **** 
1193:Drivers/STM32F4xx_HAL_Driver/Src/stm32f4xx_ll_usb.c ****   /* In case phy is stopped, ensure to ungate and restore the phy CLK */
1194:Drivers/STM32F4xx_HAL_Driver/Src/stm32f4xx_ll_usb.c ****   USBx_PCGCCTL &= ~(USB_OTG_PCGCCTL_STOPCLK | USB_OTG_PCGCCTL_GATECLK);
1195:Drivers/STM32F4xx_HAL_Driver/Src/stm32f4xx_ll_usb.c **** 
1196:Drivers/STM32F4xx_HAL_Driver/Src/stm32f4xx_ll_usb.c ****   USBx_DEVICE->DCTL &= ~USB_OTG_DCTL_SDIS;
1197:Drivers/STM32F4xx_HAL_Driver/Src/stm32f4xx_ll_usb.c **** 
1198:Drivers/STM32F4xx_HAL_Driver/Src/stm32f4xx_ll_usb.c ****   return HAL_OK;
1199:Drivers/STM32F4xx_HAL_Driver/Src/stm32f4xx_ll_usb.c **** }
1200:Drivers/STM32F4xx_HAL_Driver/Src/stm32f4xx_ll_usb.c **** 
1201:Drivers/STM32F4xx_HAL_Driver/Src/stm32f4xx_ll_usb.c **** /**
1202:Drivers/STM32F4xx_HAL_Driver/Src/stm32f4xx_ll_usb.c ****   * @brief  USB_DevDisconnect : Disconnect the USB device by disabling Rpu
1203:Drivers/STM32F4xx_HAL_Driver/Src/stm32f4xx_ll_usb.c ****   * @param  USBx  Selected device
1204:Drivers/STM32F4xx_HAL_Driver/Src/stm32f4xx_ll_usb.c ****   * @retval HAL status
1205:Drivers/STM32F4xx_HAL_Driver/Src/stm32f4xx_ll_usb.c ****   */
1206:Drivers/STM32F4xx_HAL_Driver/Src/stm32f4xx_ll_usb.c **** HAL_StatusTypeDef USB_DevDisconnect(const USB_OTG_GlobalTypeDef *USBx)
1207:Drivers/STM32F4xx_HAL_Driver/Src/stm32f4xx_ll_usb.c **** {
1208:Drivers/STM32F4xx_HAL_Driver/Src/stm32f4xx_ll_usb.c ****   uint32_t USBx_BASE = (uint32_t)USBx;
1209:Drivers/STM32F4xx_HAL_Driver/Src/stm32f4xx_ll_usb.c **** 
1210:Drivers/STM32F4xx_HAL_Driver/Src/stm32f4xx_ll_usb.c ****   /* In case phy is stopped, ensure to ungate and restore the phy CLK */
1211:Drivers/STM32F4xx_HAL_Driver/Src/stm32f4xx_ll_usb.c ****   USBx_PCGCCTL &= ~(USB_OTG_PCGCCTL_STOPCLK | USB_OTG_PCGCCTL_GATECLK);
1212:Drivers/STM32F4xx_HAL_Driver/Src/stm32f4xx_ll_usb.c **** 
1213:Drivers/STM32F4xx_HAL_Driver/Src/stm32f4xx_ll_usb.c ****   USBx_DEVICE->DCTL |= USB_OTG_DCTL_SDIS;
1214:Drivers/STM32F4xx_HAL_Driver/Src/stm32f4xx_ll_usb.c **** 
1215:Drivers/STM32F4xx_HAL_Driver/Src/stm32f4xx_ll_usb.c ****   return HAL_OK;
1216:Drivers/STM32F4xx_HAL_Driver/Src/stm32f4xx_ll_usb.c **** }
1217:Drivers/STM32F4xx_HAL_Driver/Src/stm32f4xx_ll_usb.c **** 
1218:Drivers/STM32F4xx_HAL_Driver/Src/stm32f4xx_ll_usb.c **** /**
1219:Drivers/STM32F4xx_HAL_Driver/Src/stm32f4xx_ll_usb.c ****   * @brief  USB_ReadInterrupts: return the global USB interrupt status
1220:Drivers/STM32F4xx_HAL_Driver/Src/stm32f4xx_ll_usb.c ****   * @param  USBx  Selected device
1221:Drivers/STM32F4xx_HAL_Driver/Src/stm32f4xx_ll_usb.c ****   * @retval USB Global Interrupt status
1222:Drivers/STM32F4xx_HAL_Driver/Src/stm32f4xx_ll_usb.c ****   */
1223:Drivers/STM32F4xx_HAL_Driver/Src/stm32f4xx_ll_usb.c **** uint32_t USB_ReadInterrupts(USB_OTG_GlobalTypeDef const *USBx)
1224:Drivers/STM32F4xx_HAL_Driver/Src/stm32f4xx_ll_usb.c **** {
1225:Drivers/STM32F4xx_HAL_Driver/Src/stm32f4xx_ll_usb.c ****   uint32_t tmpreg;
1226:Drivers/STM32F4xx_HAL_Driver/Src/stm32f4xx_ll_usb.c **** 
1227:Drivers/STM32F4xx_HAL_Driver/Src/stm32f4xx_ll_usb.c ****   tmpreg = USBx->GINTSTS;
ARM GAS  C:\Users\marci\AppData\Local\Temp\ccNtE0Aw.s 			page 23


1228:Drivers/STM32F4xx_HAL_Driver/Src/stm32f4xx_ll_usb.c ****   tmpreg &= USBx->GINTMSK;
1229:Drivers/STM32F4xx_HAL_Driver/Src/stm32f4xx_ll_usb.c **** 
1230:Drivers/STM32F4xx_HAL_Driver/Src/stm32f4xx_ll_usb.c ****   return tmpreg;
1231:Drivers/STM32F4xx_HAL_Driver/Src/stm32f4xx_ll_usb.c **** }
1232:Drivers/STM32F4xx_HAL_Driver/Src/stm32f4xx_ll_usb.c **** 
1233:Drivers/STM32F4xx_HAL_Driver/Src/stm32f4xx_ll_usb.c **** /**
1234:Drivers/STM32F4xx_HAL_Driver/Src/stm32f4xx_ll_usb.c ****   * @brief  USB_ReadChInterrupts: return USB channel interrupt status
1235:Drivers/STM32F4xx_HAL_Driver/Src/stm32f4xx_ll_usb.c ****   * @param  USBx  Selected device
1236:Drivers/STM32F4xx_HAL_Driver/Src/stm32f4xx_ll_usb.c ****   * @param  chnum Channel number
1237:Drivers/STM32F4xx_HAL_Driver/Src/stm32f4xx_ll_usb.c ****   * @retval USB Channel Interrupt status
1238:Drivers/STM32F4xx_HAL_Driver/Src/stm32f4xx_ll_usb.c ****   */
1239:Drivers/STM32F4xx_HAL_Driver/Src/stm32f4xx_ll_usb.c **** uint32_t USB_ReadChInterrupts(const USB_OTG_GlobalTypeDef *USBx, uint8_t chnum)
1240:Drivers/STM32F4xx_HAL_Driver/Src/stm32f4xx_ll_usb.c **** {
1241:Drivers/STM32F4xx_HAL_Driver/Src/stm32f4xx_ll_usb.c ****   uint32_t USBx_BASE = (uint32_t)USBx;
1242:Drivers/STM32F4xx_HAL_Driver/Src/stm32f4xx_ll_usb.c ****   uint32_t tmpreg;
1243:Drivers/STM32F4xx_HAL_Driver/Src/stm32f4xx_ll_usb.c **** 
1244:Drivers/STM32F4xx_HAL_Driver/Src/stm32f4xx_ll_usb.c ****   tmpreg = USBx_HC(chnum)->HCINT;
1245:Drivers/STM32F4xx_HAL_Driver/Src/stm32f4xx_ll_usb.c ****   tmpreg &= USBx_HC(chnum)->HCINTMSK;
1246:Drivers/STM32F4xx_HAL_Driver/Src/stm32f4xx_ll_usb.c **** 
1247:Drivers/STM32F4xx_HAL_Driver/Src/stm32f4xx_ll_usb.c ****   return tmpreg;
1248:Drivers/STM32F4xx_HAL_Driver/Src/stm32f4xx_ll_usb.c **** }
1249:Drivers/STM32F4xx_HAL_Driver/Src/stm32f4xx_ll_usb.c **** 
1250:Drivers/STM32F4xx_HAL_Driver/Src/stm32f4xx_ll_usb.c **** /**
1251:Drivers/STM32F4xx_HAL_Driver/Src/stm32f4xx_ll_usb.c ****   * @brief  USB_ReadDevAllOutEpInterrupt: return the USB device OUT endpoints interrupt status
1252:Drivers/STM32F4xx_HAL_Driver/Src/stm32f4xx_ll_usb.c ****   * @param  USBx  Selected device
1253:Drivers/STM32F4xx_HAL_Driver/Src/stm32f4xx_ll_usb.c ****   * @retval USB Device OUT EP interrupt status
1254:Drivers/STM32F4xx_HAL_Driver/Src/stm32f4xx_ll_usb.c ****   */
1255:Drivers/STM32F4xx_HAL_Driver/Src/stm32f4xx_ll_usb.c **** uint32_t USB_ReadDevAllOutEpInterrupt(const USB_OTG_GlobalTypeDef *USBx)
1256:Drivers/STM32F4xx_HAL_Driver/Src/stm32f4xx_ll_usb.c **** {
1257:Drivers/STM32F4xx_HAL_Driver/Src/stm32f4xx_ll_usb.c ****   uint32_t USBx_BASE = (uint32_t)USBx;
1258:Drivers/STM32F4xx_HAL_Driver/Src/stm32f4xx_ll_usb.c ****   uint32_t tmpreg;
1259:Drivers/STM32F4xx_HAL_Driver/Src/stm32f4xx_ll_usb.c **** 
1260:Drivers/STM32F4xx_HAL_Driver/Src/stm32f4xx_ll_usb.c ****   tmpreg  = USBx_DEVICE->DAINT;
1261:Drivers/STM32F4xx_HAL_Driver/Src/stm32f4xx_ll_usb.c ****   tmpreg &= USBx_DEVICE->DAINTMSK;
1262:Drivers/STM32F4xx_HAL_Driver/Src/stm32f4xx_ll_usb.c **** 
1263:Drivers/STM32F4xx_HAL_Driver/Src/stm32f4xx_ll_usb.c ****   return ((tmpreg & 0xffff0000U) >> 16);
1264:Drivers/STM32F4xx_HAL_Driver/Src/stm32f4xx_ll_usb.c **** }
1265:Drivers/STM32F4xx_HAL_Driver/Src/stm32f4xx_ll_usb.c **** 
1266:Drivers/STM32F4xx_HAL_Driver/Src/stm32f4xx_ll_usb.c **** /**
1267:Drivers/STM32F4xx_HAL_Driver/Src/stm32f4xx_ll_usb.c ****   * @brief  USB_ReadDevAllInEpInterrupt: return the USB device IN endpoints interrupt status
1268:Drivers/STM32F4xx_HAL_Driver/Src/stm32f4xx_ll_usb.c ****   * @param  USBx  Selected device
1269:Drivers/STM32F4xx_HAL_Driver/Src/stm32f4xx_ll_usb.c ****   * @retval USB Device IN EP interrupt status
1270:Drivers/STM32F4xx_HAL_Driver/Src/stm32f4xx_ll_usb.c ****   */
1271:Drivers/STM32F4xx_HAL_Driver/Src/stm32f4xx_ll_usb.c **** uint32_t USB_ReadDevAllInEpInterrupt(const USB_OTG_GlobalTypeDef *USBx)
1272:Drivers/STM32F4xx_HAL_Driver/Src/stm32f4xx_ll_usb.c **** {
1273:Drivers/STM32F4xx_HAL_Driver/Src/stm32f4xx_ll_usb.c ****   uint32_t USBx_BASE = (uint32_t)USBx;
1274:Drivers/STM32F4xx_HAL_Driver/Src/stm32f4xx_ll_usb.c ****   uint32_t tmpreg;
1275:Drivers/STM32F4xx_HAL_Driver/Src/stm32f4xx_ll_usb.c **** 
1276:Drivers/STM32F4xx_HAL_Driver/Src/stm32f4xx_ll_usb.c ****   tmpreg  = USBx_DEVICE->DAINT;
1277:Drivers/STM32F4xx_HAL_Driver/Src/stm32f4xx_ll_usb.c ****   tmpreg &= USBx_DEVICE->DAINTMSK;
1278:Drivers/STM32F4xx_HAL_Driver/Src/stm32f4xx_ll_usb.c **** 
1279:Drivers/STM32F4xx_HAL_Driver/Src/stm32f4xx_ll_usb.c ****   return ((tmpreg & 0xFFFFU));
1280:Drivers/STM32F4xx_HAL_Driver/Src/stm32f4xx_ll_usb.c **** }
1281:Drivers/STM32F4xx_HAL_Driver/Src/stm32f4xx_ll_usb.c **** 
1282:Drivers/STM32F4xx_HAL_Driver/Src/stm32f4xx_ll_usb.c **** /**
1283:Drivers/STM32F4xx_HAL_Driver/Src/stm32f4xx_ll_usb.c ****   * @brief  Returns Device OUT EP Interrupt register
1284:Drivers/STM32F4xx_HAL_Driver/Src/stm32f4xx_ll_usb.c ****   * @param  USBx  Selected device
ARM GAS  C:\Users\marci\AppData\Local\Temp\ccNtE0Aw.s 			page 24


1285:Drivers/STM32F4xx_HAL_Driver/Src/stm32f4xx_ll_usb.c ****   * @param  epnum  endpoint number
1286:Drivers/STM32F4xx_HAL_Driver/Src/stm32f4xx_ll_usb.c ****   *          This parameter can be a value from 0 to 15
1287:Drivers/STM32F4xx_HAL_Driver/Src/stm32f4xx_ll_usb.c ****   * @retval Device OUT EP Interrupt register
1288:Drivers/STM32F4xx_HAL_Driver/Src/stm32f4xx_ll_usb.c ****   */
1289:Drivers/STM32F4xx_HAL_Driver/Src/stm32f4xx_ll_usb.c **** uint32_t USB_ReadDevOutEPInterrupt(const USB_OTG_GlobalTypeDef *USBx, uint8_t epnum)
1290:Drivers/STM32F4xx_HAL_Driver/Src/stm32f4xx_ll_usb.c **** {
1291:Drivers/STM32F4xx_HAL_Driver/Src/stm32f4xx_ll_usb.c ****   uint32_t USBx_BASE = (uint32_t)USBx;
1292:Drivers/STM32F4xx_HAL_Driver/Src/stm32f4xx_ll_usb.c ****   uint32_t tmpreg;
1293:Drivers/STM32F4xx_HAL_Driver/Src/stm32f4xx_ll_usb.c **** 
1294:Drivers/STM32F4xx_HAL_Driver/Src/stm32f4xx_ll_usb.c ****   tmpreg  = USBx_OUTEP((uint32_t)epnum)->DOEPINT;
1295:Drivers/STM32F4xx_HAL_Driver/Src/stm32f4xx_ll_usb.c ****   tmpreg &= USBx_DEVICE->DOEPMSK;
1296:Drivers/STM32F4xx_HAL_Driver/Src/stm32f4xx_ll_usb.c **** 
1297:Drivers/STM32F4xx_HAL_Driver/Src/stm32f4xx_ll_usb.c ****   return tmpreg;
1298:Drivers/STM32F4xx_HAL_Driver/Src/stm32f4xx_ll_usb.c **** }
1299:Drivers/STM32F4xx_HAL_Driver/Src/stm32f4xx_ll_usb.c **** 
1300:Drivers/STM32F4xx_HAL_Driver/Src/stm32f4xx_ll_usb.c **** /**
1301:Drivers/STM32F4xx_HAL_Driver/Src/stm32f4xx_ll_usb.c ****   * @brief  Returns Device IN EP Interrupt register
1302:Drivers/STM32F4xx_HAL_Driver/Src/stm32f4xx_ll_usb.c ****   * @param  USBx  Selected device
1303:Drivers/STM32F4xx_HAL_Driver/Src/stm32f4xx_ll_usb.c ****   * @param  epnum  endpoint number
1304:Drivers/STM32F4xx_HAL_Driver/Src/stm32f4xx_ll_usb.c ****   *          This parameter can be a value from 0 to 15
1305:Drivers/STM32F4xx_HAL_Driver/Src/stm32f4xx_ll_usb.c ****   * @retval Device IN EP Interrupt register
1306:Drivers/STM32F4xx_HAL_Driver/Src/stm32f4xx_ll_usb.c ****   */
1307:Drivers/STM32F4xx_HAL_Driver/Src/stm32f4xx_ll_usb.c **** uint32_t USB_ReadDevInEPInterrupt(const USB_OTG_GlobalTypeDef *USBx, uint8_t epnum)
1308:Drivers/STM32F4xx_HAL_Driver/Src/stm32f4xx_ll_usb.c **** {
1309:Drivers/STM32F4xx_HAL_Driver/Src/stm32f4xx_ll_usb.c ****   uint32_t USBx_BASE = (uint32_t)USBx;
1310:Drivers/STM32F4xx_HAL_Driver/Src/stm32f4xx_ll_usb.c ****   uint32_t tmpreg;
1311:Drivers/STM32F4xx_HAL_Driver/Src/stm32f4xx_ll_usb.c ****   uint32_t msk;
1312:Drivers/STM32F4xx_HAL_Driver/Src/stm32f4xx_ll_usb.c ****   uint32_t emp;
1313:Drivers/STM32F4xx_HAL_Driver/Src/stm32f4xx_ll_usb.c **** 
1314:Drivers/STM32F4xx_HAL_Driver/Src/stm32f4xx_ll_usb.c ****   msk = USBx_DEVICE->DIEPMSK;
1315:Drivers/STM32F4xx_HAL_Driver/Src/stm32f4xx_ll_usb.c ****   emp = USBx_DEVICE->DIEPEMPMSK;
1316:Drivers/STM32F4xx_HAL_Driver/Src/stm32f4xx_ll_usb.c ****   msk |= ((emp >> (epnum & EP_ADDR_MSK)) & 0x1U) << 7;
1317:Drivers/STM32F4xx_HAL_Driver/Src/stm32f4xx_ll_usb.c ****   tmpreg = USBx_INEP((uint32_t)epnum)->DIEPINT & msk;
1318:Drivers/STM32F4xx_HAL_Driver/Src/stm32f4xx_ll_usb.c **** 
1319:Drivers/STM32F4xx_HAL_Driver/Src/stm32f4xx_ll_usb.c ****   return tmpreg;
1320:Drivers/STM32F4xx_HAL_Driver/Src/stm32f4xx_ll_usb.c **** }
1321:Drivers/STM32F4xx_HAL_Driver/Src/stm32f4xx_ll_usb.c **** 
1322:Drivers/STM32F4xx_HAL_Driver/Src/stm32f4xx_ll_usb.c **** /**
1323:Drivers/STM32F4xx_HAL_Driver/Src/stm32f4xx_ll_usb.c ****   * @brief  USB_ClearInterrupts: clear a USB interrupt
1324:Drivers/STM32F4xx_HAL_Driver/Src/stm32f4xx_ll_usb.c ****   * @param  USBx  Selected device
1325:Drivers/STM32F4xx_HAL_Driver/Src/stm32f4xx_ll_usb.c ****   * @param  interrupt  flag
1326:Drivers/STM32F4xx_HAL_Driver/Src/stm32f4xx_ll_usb.c ****   * @retval None
1327:Drivers/STM32F4xx_HAL_Driver/Src/stm32f4xx_ll_usb.c ****   */
1328:Drivers/STM32F4xx_HAL_Driver/Src/stm32f4xx_ll_usb.c **** void  USB_ClearInterrupts(USB_OTG_GlobalTypeDef *USBx, uint32_t interrupt)
1329:Drivers/STM32F4xx_HAL_Driver/Src/stm32f4xx_ll_usb.c **** {
1330:Drivers/STM32F4xx_HAL_Driver/Src/stm32f4xx_ll_usb.c ****   USBx->GINTSTS &= interrupt;
1331:Drivers/STM32F4xx_HAL_Driver/Src/stm32f4xx_ll_usb.c **** }
1332:Drivers/STM32F4xx_HAL_Driver/Src/stm32f4xx_ll_usb.c **** 
1333:Drivers/STM32F4xx_HAL_Driver/Src/stm32f4xx_ll_usb.c **** /**
1334:Drivers/STM32F4xx_HAL_Driver/Src/stm32f4xx_ll_usb.c ****   * @brief  Returns USB core mode
1335:Drivers/STM32F4xx_HAL_Driver/Src/stm32f4xx_ll_usb.c ****   * @param  USBx  Selected device
1336:Drivers/STM32F4xx_HAL_Driver/Src/stm32f4xx_ll_usb.c ****   * @retval return core mode : Host or Device
1337:Drivers/STM32F4xx_HAL_Driver/Src/stm32f4xx_ll_usb.c ****   *          This parameter can be one of these values:
1338:Drivers/STM32F4xx_HAL_Driver/Src/stm32f4xx_ll_usb.c ****   *           0 : Host
1339:Drivers/STM32F4xx_HAL_Driver/Src/stm32f4xx_ll_usb.c ****   *           1 : Device
1340:Drivers/STM32F4xx_HAL_Driver/Src/stm32f4xx_ll_usb.c ****   */
1341:Drivers/STM32F4xx_HAL_Driver/Src/stm32f4xx_ll_usb.c **** uint32_t USB_GetMode(const USB_OTG_GlobalTypeDef *USBx)
ARM GAS  C:\Users\marci\AppData\Local\Temp\ccNtE0Aw.s 			page 25


1342:Drivers/STM32F4xx_HAL_Driver/Src/stm32f4xx_ll_usb.c **** {
1343:Drivers/STM32F4xx_HAL_Driver/Src/stm32f4xx_ll_usb.c ****   return ((USBx->GINTSTS) & 0x1U);
1344:Drivers/STM32F4xx_HAL_Driver/Src/stm32f4xx_ll_usb.c **** }
1345:Drivers/STM32F4xx_HAL_Driver/Src/stm32f4xx_ll_usb.c **** 
1346:Drivers/STM32F4xx_HAL_Driver/Src/stm32f4xx_ll_usb.c **** /**
1347:Drivers/STM32F4xx_HAL_Driver/Src/stm32f4xx_ll_usb.c ****   * @brief  Activate EP0 for Setup transactions
1348:Drivers/STM32F4xx_HAL_Driver/Src/stm32f4xx_ll_usb.c ****   * @param  USBx  Selected device
1349:Drivers/STM32F4xx_HAL_Driver/Src/stm32f4xx_ll_usb.c ****   * @retval HAL status
1350:Drivers/STM32F4xx_HAL_Driver/Src/stm32f4xx_ll_usb.c ****   */
1351:Drivers/STM32F4xx_HAL_Driver/Src/stm32f4xx_ll_usb.c **** HAL_StatusTypeDef USB_ActivateSetup(const USB_OTG_GlobalTypeDef *USBx)
1352:Drivers/STM32F4xx_HAL_Driver/Src/stm32f4xx_ll_usb.c **** {
1353:Drivers/STM32F4xx_HAL_Driver/Src/stm32f4xx_ll_usb.c ****   uint32_t USBx_BASE = (uint32_t)USBx;
1354:Drivers/STM32F4xx_HAL_Driver/Src/stm32f4xx_ll_usb.c **** 
1355:Drivers/STM32F4xx_HAL_Driver/Src/stm32f4xx_ll_usb.c ****   /* Set the MPS of the IN EP0 to 64 bytes */
1356:Drivers/STM32F4xx_HAL_Driver/Src/stm32f4xx_ll_usb.c ****   USBx_INEP(0U)->DIEPCTL &= ~USB_OTG_DIEPCTL_MPSIZ;
1357:Drivers/STM32F4xx_HAL_Driver/Src/stm32f4xx_ll_usb.c **** 
1358:Drivers/STM32F4xx_HAL_Driver/Src/stm32f4xx_ll_usb.c ****   USBx_DEVICE->DCTL |= USB_OTG_DCTL_CGINAK;
1359:Drivers/STM32F4xx_HAL_Driver/Src/stm32f4xx_ll_usb.c **** 
1360:Drivers/STM32F4xx_HAL_Driver/Src/stm32f4xx_ll_usb.c ****   return HAL_OK;
1361:Drivers/STM32F4xx_HAL_Driver/Src/stm32f4xx_ll_usb.c **** }
1362:Drivers/STM32F4xx_HAL_Driver/Src/stm32f4xx_ll_usb.c **** 
1363:Drivers/STM32F4xx_HAL_Driver/Src/stm32f4xx_ll_usb.c **** /**
1364:Drivers/STM32F4xx_HAL_Driver/Src/stm32f4xx_ll_usb.c ****   * @brief  Prepare the EP0 to start the first control setup
1365:Drivers/STM32F4xx_HAL_Driver/Src/stm32f4xx_ll_usb.c ****   * @param  USBx  Selected device
1366:Drivers/STM32F4xx_HAL_Driver/Src/stm32f4xx_ll_usb.c ****   * @param  dma USB dma enabled or disabled
1367:Drivers/STM32F4xx_HAL_Driver/Src/stm32f4xx_ll_usb.c ****   *          This parameter can be one of these values:
1368:Drivers/STM32F4xx_HAL_Driver/Src/stm32f4xx_ll_usb.c ****   *           0 : DMA feature not used
1369:Drivers/STM32F4xx_HAL_Driver/Src/stm32f4xx_ll_usb.c ****   *           1 : DMA feature used
1370:Drivers/STM32F4xx_HAL_Driver/Src/stm32f4xx_ll_usb.c ****   * @param  psetup  pointer to setup packet
1371:Drivers/STM32F4xx_HAL_Driver/Src/stm32f4xx_ll_usb.c ****   * @retval HAL status
1372:Drivers/STM32F4xx_HAL_Driver/Src/stm32f4xx_ll_usb.c ****   */
1373:Drivers/STM32F4xx_HAL_Driver/Src/stm32f4xx_ll_usb.c **** HAL_StatusTypeDef USB_EP0_OutStart(const USB_OTG_GlobalTypeDef *USBx, uint8_t dma, const uint8_t *p
1374:Drivers/STM32F4xx_HAL_Driver/Src/stm32f4xx_ll_usb.c **** {
1375:Drivers/STM32F4xx_HAL_Driver/Src/stm32f4xx_ll_usb.c ****   uint32_t USBx_BASE = (uint32_t)USBx;
1376:Drivers/STM32F4xx_HAL_Driver/Src/stm32f4xx_ll_usb.c ****   uint32_t gSNPSiD = *(__IO const uint32_t *)(&USBx->CID + 0x1U);
1377:Drivers/STM32F4xx_HAL_Driver/Src/stm32f4xx_ll_usb.c **** 
1378:Drivers/STM32F4xx_HAL_Driver/Src/stm32f4xx_ll_usb.c ****   if (gSNPSiD > USB_OTG_CORE_ID_300A)
1379:Drivers/STM32F4xx_HAL_Driver/Src/stm32f4xx_ll_usb.c ****   {
1380:Drivers/STM32F4xx_HAL_Driver/Src/stm32f4xx_ll_usb.c ****     if ((USBx_OUTEP(0U)->DOEPCTL & USB_OTG_DOEPCTL_EPENA) == USB_OTG_DOEPCTL_EPENA)
1381:Drivers/STM32F4xx_HAL_Driver/Src/stm32f4xx_ll_usb.c ****     {
1382:Drivers/STM32F4xx_HAL_Driver/Src/stm32f4xx_ll_usb.c ****       return HAL_OK;
1383:Drivers/STM32F4xx_HAL_Driver/Src/stm32f4xx_ll_usb.c ****     }
1384:Drivers/STM32F4xx_HAL_Driver/Src/stm32f4xx_ll_usb.c ****   }
1385:Drivers/STM32F4xx_HAL_Driver/Src/stm32f4xx_ll_usb.c **** 
1386:Drivers/STM32F4xx_HAL_Driver/Src/stm32f4xx_ll_usb.c ****   USBx_OUTEP(0U)->DOEPTSIZ = 0U;
1387:Drivers/STM32F4xx_HAL_Driver/Src/stm32f4xx_ll_usb.c ****   USBx_OUTEP(0U)->DOEPTSIZ |= (USB_OTG_DOEPTSIZ_PKTCNT & (1U << 19));
1388:Drivers/STM32F4xx_HAL_Driver/Src/stm32f4xx_ll_usb.c ****   USBx_OUTEP(0U)->DOEPTSIZ |= (3U * 8U);
1389:Drivers/STM32F4xx_HAL_Driver/Src/stm32f4xx_ll_usb.c ****   USBx_OUTEP(0U)->DOEPTSIZ |=  USB_OTG_DOEPTSIZ_STUPCNT;
1390:Drivers/STM32F4xx_HAL_Driver/Src/stm32f4xx_ll_usb.c **** 
1391:Drivers/STM32F4xx_HAL_Driver/Src/stm32f4xx_ll_usb.c ****   if (dma == 1U)
1392:Drivers/STM32F4xx_HAL_Driver/Src/stm32f4xx_ll_usb.c ****   {
1393:Drivers/STM32F4xx_HAL_Driver/Src/stm32f4xx_ll_usb.c ****     USBx_OUTEP(0U)->DOEPDMA = (uint32_t)psetup;
1394:Drivers/STM32F4xx_HAL_Driver/Src/stm32f4xx_ll_usb.c ****     /* EP enable */
1395:Drivers/STM32F4xx_HAL_Driver/Src/stm32f4xx_ll_usb.c ****     USBx_OUTEP(0U)->DOEPCTL |= USB_OTG_DOEPCTL_EPENA | USB_OTG_DOEPCTL_USBAEP;
1396:Drivers/STM32F4xx_HAL_Driver/Src/stm32f4xx_ll_usb.c ****   }
1397:Drivers/STM32F4xx_HAL_Driver/Src/stm32f4xx_ll_usb.c **** 
1398:Drivers/STM32F4xx_HAL_Driver/Src/stm32f4xx_ll_usb.c ****   return HAL_OK;
ARM GAS  C:\Users\marci\AppData\Local\Temp\ccNtE0Aw.s 			page 26


1399:Drivers/STM32F4xx_HAL_Driver/Src/stm32f4xx_ll_usb.c **** }
1400:Drivers/STM32F4xx_HAL_Driver/Src/stm32f4xx_ll_usb.c **** 
1401:Drivers/STM32F4xx_HAL_Driver/Src/stm32f4xx_ll_usb.c **** /**
1402:Drivers/STM32F4xx_HAL_Driver/Src/stm32f4xx_ll_usb.c ****   * @brief  Reset the USB Core (needed after USB clock settings change)
1403:Drivers/STM32F4xx_HAL_Driver/Src/stm32f4xx_ll_usb.c ****   * @param  USBx  Selected device
1404:Drivers/STM32F4xx_HAL_Driver/Src/stm32f4xx_ll_usb.c ****   * @retval HAL status
1405:Drivers/STM32F4xx_HAL_Driver/Src/stm32f4xx_ll_usb.c ****   */
1406:Drivers/STM32F4xx_HAL_Driver/Src/stm32f4xx_ll_usb.c **** static HAL_StatusTypeDef USB_CoreReset(USB_OTG_GlobalTypeDef *USBx)
1407:Drivers/STM32F4xx_HAL_Driver/Src/stm32f4xx_ll_usb.c **** {
  29              		.loc 1 1407 1 view -0
  30              		.cfi_startproc
  31              		@ args = 0, pretend = 0, frame = 8
  32              		@ frame_needed = 0, uses_anonymous_args = 0
  33              		@ link register save eliminated.
  34              		.loc 1 1407 1 is_stmt 0 view .LVU1
  35 0000 82B0     		sub	sp, sp, #8
  36              	.LCFI0:
  37              		.cfi_def_cfa_offset 8
1408:Drivers/STM32F4xx_HAL_Driver/Src/stm32f4xx_ll_usb.c ****   __IO uint32_t count = 0U;
  38              		.loc 1 1408 3 is_stmt 1 view .LVU2
  39              		.loc 1 1408 17 is_stmt 0 view .LVU3
  40 0002 0023     		movs	r3, #0
  41 0004 0193     		str	r3, [sp, #4]
  42              	.L3:
1409:Drivers/STM32F4xx_HAL_Driver/Src/stm32f4xx_ll_usb.c **** 
1410:Drivers/STM32F4xx_HAL_Driver/Src/stm32f4xx_ll_usb.c ****   /* Wait for AHB master IDLE state. */
1411:Drivers/STM32F4xx_HAL_Driver/Src/stm32f4xx_ll_usb.c ****   do
  43              		.loc 1 1411 3 is_stmt 1 view .LVU4
1412:Drivers/STM32F4xx_HAL_Driver/Src/stm32f4xx_ll_usb.c ****   {
1413:Drivers/STM32F4xx_HAL_Driver/Src/stm32f4xx_ll_usb.c ****     count++;
  44              		.loc 1 1413 5 view .LVU5
  45              		.loc 1 1413 10 is_stmt 0 view .LVU6
  46 0006 019B     		ldr	r3, [sp, #4]
  47 0008 0133     		adds	r3, r3, #1
  48 000a 0193     		str	r3, [sp, #4]
1414:Drivers/STM32F4xx_HAL_Driver/Src/stm32f4xx_ll_usb.c **** 
1415:Drivers/STM32F4xx_HAL_Driver/Src/stm32f4xx_ll_usb.c ****     if (count > HAL_USB_TIMEOUT)
  49              		.loc 1 1415 5 is_stmt 1 view .LVU7
  50              		.loc 1 1415 15 is_stmt 0 view .LVU8
  51 000c 019B     		ldr	r3, [sp, #4]
  52              		.loc 1 1415 8 view .LVU9
  53 000e B3F1706F 		cmp	r3, #251658240
  54 0012 15D8     		bhi	.L5
1416:Drivers/STM32F4xx_HAL_Driver/Src/stm32f4xx_ll_usb.c ****     {
1417:Drivers/STM32F4xx_HAL_Driver/Src/stm32f4xx_ll_usb.c ****       return HAL_TIMEOUT;
1418:Drivers/STM32F4xx_HAL_Driver/Src/stm32f4xx_ll_usb.c ****     }
1419:Drivers/STM32F4xx_HAL_Driver/Src/stm32f4xx_ll_usb.c ****   } while ((USBx->GRSTCTL & USB_OTG_GRSTCTL_AHBIDL) == 0U);
  55              		.loc 1 1419 53 is_stmt 1 view .LVU10
  56              		.loc 1 1419 17 is_stmt 0 view .LVU11
  57 0014 0369     		ldr	r3, [r0, #16]
  58              		.loc 1 1419 53 view .LVU12
  59 0016 002B     		cmp	r3, #0
  60 0018 F5DA     		bge	.L3
1420:Drivers/STM32F4xx_HAL_Driver/Src/stm32f4xx_ll_usb.c **** 
1421:Drivers/STM32F4xx_HAL_Driver/Src/stm32f4xx_ll_usb.c ****   /* Core Soft Reset */
1422:Drivers/STM32F4xx_HAL_Driver/Src/stm32f4xx_ll_usb.c ****   count = 0U;
  61              		.loc 1 1422 3 is_stmt 1 view .LVU13
ARM GAS  C:\Users\marci\AppData\Local\Temp\ccNtE0Aw.s 			page 27


  62              		.loc 1 1422 9 is_stmt 0 view .LVU14
  63 001a 0023     		movs	r3, #0
  64 001c 0193     		str	r3, [sp, #4]
1423:Drivers/STM32F4xx_HAL_Driver/Src/stm32f4xx_ll_usb.c ****   USBx->GRSTCTL |= USB_OTG_GRSTCTL_CSRST;
  65              		.loc 1 1423 3 is_stmt 1 view .LVU15
  66              		.loc 1 1423 7 is_stmt 0 view .LVU16
  67 001e 0369     		ldr	r3, [r0, #16]
  68              		.loc 1 1423 17 view .LVU17
  69 0020 43F00103 		orr	r3, r3, #1
  70 0024 0361     		str	r3, [r0, #16]
  71              	.L4:
1424:Drivers/STM32F4xx_HAL_Driver/Src/stm32f4xx_ll_usb.c **** 
1425:Drivers/STM32F4xx_HAL_Driver/Src/stm32f4xx_ll_usb.c ****   do
  72              		.loc 1 1425 3 is_stmt 1 view .LVU18
1426:Drivers/STM32F4xx_HAL_Driver/Src/stm32f4xx_ll_usb.c ****   {
1427:Drivers/STM32F4xx_HAL_Driver/Src/stm32f4xx_ll_usb.c ****     count++;
  73              		.loc 1 1427 5 view .LVU19
  74              		.loc 1 1427 10 is_stmt 0 view .LVU20
  75 0026 019B     		ldr	r3, [sp, #4]
  76 0028 0133     		adds	r3, r3, #1
  77 002a 0193     		str	r3, [sp, #4]
1428:Drivers/STM32F4xx_HAL_Driver/Src/stm32f4xx_ll_usb.c **** 
1429:Drivers/STM32F4xx_HAL_Driver/Src/stm32f4xx_ll_usb.c ****     if (count > HAL_USB_TIMEOUT)
  78              		.loc 1 1429 5 is_stmt 1 view .LVU21
  79              		.loc 1 1429 15 is_stmt 0 view .LVU22
  80 002c 019B     		ldr	r3, [sp, #4]
  81              		.loc 1 1429 8 view .LVU23
  82 002e B3F1706F 		cmp	r3, #251658240
  83 0032 08D8     		bhi	.L6
1430:Drivers/STM32F4xx_HAL_Driver/Src/stm32f4xx_ll_usb.c ****     {
1431:Drivers/STM32F4xx_HAL_Driver/Src/stm32f4xx_ll_usb.c ****       return HAL_TIMEOUT;
1432:Drivers/STM32F4xx_HAL_Driver/Src/stm32f4xx_ll_usb.c ****     }
1433:Drivers/STM32F4xx_HAL_Driver/Src/stm32f4xx_ll_usb.c ****   } while ((USBx->GRSTCTL & USB_OTG_GRSTCTL_CSRST) == USB_OTG_GRSTCTL_CSRST);
  84              		.loc 1 1433 52 is_stmt 1 view .LVU24
  85              		.loc 1 1433 17 is_stmt 0 view .LVU25
  86 0034 0369     		ldr	r3, [r0, #16]
  87              		.loc 1 1433 52 view .LVU26
  88 0036 13F0010F 		tst	r3, #1
  89 003a F4D1     		bne	.L4
1434:Drivers/STM32F4xx_HAL_Driver/Src/stm32f4xx_ll_usb.c **** 
1435:Drivers/STM32F4xx_HAL_Driver/Src/stm32f4xx_ll_usb.c ****   return HAL_OK;
  90              		.loc 1 1435 10 view .LVU27
  91 003c 0020     		movs	r0, #0
  92              	.LVL1:
  93              		.loc 1 1435 10 view .LVU28
  94 003e 00E0     		b	.L2
  95              	.LVL2:
  96              	.L5:
1417:Drivers/STM32F4xx_HAL_Driver/Src/stm32f4xx_ll_usb.c ****     }
  97              		.loc 1 1417 14 view .LVU29
  98 0040 0320     		movs	r0, #3
  99              	.LVL3:
 100              	.L2:
1436:Drivers/STM32F4xx_HAL_Driver/Src/stm32f4xx_ll_usb.c **** }
 101              		.loc 1 1436 1 view .LVU30
 102 0042 02B0     		add	sp, sp, #8
 103              	.LCFI1:
ARM GAS  C:\Users\marci\AppData\Local\Temp\ccNtE0Aw.s 			page 28


 104              		.cfi_remember_state
 105              		.cfi_def_cfa_offset 0
 106              		@ sp needed
 107 0044 7047     		bx	lr
 108              	.LVL4:
 109              	.L6:
 110              	.LCFI2:
 111              		.cfi_restore_state
1431:Drivers/STM32F4xx_HAL_Driver/Src/stm32f4xx_ll_usb.c ****     }
 112              		.loc 1 1431 14 view .LVU31
 113 0046 0320     		movs	r0, #3
 114              	.LVL5:
1431:Drivers/STM32F4xx_HAL_Driver/Src/stm32f4xx_ll_usb.c ****     }
 115              		.loc 1 1431 14 view .LVU32
 116 0048 FBE7     		b	.L2
 117              		.cfi_endproc
 118              	.LFE168:
 120              		.section	.text.USB_CoreInit,"ax",%progbits
 121              		.align	1
 122              		.global	USB_CoreInit
 123              		.syntax unified
 124              		.thumb
 125              		.thumb_func
 127              	USB_CoreInit:
 128              	.LVL6:
 129              	.LFB134:
  84:Drivers/STM32F4xx_HAL_Driver/Src/stm32f4xx_ll_usb.c ****   HAL_StatusTypeDef ret;
 130              		.loc 1 84 1 is_stmt 1 view -0
 131              		.cfi_startproc
 132              		@ args = 20, pretend = 16, frame = 0
 133              		@ frame_needed = 0, uses_anonymous_args = 0
  84:Drivers/STM32F4xx_HAL_Driver/Src/stm32f4xx_ll_usb.c ****   HAL_StatusTypeDef ret;
 134              		.loc 1 84 1 is_stmt 0 view .LVU34
 135 0000 84B0     		sub	sp, sp, #16
 136              	.LCFI3:
 137              		.cfi_def_cfa_offset 16
 138 0002 10B5     		push	{r4, lr}
 139              	.LCFI4:
 140              		.cfi_def_cfa_offset 24
 141              		.cfi_offset 4, -24
 142              		.cfi_offset 14, -20
 143 0004 0446     		mov	r4, r0
 144 0006 03A8     		add	r0, sp, #12
 145              	.LVL7:
  84:Drivers/STM32F4xx_HAL_Driver/Src/stm32f4xx_ll_usb.c ****   HAL_StatusTypeDef ret;
 146              		.loc 1 84 1 view .LVU35
 147 0008 80E80E00 		stm	r0, {r1, r2, r3}
  85:Drivers/STM32F4xx_HAL_Driver/Src/stm32f4xx_ll_usb.c ****   if (cfg.phy_itface == USB_OTG_ULPI_PHY)
 148              		.loc 1 85 3 is_stmt 1 view .LVU36
  86:Drivers/STM32F4xx_HAL_Driver/Src/stm32f4xx_ll_usb.c ****   {
 149              		.loc 1 86 3 view .LVU37
  86:Drivers/STM32F4xx_HAL_Driver/Src/stm32f4xx_ll_usb.c ****   {
 150              		.loc 1 86 10 is_stmt 0 view .LVU38
 151 000c 9DF81130 		ldrb	r3, [sp, #17]	@ zero_extendqisi2
  86:Drivers/STM32F4xx_HAL_Driver/Src/stm32f4xx_ll_usb.c ****   {
 152              		.loc 1 86 6 view .LVU39
 153 0010 012B     		cmp	r3, #1
ARM GAS  C:\Users\marci\AppData\Local\Temp\ccNtE0Aw.s 			page 29


 154 0012 21D1     		bne	.L9
  88:Drivers/STM32F4xx_HAL_Driver/Src/stm32f4xx_ll_usb.c **** 
 155              		.loc 1 88 5 is_stmt 1 view .LVU40
  88:Drivers/STM32F4xx_HAL_Driver/Src/stm32f4xx_ll_usb.c **** 
 156              		.loc 1 88 9 is_stmt 0 view .LVU41
 157 0014 A36B     		ldr	r3, [r4, #56]
  88:Drivers/STM32F4xx_HAL_Driver/Src/stm32f4xx_ll_usb.c **** 
 158              		.loc 1 88 17 view .LVU42
 159 0016 23F48033 		bic	r3, r3, #65536
 160 001a A363     		str	r3, [r4, #56]
  91:Drivers/STM32F4xx_HAL_Driver/Src/stm32f4xx_ll_usb.c **** 
 161              		.loc 1 91 5 is_stmt 1 view .LVU43
  91:Drivers/STM32F4xx_HAL_Driver/Src/stm32f4xx_ll_usb.c **** 
 162              		.loc 1 91 9 is_stmt 0 view .LVU44
 163 001c E368     		ldr	r3, [r4, #12]
  91:Drivers/STM32F4xx_HAL_Driver/Src/stm32f4xx_ll_usb.c **** 
 164              		.loc 1 91 19 view .LVU45
 165 001e 23F48403 		bic	r3, r3, #4325376
 166 0022 23F04003 		bic	r3, r3, #64
 167 0026 E360     		str	r3, [r4, #12]
  94:Drivers/STM32F4xx_HAL_Driver/Src/stm32f4xx_ll_usb.c ****     if (cfg.use_external_vbus == 1U)
 168              		.loc 1 94 5 is_stmt 1 view .LVU46
  94:Drivers/STM32F4xx_HAL_Driver/Src/stm32f4xx_ll_usb.c ****     if (cfg.use_external_vbus == 1U)
 169              		.loc 1 94 9 is_stmt 0 view .LVU47
 170 0028 E368     		ldr	r3, [r4, #12]
  94:Drivers/STM32F4xx_HAL_Driver/Src/stm32f4xx_ll_usb.c ****     if (cfg.use_external_vbus == 1U)
 171              		.loc 1 94 19 view .LVU48
 172 002a 23F44013 		bic	r3, r3, #3145728
 173 002e E360     		str	r3, [r4, #12]
  95:Drivers/STM32F4xx_HAL_Driver/Src/stm32f4xx_ll_usb.c ****     {
 174              		.loc 1 95 5 is_stmt 1 view .LVU49
  95:Drivers/STM32F4xx_HAL_Driver/Src/stm32f4xx_ll_usb.c ****     {
 175              		.loc 1 95 12 is_stmt 0 view .LVU50
 176 0030 9DF81830 		ldrb	r3, [sp, #24]	@ zero_extendqisi2
  95:Drivers/STM32F4xx_HAL_Driver/Src/stm32f4xx_ll_usb.c ****     {
 177              		.loc 1 95 8 view .LVU51
 178 0034 012B     		cmp	r3, #1
 179 0036 0AD0     		beq	.L15
 180              	.L10:
 101:Drivers/STM32F4xx_HAL_Driver/Src/stm32f4xx_ll_usb.c ****   }
 181              		.loc 1 101 5 is_stmt 1 view .LVU52
 101:Drivers/STM32F4xx_HAL_Driver/Src/stm32f4xx_ll_usb.c ****   }
 182              		.loc 1 101 11 is_stmt 0 view .LVU53
 183 0038 2046     		mov	r0, r4
 184 003a FFF7FEFF 		bl	USB_CoreReset
 185              	.LVL8:
 186              	.L11:
 123:Drivers/STM32F4xx_HAL_Driver/Src/stm32f4xx_ll_usb.c ****   {
 187              		.loc 1 123 3 is_stmt 1 view .LVU54
 123:Drivers/STM32F4xx_HAL_Driver/Src/stm32f4xx_ll_usb.c ****   {
 188              		.loc 1 123 10 is_stmt 0 view .LVU55
 189 003e 9DF80E30 		ldrb	r3, [sp, #14]	@ zero_extendqisi2
 123:Drivers/STM32F4xx_HAL_Driver/Src/stm32f4xx_ll_usb.c ****   {
 190              		.loc 1 123 6 view .LVU56
 191 0042 012B     		cmp	r3, #1
 192 0044 1CD0     		beq	.L16
 193              	.L13:
ARM GAS  C:\Users\marci\AppData\Local\Temp\ccNtE0Aw.s 			page 30


 129:Drivers/STM32F4xx_HAL_Driver/Src/stm32f4xx_ll_usb.c **** }
 194              		.loc 1 129 3 is_stmt 1 view .LVU57
 130:Drivers/STM32F4xx_HAL_Driver/Src/stm32f4xx_ll_usb.c **** 
 195              		.loc 1 130 1 is_stmt 0 view .LVU58
 196 0046 BDE81040 		pop	{r4, lr}
 197              	.LCFI5:
 198              		.cfi_remember_state
 199              		.cfi_restore 14
 200              		.cfi_restore 4
 201              		.cfi_def_cfa_offset 16
 202              	.LVL9:
 130:Drivers/STM32F4xx_HAL_Driver/Src/stm32f4xx_ll_usb.c **** 
 203              		.loc 1 130 1 view .LVU59
 204 004a 04B0     		add	sp, sp, #16
 205              	.LCFI6:
 206              		.cfi_def_cfa_offset 0
 207 004c 7047     		bx	lr
 208              	.LVL10:
 209              	.L15:
 210              	.LCFI7:
 211              		.cfi_restore_state
  97:Drivers/STM32F4xx_HAL_Driver/Src/stm32f4xx_ll_usb.c ****     }
 212              		.loc 1 97 7 is_stmt 1 view .LVU60
  97:Drivers/STM32F4xx_HAL_Driver/Src/stm32f4xx_ll_usb.c ****     }
 213              		.loc 1 97 11 is_stmt 0 view .LVU61
 214 004e E368     		ldr	r3, [r4, #12]
  97:Drivers/STM32F4xx_HAL_Driver/Src/stm32f4xx_ll_usb.c ****     }
 215              		.loc 1 97 21 view .LVU62
 216 0050 43F48013 		orr	r3, r3, #1048576
 217 0054 E360     		str	r3, [r4, #12]
 218 0056 EFE7     		b	.L10
 219              	.L9:
 106:Drivers/STM32F4xx_HAL_Driver/Src/stm32f4xx_ll_usb.c **** 
 220              		.loc 1 106 5 is_stmt 1 view .LVU63
 106:Drivers/STM32F4xx_HAL_Driver/Src/stm32f4xx_ll_usb.c **** 
 221              		.loc 1 106 9 is_stmt 0 view .LVU64
 222 0058 E368     		ldr	r3, [r4, #12]
 106:Drivers/STM32F4xx_HAL_Driver/Src/stm32f4xx_ll_usb.c **** 
 223              		.loc 1 106 19 view .LVU65
 224 005a 43F04003 		orr	r3, r3, #64
 225 005e E360     		str	r3, [r4, #12]
 109:Drivers/STM32F4xx_HAL_Driver/Src/stm32f4xx_ll_usb.c **** 
 226              		.loc 1 109 5 is_stmt 1 view .LVU66
 109:Drivers/STM32F4xx_HAL_Driver/Src/stm32f4xx_ll_usb.c **** 
 227              		.loc 1 109 11 is_stmt 0 view .LVU67
 228 0060 2046     		mov	r0, r4
 229 0062 FFF7FEFF 		bl	USB_CoreReset
 230              	.LVL11:
 111:Drivers/STM32F4xx_HAL_Driver/Src/stm32f4xx_ll_usb.c ****     {
 231              		.loc 1 111 5 is_stmt 1 view .LVU68
 111:Drivers/STM32F4xx_HAL_Driver/Src/stm32f4xx_ll_usb.c ****     {
 232              		.loc 1 111 12 is_stmt 0 view .LVU69
 233 0066 9DF81530 		ldrb	r3, [sp, #21]	@ zero_extendqisi2
 111:Drivers/STM32F4xx_HAL_Driver/Src/stm32f4xx_ll_usb.c ****     {
 234              		.loc 1 111 8 view .LVU70
 235 006a 23B9     		cbnz	r3, .L12
 114:Drivers/STM32F4xx_HAL_Driver/Src/stm32f4xx_ll_usb.c ****     }
ARM GAS  C:\Users\marci\AppData\Local\Temp\ccNtE0Aw.s 			page 31


 236              		.loc 1 114 7 is_stmt 1 view .LVU71
 114:Drivers/STM32F4xx_HAL_Driver/Src/stm32f4xx_ll_usb.c ****     }
 237              		.loc 1 114 11 is_stmt 0 view .LVU72
 238 006c A36B     		ldr	r3, [r4, #56]
 114:Drivers/STM32F4xx_HAL_Driver/Src/stm32f4xx_ll_usb.c ****     }
 239              		.loc 1 114 19 view .LVU73
 240 006e 43F48033 		orr	r3, r3, #65536
 241 0072 A363     		str	r3, [r4, #56]
 242 0074 E3E7     		b	.L11
 243              	.L12:
 119:Drivers/STM32F4xx_HAL_Driver/Src/stm32f4xx_ll_usb.c ****     }
 244              		.loc 1 119 7 is_stmt 1 view .LVU74
 119:Drivers/STM32F4xx_HAL_Driver/Src/stm32f4xx_ll_usb.c ****     }
 245              		.loc 1 119 11 is_stmt 0 view .LVU75
 246 0076 A36B     		ldr	r3, [r4, #56]
 119:Drivers/STM32F4xx_HAL_Driver/Src/stm32f4xx_ll_usb.c ****     }
 247              		.loc 1 119 19 view .LVU76
 248 0078 23F48033 		bic	r3, r3, #65536
 249 007c A363     		str	r3, [r4, #56]
 250 007e DEE7     		b	.L11
 251              	.L16:
 125:Drivers/STM32F4xx_HAL_Driver/Src/stm32f4xx_ll_usb.c ****     USBx->GAHBCFG |= USB_OTG_GAHBCFG_DMAEN;
 252              		.loc 1 125 5 is_stmt 1 view .LVU77
 125:Drivers/STM32F4xx_HAL_Driver/Src/stm32f4xx_ll_usb.c ****     USBx->GAHBCFG |= USB_OTG_GAHBCFG_DMAEN;
 253              		.loc 1 125 9 is_stmt 0 view .LVU78
 254 0080 A368     		ldr	r3, [r4, #8]
 125:Drivers/STM32F4xx_HAL_Driver/Src/stm32f4xx_ll_usb.c ****     USBx->GAHBCFG |= USB_OTG_GAHBCFG_DMAEN;
 255              		.loc 1 125 19 view .LVU79
 256 0082 43F00603 		orr	r3, r3, #6
 257 0086 A360     		str	r3, [r4, #8]
 126:Drivers/STM32F4xx_HAL_Driver/Src/stm32f4xx_ll_usb.c ****   }
 258              		.loc 1 126 5 is_stmt 1 view .LVU80
 126:Drivers/STM32F4xx_HAL_Driver/Src/stm32f4xx_ll_usb.c ****   }
 259              		.loc 1 126 9 is_stmt 0 view .LVU81
 260 0088 A368     		ldr	r3, [r4, #8]
 126:Drivers/STM32F4xx_HAL_Driver/Src/stm32f4xx_ll_usb.c ****   }
 261              		.loc 1 126 19 view .LVU82
 262 008a 43F02003 		orr	r3, r3, #32
 263 008e A360     		str	r3, [r4, #8]
 264 0090 D9E7     		b	.L13
 265              		.cfi_endproc
 266              	.LFE134:
 268              		.section	.text.USB_SetTurnaroundTime,"ax",%progbits
 269              		.align	1
 270              		.global	USB_SetTurnaroundTime
 271              		.syntax unified
 272              		.thumb
 273              		.thumb_func
 275              	USB_SetTurnaroundTime:
 276              	.LVL12:
 277              	.LFB135:
 141:Drivers/STM32F4xx_HAL_Driver/Src/stm32f4xx_ll_usb.c ****   uint32_t UsbTrd;
 278              		.loc 1 141 1 is_stmt 1 view -0
 279              		.cfi_startproc
 280              		@ args = 0, pretend = 0, frame = 0
 281              		@ frame_needed = 0, uses_anonymous_args = 0
 282              		@ link register save eliminated.
ARM GAS  C:\Users\marci\AppData\Local\Temp\ccNtE0Aw.s 			page 32


 142:Drivers/STM32F4xx_HAL_Driver/Src/stm32f4xx_ll_usb.c **** 
 283              		.loc 1 142 3 view .LVU84
 148:Drivers/STM32F4xx_HAL_Driver/Src/stm32f4xx_ll_usb.c ****   {
 284              		.loc 1 148 3 view .LVU85
 148:Drivers/STM32F4xx_HAL_Driver/Src/stm32f4xx_ll_usb.c ****   {
 285              		.loc 1 148 6 is_stmt 0 view .LVU86
 286 0000 022A     		cmp	r2, #2
 287 0002 0AD0     		beq	.L29
 203:Drivers/STM32F4xx_HAL_Driver/Src/stm32f4xx_ll_usb.c ****   }
 288              		.loc 1 203 12 view .LVU87
 289 0004 0922     		movs	r2, #9
 290              	.LVL13:
 291              	.L18:
 210:Drivers/STM32F4xx_HAL_Driver/Src/stm32f4xx_ll_usb.c ****   USBx->GUSBCFG |= (uint32_t)((UsbTrd << 10) & USB_OTG_GUSBCFG_TRDT);
 292              		.loc 1 210 3 is_stmt 1 view .LVU88
 210:Drivers/STM32F4xx_HAL_Driver/Src/stm32f4xx_ll_usb.c ****   USBx->GUSBCFG |= (uint32_t)((UsbTrd << 10) & USB_OTG_GUSBCFG_TRDT);
 293              		.loc 1 210 7 is_stmt 0 view .LVU89
 294 0006 C368     		ldr	r3, [r0, #12]
 210:Drivers/STM32F4xx_HAL_Driver/Src/stm32f4xx_ll_usb.c ****   USBx->GUSBCFG |= (uint32_t)((UsbTrd << 10) & USB_OTG_GUSBCFG_TRDT);
 295              		.loc 1 210 17 view .LVU90
 296 0008 23F47053 		bic	r3, r3, #15360
 297 000c C360     		str	r3, [r0, #12]
 211:Drivers/STM32F4xx_HAL_Driver/Src/stm32f4xx_ll_usb.c **** 
 298              		.loc 1 211 3 is_stmt 1 view .LVU91
 211:Drivers/STM32F4xx_HAL_Driver/Src/stm32f4xx_ll_usb.c **** 
 299              		.loc 1 211 7 is_stmt 0 view .LVU92
 300 000e C368     		ldr	r3, [r0, #12]
 211:Drivers/STM32F4xx_HAL_Driver/Src/stm32f4xx_ll_usb.c **** 
 301              		.loc 1 211 17 view .LVU93
 302 0010 43EA8223 		orr	r3, r3, r2, lsl #10
 303 0014 C360     		str	r3, [r0, #12]
 213:Drivers/STM32F4xx_HAL_Driver/Src/stm32f4xx_ll_usb.c **** }
 304              		.loc 1 213 3 is_stmt 1 view .LVU94
 214:Drivers/STM32F4xx_HAL_Driver/Src/stm32f4xx_ll_usb.c **** 
 305              		.loc 1 214 1 is_stmt 0 view .LVU95
 306 0016 0020     		movs	r0, #0
 307              	.LVL14:
 214:Drivers/STM32F4xx_HAL_Driver/Src/stm32f4xx_ll_usb.c **** 
 308              		.loc 1 214 1 view .LVU96
 309 0018 7047     		bx	lr
 310              	.LVL15:
 311              	.L29:
 150:Drivers/STM32F4xx_HAL_Driver/Src/stm32f4xx_ll_usb.c ****     {
 312              		.loc 1 150 5 is_stmt 1 view .LVU97
 150:Drivers/STM32F4xx_HAL_Driver/Src/stm32f4xx_ll_usb.c ****     {
 313              		.loc 1 150 29 is_stmt 0 view .LVU98
 314 001a 234B     		ldr	r3, .L30
 315 001c 0B44     		add	r3, r3, r1
 150:Drivers/STM32F4xx_HAL_Driver/Src/stm32f4xx_ll_usb.c ****     {
 316              		.loc 1 150 8 view .LVU99
 317 001e 234A     		ldr	r2, .L30+4
 318              	.LVL16:
 150:Drivers/STM32F4xx_HAL_Driver/Src/stm32f4xx_ll_usb.c ****     {
 319              		.loc 1 150 8 view .LVU100
 320 0020 9342     		cmp	r3, r2
 321 0022 2FD9     		bls	.L20
 155:Drivers/STM32F4xx_HAL_Driver/Src/stm32f4xx_ll_usb.c ****     {
ARM GAS  C:\Users\marci\AppData\Local\Temp\ccNtE0Aw.s 			page 33


 322              		.loc 1 155 10 is_stmt 1 view .LVU101
 155:Drivers/STM32F4xx_HAL_Driver/Src/stm32f4xx_ll_usb.c ****     {
 323              		.loc 1 155 34 is_stmt 0 view .LVU102
 324 0024 224B     		ldr	r3, .L30+8
 325 0026 0B44     		add	r3, r3, r1
 155:Drivers/STM32F4xx_HAL_Driver/Src/stm32f4xx_ll_usb.c ****     {
 326              		.loc 1 155 13 view .LVU103
 327 0028 224A     		ldr	r2, .L30+12
 328 002a 9342     		cmp	r3, r2
 329 002c 2CD9     		bls	.L21
 160:Drivers/STM32F4xx_HAL_Driver/Src/stm32f4xx_ll_usb.c ****     {
 330              		.loc 1 160 10 is_stmt 1 view .LVU104
 160:Drivers/STM32F4xx_HAL_Driver/Src/stm32f4xx_ll_usb.c ****     {
 331              		.loc 1 160 34 is_stmt 0 view .LVU105
 332 002e A1F57403 		sub	r3, r1, #15990784
 333 0032 A3F51053 		sub	r3, r3, #9216
 160:Drivers/STM32F4xx_HAL_Driver/Src/stm32f4xx_ll_usb.c ****     {
 334              		.loc 1 160 13 view .LVU106
 335 0036 204A     		ldr	r2, .L30+16
 336 0038 9342     		cmp	r3, r2
 337 003a 27D9     		bls	.L22
 165:Drivers/STM32F4xx_HAL_Driver/Src/stm32f4xx_ll_usb.c ****     {
 338              		.loc 1 165 10 is_stmt 1 view .LVU107
 165:Drivers/STM32F4xx_HAL_Driver/Src/stm32f4xx_ll_usb.c ****     {
 339              		.loc 1 165 34 is_stmt 0 view .LVU108
 340 003c A1F18373 		sub	r3, r1, #17170432
 341 0040 A3F5E743 		sub	r3, r3, #29568
 165:Drivers/STM32F4xx_HAL_Driver/Src/stm32f4xx_ll_usb.c ****     {
 342              		.loc 1 165 13 view .LVU109
 343 0044 1D4A     		ldr	r2, .L30+20
 344 0046 9342     		cmp	r3, r2
 345 0048 22D3     		bcc	.L23
 170:Drivers/STM32F4xx_HAL_Driver/Src/stm32f4xx_ll_usb.c ****     {
 346              		.loc 1 170 10 is_stmt 1 view .LVU110
 170:Drivers/STM32F4xx_HAL_Driver/Src/stm32f4xx_ll_usb.c ****     {
 347              		.loc 1 170 34 is_stmt 0 view .LVU111
 348 004a 1D4B     		ldr	r3, .L30+24
 349 004c 0B44     		add	r3, r3, r1
 170:Drivers/STM32F4xx_HAL_Driver/Src/stm32f4xx_ll_usb.c ****     {
 350              		.loc 1 170 13 view .LVU112
 351 004e 1D4A     		ldr	r2, .L30+28
 352 0050 9342     		cmp	r3, r2
 353 0052 1FD9     		bls	.L24
 175:Drivers/STM32F4xx_HAL_Driver/Src/stm32f4xx_ll_usb.c ****     {
 354              		.loc 1 175 10 is_stmt 1 view .LVU113
 175:Drivers/STM32F4xx_HAL_Driver/Src/stm32f4xx_ll_usb.c ****     {
 355              		.loc 1 175 34 is_stmt 0 view .LVU114
 356 0054 1C4B     		ldr	r3, .L30+32
 357 0056 0B44     		add	r3, r3, r1
 175:Drivers/STM32F4xx_HAL_Driver/Src/stm32f4xx_ll_usb.c ****     {
 358              		.loc 1 175 13 view .LVU115
 359 0058 1C4A     		ldr	r2, .L30+36
 360 005a 9342     		cmp	r3, r2
 361 005c 1CD3     		bcc	.L25
 180:Drivers/STM32F4xx_HAL_Driver/Src/stm32f4xx_ll_usb.c ****     {
 362              		.loc 1 180 10 is_stmt 1 view .LVU116
 180:Drivers/STM32F4xx_HAL_Driver/Src/stm32f4xx_ll_usb.c ****     {
ARM GAS  C:\Users\marci\AppData\Local\Temp\ccNtE0Aw.s 			page 34


 363              		.loc 1 180 34 is_stmt 0 view .LVU117
 364 005e 1C4B     		ldr	r3, .L30+40
 365 0060 0B44     		add	r3, r3, r1
 180:Drivers/STM32F4xx_HAL_Driver/Src/stm32f4xx_ll_usb.c ****     {
 366              		.loc 1 180 13 view .LVU118
 367 0062 1C4A     		ldr	r2, .L30+44
 368 0064 9342     		cmp	r3, r2
 369 0066 19D3     		bcc	.L26
 185:Drivers/STM32F4xx_HAL_Driver/Src/stm32f4xx_ll_usb.c ****     {
 370              		.loc 1 185 10 is_stmt 1 view .LVU119
 185:Drivers/STM32F4xx_HAL_Driver/Src/stm32f4xx_ll_usb.c ****     {
 371              		.loc 1 185 34 is_stmt 0 view .LVU120
 372 0068 A1F1B773 		sub	r3, r1, #23986176
 373 006c A3F55853 		sub	r3, r3, #13824
 185:Drivers/STM32F4xx_HAL_Driver/Src/stm32f4xx_ll_usb.c ****     {
 374              		.loc 1 185 13 view .LVU121
 375 0070 194A     		ldr	r2, .L30+48
 376 0072 9342     		cmp	r3, r2
 377 0074 14D3     		bcc	.L27
 190:Drivers/STM32F4xx_HAL_Driver/Src/stm32f4xx_ll_usb.c ****     {
 378              		.loc 1 190 10 is_stmt 1 view .LVU122
 190:Drivers/STM32F4xx_HAL_Driver/Src/stm32f4xx_ll_usb.c ****     {
 379              		.loc 1 190 34 is_stmt 0 view .LVU123
 380 0076 194B     		ldr	r3, .L30+52
 381 0078 0B44     		add	r3, r3, r1
 190:Drivers/STM32F4xx_HAL_Driver/Src/stm32f4xx_ll_usb.c ****     {
 382              		.loc 1 190 13 view .LVU124
 383 007a 194A     		ldr	r2, .L30+56
 384 007c 9342     		cmp	r3, r2
 385 007e 11D2     		bcs	.L28
 193:Drivers/STM32F4xx_HAL_Driver/Src/stm32f4xx_ll_usb.c ****     }
 386              		.loc 1 193 14 view .LVU125
 387 0080 0722     		movs	r2, #7
 388 0082 C0E7     		b	.L18
 389              	.L20:
 153:Drivers/STM32F4xx_HAL_Driver/Src/stm32f4xx_ll_usb.c ****     }
 390              		.loc 1 153 14 view .LVU126
 391 0084 0F22     		movs	r2, #15
 392 0086 BEE7     		b	.L18
 393              	.L21:
 158:Drivers/STM32F4xx_HAL_Driver/Src/stm32f4xx_ll_usb.c ****     }
 394              		.loc 1 158 14 view .LVU127
 395 0088 0E22     		movs	r2, #14
 396 008a BCE7     		b	.L18
 397              	.L22:
 163:Drivers/STM32F4xx_HAL_Driver/Src/stm32f4xx_ll_usb.c ****     }
 398              		.loc 1 163 14 view .LVU128
 399 008c 0D22     		movs	r2, #13
 400 008e BAE7     		b	.L18
 401              	.L23:
 168:Drivers/STM32F4xx_HAL_Driver/Src/stm32f4xx_ll_usb.c ****     }
 402              		.loc 1 168 14 view .LVU129
 403 0090 0C22     		movs	r2, #12
 404 0092 B8E7     		b	.L18
 405              	.L24:
 173:Drivers/STM32F4xx_HAL_Driver/Src/stm32f4xx_ll_usb.c ****     }
 406              		.loc 1 173 14 view .LVU130
ARM GAS  C:\Users\marci\AppData\Local\Temp\ccNtE0Aw.s 			page 35


 407 0094 0B22     		movs	r2, #11
 408 0096 B6E7     		b	.L18
 409              	.L25:
 178:Drivers/STM32F4xx_HAL_Driver/Src/stm32f4xx_ll_usb.c ****     }
 410              		.loc 1 178 14 view .LVU131
 411 0098 0A22     		movs	r2, #10
 412 009a B4E7     		b	.L18
 413              	.L26:
 183:Drivers/STM32F4xx_HAL_Driver/Src/stm32f4xx_ll_usb.c ****     }
 414              		.loc 1 183 14 view .LVU132
 415 009c 0922     		movs	r2, #9
 416 009e B2E7     		b	.L18
 417              	.L27:
 188:Drivers/STM32F4xx_HAL_Driver/Src/stm32f4xx_ll_usb.c ****     }
 418              		.loc 1 188 14 view .LVU133
 419 00a0 0822     		movs	r2, #8
 420 00a2 B0E7     		b	.L18
 421              	.L28:
 198:Drivers/STM32F4xx_HAL_Driver/Src/stm32f4xx_ll_usb.c ****     }
 422              		.loc 1 198 14 view .LVU134
 423 00a4 0622     		movs	r2, #6
 424 00a6 AEE7     		b	.L18
 425              	.L31:
 426              		.align	2
 427              	.L30:
 428 00a8 405327FF 		.word	-14200000
 429 00ac FF340C00 		.word	799999
 430 00b0 401E1BFF 		.word	-15000000
 431 00b4 3F420F00 		.word	999999
 432 00b8 7F4F1200 		.word	1199999
 433 00bc 20D61300 		.word	1300000
 434 00c0 60B6E5FE 		.word	-18500000
 435 00c4 5FE31600 		.word	1499999
 436 00c8 00D3CEFE 		.word	-20000000
 437 00cc 40771B00 		.word	1800000
 438 00d0 C05BB3FE 		.word	-21800000
 439 00d4 C0912100 		.word	2200000
 440 00d8 20753800 		.word	3700000
 441 00dc E05459FE 		.word	-27700000
 442 00e0 E09C4100 		.word	4300000
 443              		.cfi_endproc
 444              	.LFE135:
 446              		.section	.text.USB_EnableGlobalInt,"ax",%progbits
 447              		.align	1
 448              		.global	USB_EnableGlobalInt
 449              		.syntax unified
 450              		.thumb
 451              		.thumb_func
 453              	USB_EnableGlobalInt:
 454              	.LVL17:
 455              	.LFB136:
 223:Drivers/STM32F4xx_HAL_Driver/Src/stm32f4xx_ll_usb.c ****   USBx->GAHBCFG |= USB_OTG_GAHBCFG_GINT;
 456              		.loc 1 223 1 is_stmt 1 view -0
 457              		.cfi_startproc
 458              		@ args = 0, pretend = 0, frame = 0
 459              		@ frame_needed = 0, uses_anonymous_args = 0
 460              		@ link register save eliminated.
ARM GAS  C:\Users\marci\AppData\Local\Temp\ccNtE0Aw.s 			page 36


 224:Drivers/STM32F4xx_HAL_Driver/Src/stm32f4xx_ll_usb.c ****   return HAL_OK;
 461              		.loc 1 224 3 view .LVU136
 224:Drivers/STM32F4xx_HAL_Driver/Src/stm32f4xx_ll_usb.c ****   return HAL_OK;
 462              		.loc 1 224 7 is_stmt 0 view .LVU137
 463 0000 8368     		ldr	r3, [r0, #8]
 224:Drivers/STM32F4xx_HAL_Driver/Src/stm32f4xx_ll_usb.c ****   return HAL_OK;
 464              		.loc 1 224 17 view .LVU138
 465 0002 43F00103 		orr	r3, r3, #1
 466 0006 8360     		str	r3, [r0, #8]
 225:Drivers/STM32F4xx_HAL_Driver/Src/stm32f4xx_ll_usb.c **** }
 467              		.loc 1 225 3 is_stmt 1 view .LVU139
 226:Drivers/STM32F4xx_HAL_Driver/Src/stm32f4xx_ll_usb.c **** 
 468              		.loc 1 226 1 is_stmt 0 view .LVU140
 469 0008 0020     		movs	r0, #0
 470              	.LVL18:
 226:Drivers/STM32F4xx_HAL_Driver/Src/stm32f4xx_ll_usb.c **** 
 471              		.loc 1 226 1 view .LVU141
 472 000a 7047     		bx	lr
 473              		.cfi_endproc
 474              	.LFE136:
 476              		.section	.text.USB_DisableGlobalInt,"ax",%progbits
 477              		.align	1
 478              		.global	USB_DisableGlobalInt
 479              		.syntax unified
 480              		.thumb
 481              		.thumb_func
 483              	USB_DisableGlobalInt:
 484              	.LVL19:
 485              	.LFB137:
 235:Drivers/STM32F4xx_HAL_Driver/Src/stm32f4xx_ll_usb.c ****   USBx->GAHBCFG &= ~USB_OTG_GAHBCFG_GINT;
 486              		.loc 1 235 1 is_stmt 1 view -0
 487              		.cfi_startproc
 488              		@ args = 0, pretend = 0, frame = 0
 489              		@ frame_needed = 0, uses_anonymous_args = 0
 490              		@ link register save eliminated.
 236:Drivers/STM32F4xx_HAL_Driver/Src/stm32f4xx_ll_usb.c ****   return HAL_OK;
 491              		.loc 1 236 3 view .LVU143
 236:Drivers/STM32F4xx_HAL_Driver/Src/stm32f4xx_ll_usb.c ****   return HAL_OK;
 492              		.loc 1 236 7 is_stmt 0 view .LVU144
 493 0000 8368     		ldr	r3, [r0, #8]
 236:Drivers/STM32F4xx_HAL_Driver/Src/stm32f4xx_ll_usb.c ****   return HAL_OK;
 494              		.loc 1 236 17 view .LVU145
 495 0002 23F00103 		bic	r3, r3, #1
 496 0006 8360     		str	r3, [r0, #8]
 237:Drivers/STM32F4xx_HAL_Driver/Src/stm32f4xx_ll_usb.c **** }
 497              		.loc 1 237 3 is_stmt 1 view .LVU146
 238:Drivers/STM32F4xx_HAL_Driver/Src/stm32f4xx_ll_usb.c **** 
 498              		.loc 1 238 1 is_stmt 0 view .LVU147
 499 0008 0020     		movs	r0, #0
 500              	.LVL20:
 238:Drivers/STM32F4xx_HAL_Driver/Src/stm32f4xx_ll_usb.c **** 
 501              		.loc 1 238 1 view .LVU148
 502 000a 7047     		bx	lr
 503              		.cfi_endproc
 504              	.LFE137:
 506              		.section	.text.USB_FlushTxFifo,"ax",%progbits
 507              		.align	1
ARM GAS  C:\Users\marci\AppData\Local\Temp\ccNtE0Aw.s 			page 37


 508              		.global	USB_FlushTxFifo
 509              		.syntax unified
 510              		.thumb
 511              		.thumb_func
 513              	USB_FlushTxFifo:
 514              	.LVL21:
 515              	.LFB140:
 474:Drivers/STM32F4xx_HAL_Driver/Src/stm32f4xx_ll_usb.c ****   __IO uint32_t count = 0U;
 516              		.loc 1 474 1 is_stmt 1 view -0
 517              		.cfi_startproc
 518              		@ args = 0, pretend = 0, frame = 8
 519              		@ frame_needed = 0, uses_anonymous_args = 0
 520              		@ link register save eliminated.
 474:Drivers/STM32F4xx_HAL_Driver/Src/stm32f4xx_ll_usb.c ****   __IO uint32_t count = 0U;
 521              		.loc 1 474 1 is_stmt 0 view .LVU150
 522 0000 82B0     		sub	sp, sp, #8
 523              	.LCFI8:
 524              		.cfi_def_cfa_offset 8
 475:Drivers/STM32F4xx_HAL_Driver/Src/stm32f4xx_ll_usb.c **** 
 525              		.loc 1 475 3 is_stmt 1 view .LVU151
 475:Drivers/STM32F4xx_HAL_Driver/Src/stm32f4xx_ll_usb.c **** 
 526              		.loc 1 475 17 is_stmt 0 view .LVU152
 527 0002 0023     		movs	r3, #0
 528 0004 0193     		str	r3, [sp, #4]
 529              	.L36:
 478:Drivers/STM32F4xx_HAL_Driver/Src/stm32f4xx_ll_usb.c ****   {
 530              		.loc 1 478 3 is_stmt 1 view .LVU153
 480:Drivers/STM32F4xx_HAL_Driver/Src/stm32f4xx_ll_usb.c **** 
 531              		.loc 1 480 5 view .LVU154
 480:Drivers/STM32F4xx_HAL_Driver/Src/stm32f4xx_ll_usb.c **** 
 532              		.loc 1 480 10 is_stmt 0 view .LVU155
 533 0006 019B     		ldr	r3, [sp, #4]
 534 0008 0133     		adds	r3, r3, #1
 535 000a 0193     		str	r3, [sp, #4]
 482:Drivers/STM32F4xx_HAL_Driver/Src/stm32f4xx_ll_usb.c ****     {
 536              		.loc 1 482 5 is_stmt 1 view .LVU156
 482:Drivers/STM32F4xx_HAL_Driver/Src/stm32f4xx_ll_usb.c ****     {
 537              		.loc 1 482 15 is_stmt 0 view .LVU157
 538 000c 019B     		ldr	r3, [sp, #4]
 482:Drivers/STM32F4xx_HAL_Driver/Src/stm32f4xx_ll_usb.c ****     {
 539              		.loc 1 482 8 view .LVU158
 540 000e B3F1706F 		cmp	r3, #251658240
 541 0012 15D8     		bhi	.L38
 486:Drivers/STM32F4xx_HAL_Driver/Src/stm32f4xx_ll_usb.c **** 
 542              		.loc 1 486 53 is_stmt 1 view .LVU159
 486:Drivers/STM32F4xx_HAL_Driver/Src/stm32f4xx_ll_usb.c **** 
 543              		.loc 1 486 17 is_stmt 0 view .LVU160
 544 0014 0369     		ldr	r3, [r0, #16]
 486:Drivers/STM32F4xx_HAL_Driver/Src/stm32f4xx_ll_usb.c **** 
 545              		.loc 1 486 53 view .LVU161
 546 0016 002B     		cmp	r3, #0
 547 0018 F5DA     		bge	.L36
 489:Drivers/STM32F4xx_HAL_Driver/Src/stm32f4xx_ll_usb.c ****   USBx->GRSTCTL = (USB_OTG_GRSTCTL_TXFFLSH | (num << 6));
 548              		.loc 1 489 3 is_stmt 1 view .LVU162
 489:Drivers/STM32F4xx_HAL_Driver/Src/stm32f4xx_ll_usb.c ****   USBx->GRSTCTL = (USB_OTG_GRSTCTL_TXFFLSH | (num << 6));
 549              		.loc 1 489 9 is_stmt 0 view .LVU163
 550 001a 0023     		movs	r3, #0
ARM GAS  C:\Users\marci\AppData\Local\Temp\ccNtE0Aw.s 			page 38


 551 001c 0193     		str	r3, [sp, #4]
 490:Drivers/STM32F4xx_HAL_Driver/Src/stm32f4xx_ll_usb.c **** 
 552              		.loc 1 490 3 is_stmt 1 view .LVU164
 490:Drivers/STM32F4xx_HAL_Driver/Src/stm32f4xx_ll_usb.c **** 
 553              		.loc 1 490 51 is_stmt 0 view .LVU165
 554 001e 8901     		lsls	r1, r1, #6
 555              	.LVL22:
 490:Drivers/STM32F4xx_HAL_Driver/Src/stm32f4xx_ll_usb.c **** 
 556              		.loc 1 490 44 view .LVU166
 557 0020 41F02001 		orr	r1, r1, #32
 490:Drivers/STM32F4xx_HAL_Driver/Src/stm32f4xx_ll_usb.c **** 
 558              		.loc 1 490 17 view .LVU167
 559 0024 0161     		str	r1, [r0, #16]
 560              	.L37:
 492:Drivers/STM32F4xx_HAL_Driver/Src/stm32f4xx_ll_usb.c ****   {
 561              		.loc 1 492 3 is_stmt 1 view .LVU168
 494:Drivers/STM32F4xx_HAL_Driver/Src/stm32f4xx_ll_usb.c **** 
 562              		.loc 1 494 5 view .LVU169
 494:Drivers/STM32F4xx_HAL_Driver/Src/stm32f4xx_ll_usb.c **** 
 563              		.loc 1 494 10 is_stmt 0 view .LVU170
 564 0026 019B     		ldr	r3, [sp, #4]
 565 0028 0133     		adds	r3, r3, #1
 566 002a 0193     		str	r3, [sp, #4]
 496:Drivers/STM32F4xx_HAL_Driver/Src/stm32f4xx_ll_usb.c ****     {
 567              		.loc 1 496 5 is_stmt 1 view .LVU171
 496:Drivers/STM32F4xx_HAL_Driver/Src/stm32f4xx_ll_usb.c ****     {
 568              		.loc 1 496 15 is_stmt 0 view .LVU172
 569 002c 019B     		ldr	r3, [sp, #4]
 496:Drivers/STM32F4xx_HAL_Driver/Src/stm32f4xx_ll_usb.c ****     {
 570              		.loc 1 496 8 view .LVU173
 571 002e B3F1706F 		cmp	r3, #251658240
 572 0032 08D8     		bhi	.L39
 500:Drivers/STM32F4xx_HAL_Driver/Src/stm32f4xx_ll_usb.c **** 
 573              		.loc 1 500 54 is_stmt 1 view .LVU174
 500:Drivers/STM32F4xx_HAL_Driver/Src/stm32f4xx_ll_usb.c **** 
 574              		.loc 1 500 17 is_stmt 0 view .LVU175
 575 0034 0369     		ldr	r3, [r0, #16]
 500:Drivers/STM32F4xx_HAL_Driver/Src/stm32f4xx_ll_usb.c **** 
 576              		.loc 1 500 54 view .LVU176
 577 0036 13F0200F 		tst	r3, #32
 578 003a F4D1     		bne	.L37
 502:Drivers/STM32F4xx_HAL_Driver/Src/stm32f4xx_ll_usb.c **** }
 579              		.loc 1 502 10 view .LVU177
 580 003c 0020     		movs	r0, #0
 581              	.LVL23:
 502:Drivers/STM32F4xx_HAL_Driver/Src/stm32f4xx_ll_usb.c **** }
 582              		.loc 1 502 10 view .LVU178
 583 003e 00E0     		b	.L35
 584              	.LVL24:
 585              	.L38:
 484:Drivers/STM32F4xx_HAL_Driver/Src/stm32f4xx_ll_usb.c ****     }
 586              		.loc 1 484 14 view .LVU179
 587 0040 0320     		movs	r0, #3
 588              	.LVL25:
 589              	.L35:
 503:Drivers/STM32F4xx_HAL_Driver/Src/stm32f4xx_ll_usb.c **** 
 590              		.loc 1 503 1 view .LVU180
ARM GAS  C:\Users\marci\AppData\Local\Temp\ccNtE0Aw.s 			page 39


 591 0042 02B0     		add	sp, sp, #8
 592              	.LCFI9:
 593              		.cfi_remember_state
 594              		.cfi_def_cfa_offset 0
 595              		@ sp needed
 596 0044 7047     		bx	lr
 597              	.LVL26:
 598              	.L39:
 599              	.LCFI10:
 600              		.cfi_restore_state
 498:Drivers/STM32F4xx_HAL_Driver/Src/stm32f4xx_ll_usb.c ****     }
 601              		.loc 1 498 14 view .LVU181
 602 0046 0320     		movs	r0, #3
 603              	.LVL27:
 498:Drivers/STM32F4xx_HAL_Driver/Src/stm32f4xx_ll_usb.c ****     }
 604              		.loc 1 498 14 view .LVU182
 605 0048 FBE7     		b	.L35
 606              		.cfi_endproc
 607              	.LFE140:
 609              		.section	.text.USB_FlushRxFifo,"ax",%progbits
 610              		.align	1
 611              		.global	USB_FlushRxFifo
 612              		.syntax unified
 613              		.thumb
 614              		.thumb_func
 616              	USB_FlushRxFifo:
 617              	.LVL28:
 618              	.LFB141:
 511:Drivers/STM32F4xx_HAL_Driver/Src/stm32f4xx_ll_usb.c ****   __IO uint32_t count = 0U;
 619              		.loc 1 511 1 is_stmt 1 view -0
 620              		.cfi_startproc
 621              		@ args = 0, pretend = 0, frame = 8
 622              		@ frame_needed = 0, uses_anonymous_args = 0
 623              		@ link register save eliminated.
 511:Drivers/STM32F4xx_HAL_Driver/Src/stm32f4xx_ll_usb.c ****   __IO uint32_t count = 0U;
 624              		.loc 1 511 1 is_stmt 0 view .LVU184
 625 0000 82B0     		sub	sp, sp, #8
 626              	.LCFI11:
 627              		.cfi_def_cfa_offset 8
 512:Drivers/STM32F4xx_HAL_Driver/Src/stm32f4xx_ll_usb.c **** 
 628              		.loc 1 512 3 is_stmt 1 view .LVU185
 512:Drivers/STM32F4xx_HAL_Driver/Src/stm32f4xx_ll_usb.c **** 
 629              		.loc 1 512 17 is_stmt 0 view .LVU186
 630 0002 0023     		movs	r3, #0
 631 0004 0193     		str	r3, [sp, #4]
 632              	.L43:
 515:Drivers/STM32F4xx_HAL_Driver/Src/stm32f4xx_ll_usb.c ****   {
 633              		.loc 1 515 3 is_stmt 1 view .LVU187
 517:Drivers/STM32F4xx_HAL_Driver/Src/stm32f4xx_ll_usb.c **** 
 634              		.loc 1 517 5 view .LVU188
 517:Drivers/STM32F4xx_HAL_Driver/Src/stm32f4xx_ll_usb.c **** 
 635              		.loc 1 517 10 is_stmt 0 view .LVU189
 636 0006 019B     		ldr	r3, [sp, #4]
 637 0008 0133     		adds	r3, r3, #1
 638 000a 0193     		str	r3, [sp, #4]
 519:Drivers/STM32F4xx_HAL_Driver/Src/stm32f4xx_ll_usb.c ****     {
 639              		.loc 1 519 5 is_stmt 1 view .LVU190
ARM GAS  C:\Users\marci\AppData\Local\Temp\ccNtE0Aw.s 			page 40


 519:Drivers/STM32F4xx_HAL_Driver/Src/stm32f4xx_ll_usb.c ****     {
 640              		.loc 1 519 15 is_stmt 0 view .LVU191
 641 000c 019B     		ldr	r3, [sp, #4]
 519:Drivers/STM32F4xx_HAL_Driver/Src/stm32f4xx_ll_usb.c ****     {
 642              		.loc 1 519 8 view .LVU192
 643 000e B3F1706F 		cmp	r3, #251658240
 644 0012 13D8     		bhi	.L45
 523:Drivers/STM32F4xx_HAL_Driver/Src/stm32f4xx_ll_usb.c **** 
 645              		.loc 1 523 53 is_stmt 1 view .LVU193
 523:Drivers/STM32F4xx_HAL_Driver/Src/stm32f4xx_ll_usb.c **** 
 646              		.loc 1 523 17 is_stmt 0 view .LVU194
 647 0014 0369     		ldr	r3, [r0, #16]
 523:Drivers/STM32F4xx_HAL_Driver/Src/stm32f4xx_ll_usb.c **** 
 648              		.loc 1 523 53 view .LVU195
 649 0016 002B     		cmp	r3, #0
 650 0018 F5DA     		bge	.L43
 526:Drivers/STM32F4xx_HAL_Driver/Src/stm32f4xx_ll_usb.c ****   USBx->GRSTCTL = USB_OTG_GRSTCTL_RXFFLSH;
 651              		.loc 1 526 3 is_stmt 1 view .LVU196
 526:Drivers/STM32F4xx_HAL_Driver/Src/stm32f4xx_ll_usb.c ****   USBx->GRSTCTL = USB_OTG_GRSTCTL_RXFFLSH;
 652              		.loc 1 526 9 is_stmt 0 view .LVU197
 653 001a 0023     		movs	r3, #0
 654 001c 0193     		str	r3, [sp, #4]
 527:Drivers/STM32F4xx_HAL_Driver/Src/stm32f4xx_ll_usb.c **** 
 655              		.loc 1 527 3 is_stmt 1 view .LVU198
 527:Drivers/STM32F4xx_HAL_Driver/Src/stm32f4xx_ll_usb.c **** 
 656              		.loc 1 527 17 is_stmt 0 view .LVU199
 657 001e 1023     		movs	r3, #16
 658 0020 0361     		str	r3, [r0, #16]
 659              	.L44:
 529:Drivers/STM32F4xx_HAL_Driver/Src/stm32f4xx_ll_usb.c ****   {
 660              		.loc 1 529 3 is_stmt 1 view .LVU200
 531:Drivers/STM32F4xx_HAL_Driver/Src/stm32f4xx_ll_usb.c **** 
 661              		.loc 1 531 5 view .LVU201
 531:Drivers/STM32F4xx_HAL_Driver/Src/stm32f4xx_ll_usb.c **** 
 662              		.loc 1 531 10 is_stmt 0 view .LVU202
 663 0022 019B     		ldr	r3, [sp, #4]
 664 0024 0133     		adds	r3, r3, #1
 665 0026 0193     		str	r3, [sp, #4]
 533:Drivers/STM32F4xx_HAL_Driver/Src/stm32f4xx_ll_usb.c ****     {
 666              		.loc 1 533 5 is_stmt 1 view .LVU203
 533:Drivers/STM32F4xx_HAL_Driver/Src/stm32f4xx_ll_usb.c ****     {
 667              		.loc 1 533 15 is_stmt 0 view .LVU204
 668 0028 019B     		ldr	r3, [sp, #4]
 533:Drivers/STM32F4xx_HAL_Driver/Src/stm32f4xx_ll_usb.c ****     {
 669              		.loc 1 533 8 view .LVU205
 670 002a B3F1706F 		cmp	r3, #251658240
 671 002e 08D8     		bhi	.L46
 537:Drivers/STM32F4xx_HAL_Driver/Src/stm32f4xx_ll_usb.c **** 
 672              		.loc 1 537 54 is_stmt 1 view .LVU206
 537:Drivers/STM32F4xx_HAL_Driver/Src/stm32f4xx_ll_usb.c **** 
 673              		.loc 1 537 17 is_stmt 0 view .LVU207
 674 0030 0369     		ldr	r3, [r0, #16]
 537:Drivers/STM32F4xx_HAL_Driver/Src/stm32f4xx_ll_usb.c **** 
 675              		.loc 1 537 54 view .LVU208
 676 0032 13F0100F 		tst	r3, #16
 677 0036 F4D1     		bne	.L44
 539:Drivers/STM32F4xx_HAL_Driver/Src/stm32f4xx_ll_usb.c **** }
ARM GAS  C:\Users\marci\AppData\Local\Temp\ccNtE0Aw.s 			page 41


 678              		.loc 1 539 10 view .LVU209
 679 0038 0020     		movs	r0, #0
 680              	.LVL29:
 539:Drivers/STM32F4xx_HAL_Driver/Src/stm32f4xx_ll_usb.c **** }
 681              		.loc 1 539 10 view .LVU210
 682 003a 00E0     		b	.L42
 683              	.LVL30:
 684              	.L45:
 521:Drivers/STM32F4xx_HAL_Driver/Src/stm32f4xx_ll_usb.c ****     }
 685              		.loc 1 521 14 view .LVU211
 686 003c 0320     		movs	r0, #3
 687              	.LVL31:
 688              	.L42:
 540:Drivers/STM32F4xx_HAL_Driver/Src/stm32f4xx_ll_usb.c **** 
 689              		.loc 1 540 1 view .LVU212
 690 003e 02B0     		add	sp, sp, #8
 691              	.LCFI12:
 692              		.cfi_remember_state
 693              		.cfi_def_cfa_offset 0
 694              		@ sp needed
 695 0040 7047     		bx	lr
 696              	.LVL32:
 697              	.L46:
 698              	.LCFI13:
 699              		.cfi_restore_state
 535:Drivers/STM32F4xx_HAL_Driver/Src/stm32f4xx_ll_usb.c ****     }
 700              		.loc 1 535 14 view .LVU213
 701 0042 0320     		movs	r0, #3
 702              	.LVL33:
 535:Drivers/STM32F4xx_HAL_Driver/Src/stm32f4xx_ll_usb.c ****     }
 703              		.loc 1 535 14 view .LVU214
 704 0044 FBE7     		b	.L42
 705              		.cfi_endproc
 706              	.LFE141:
 708              		.section	.text.USB_SetDevSpeed,"ax",%progbits
 709              		.align	1
 710              		.global	USB_SetDevSpeed
 711              		.syntax unified
 712              		.thumb
 713              		.thumb_func
 715              	USB_SetDevSpeed:
 716              	.LVL34:
 717              	.LFB142:
 554:Drivers/STM32F4xx_HAL_Driver/Src/stm32f4xx_ll_usb.c ****   uint32_t USBx_BASE = (uint32_t)USBx;
 718              		.loc 1 554 1 is_stmt 1 view -0
 719              		.cfi_startproc
 720              		@ args = 0, pretend = 0, frame = 0
 721              		@ frame_needed = 0, uses_anonymous_args = 0
 722              		@ link register save eliminated.
 555:Drivers/STM32F4xx_HAL_Driver/Src/stm32f4xx_ll_usb.c **** 
 723              		.loc 1 555 3 view .LVU216
 557:Drivers/STM32F4xx_HAL_Driver/Src/stm32f4xx_ll_usb.c ****   return HAL_OK;
 724              		.loc 1 557 3 view .LVU217
 557:Drivers/STM32F4xx_HAL_Driver/Src/stm32f4xx_ll_usb.c ****   return HAL_OK;
 725              		.loc 1 557 14 is_stmt 0 view .LVU218
 726 0000 D0F80038 		ldr	r3, [r0, #2048]
 557:Drivers/STM32F4xx_HAL_Driver/Src/stm32f4xx_ll_usb.c ****   return HAL_OK;
ARM GAS  C:\Users\marci\AppData\Local\Temp\ccNtE0Aw.s 			page 42


 727              		.loc 1 557 21 view .LVU219
 728 0004 1943     		orrs	r1, r1, r3
 729              	.LVL35:
 557:Drivers/STM32F4xx_HAL_Driver/Src/stm32f4xx_ll_usb.c ****   return HAL_OK;
 730              		.loc 1 557 21 view .LVU220
 731 0006 C0F80018 		str	r1, [r0, #2048]
 558:Drivers/STM32F4xx_HAL_Driver/Src/stm32f4xx_ll_usb.c **** }
 732              		.loc 1 558 3 is_stmt 1 view .LVU221
 559:Drivers/STM32F4xx_HAL_Driver/Src/stm32f4xx_ll_usb.c **** 
 733              		.loc 1 559 1 is_stmt 0 view .LVU222
 734 000a 0020     		movs	r0, #0
 735              	.LVL36:
 559:Drivers/STM32F4xx_HAL_Driver/Src/stm32f4xx_ll_usb.c **** 
 736              		.loc 1 559 1 view .LVU223
 737 000c 7047     		bx	lr
 738              		.cfi_endproc
 739              	.LFE142:
 741              		.section	.text.USB_DevInit,"ax",%progbits
 742              		.align	1
 743              		.global	USB_DevInit
 744              		.syntax unified
 745              		.thumb
 746              		.thumb_func
 748              	USB_DevInit:
 749              	.LVL37:
 750              	.LFB139:
 297:Drivers/STM32F4xx_HAL_Driver/Src/stm32f4xx_ll_usb.c ****   HAL_StatusTypeDef ret = HAL_OK;
 751              		.loc 1 297 1 is_stmt 1 view -0
 752              		.cfi_startproc
 753              		@ args = 20, pretend = 16, frame = 0
 754              		@ frame_needed = 0, uses_anonymous_args = 0
 297:Drivers/STM32F4xx_HAL_Driver/Src/stm32f4xx_ll_usb.c ****   HAL_StatusTypeDef ret = HAL_OK;
 755              		.loc 1 297 1 is_stmt 0 view .LVU225
 756 0000 84B0     		sub	sp, sp, #16
 757              	.LCFI14:
 758              		.cfi_def_cfa_offset 16
 759 0002 F8B5     		push	{r3, r4, r5, r6, r7, lr}
 760              	.LCFI15:
 761              		.cfi_def_cfa_offset 40
 762              		.cfi_offset 3, -40
 763              		.cfi_offset 4, -36
 764              		.cfi_offset 5, -32
 765              		.cfi_offset 6, -28
 766              		.cfi_offset 7, -24
 767              		.cfi_offset 14, -20
 768 0004 0446     		mov	r4, r0
 769 0006 07A8     		add	r0, sp, #28
 770              	.LVL38:
 297:Drivers/STM32F4xx_HAL_Driver/Src/stm32f4xx_ll_usb.c ****   HAL_StatusTypeDef ret = HAL_OK;
 771              		.loc 1 297 1 view .LVU226
 772 0008 80E80E00 		stm	r0, {r1, r2, r3}
 298:Drivers/STM32F4xx_HAL_Driver/Src/stm32f4xx_ll_usb.c ****   uint32_t USBx_BASE = (uint32_t)USBx;
 773              		.loc 1 298 3 is_stmt 1 view .LVU227
 774              	.LVL39:
 299:Drivers/STM32F4xx_HAL_Driver/Src/stm32f4xx_ll_usb.c ****   uint32_t i;
 775              		.loc 1 299 3 view .LVU228
 300:Drivers/STM32F4xx_HAL_Driver/Src/stm32f4xx_ll_usb.c **** 
ARM GAS  C:\Users\marci\AppData\Local\Temp\ccNtE0Aw.s 			page 43


 776              		.loc 1 300 3 view .LVU229
 302:Drivers/STM32F4xx_HAL_Driver/Src/stm32f4xx_ll_usb.c ****   {
 777              		.loc 1 302 3 view .LVU230
 302:Drivers/STM32F4xx_HAL_Driver/Src/stm32f4xx_ll_usb.c ****   {
 778              		.loc 1 302 10 is_stmt 0 view .LVU231
 779 000c 0023     		movs	r3, #0
 302:Drivers/STM32F4xx_HAL_Driver/Src/stm32f4xx_ll_usb.c ****   {
 780              		.loc 1 302 3 view .LVU232
 781 000e 06E0     		b	.L50
 782              	.LVL40:
 783              	.L51:
 304:Drivers/STM32F4xx_HAL_Driver/Src/stm32f4xx_ll_usb.c ****   }
 784              		.loc 1 304 5 is_stmt 1 view .LVU233
 304:Drivers/STM32F4xx_HAL_Driver/Src/stm32f4xx_ll_usb.c ****   }
 785              		.loc 1 304 22 is_stmt 0 view .LVU234
 786 0010 03F14002 		add	r2, r3, #64
 787 0014 04EB8202 		add	r2, r4, r2, lsl #2
 788 0018 0021     		movs	r1, #0
 789 001a 5160     		str	r1, [r2, #4]
 302:Drivers/STM32F4xx_HAL_Driver/Src/stm32f4xx_ll_usb.c ****   {
 790              		.loc 1 302 26 is_stmt 1 discriminator 3 view .LVU235
 791 001c 0133     		adds	r3, r3, #1
 792              	.LVL41:
 793              	.L50:
 302:Drivers/STM32F4xx_HAL_Driver/Src/stm32f4xx_ll_usb.c ****   {
 794              		.loc 1 302 18 discriminator 1 view .LVU236
 795 001e 0E2B     		cmp	r3, #14
 796 0020 F6D9     		bls	.L51
 311:Drivers/STM32F4xx_HAL_Driver/Src/stm32f4xx_ll_usb.c ****   {
 797              		.loc 1 311 3 view .LVU237
 311:Drivers/STM32F4xx_HAL_Driver/Src/stm32f4xx_ll_usb.c ****   {
 798              		.loc 1 311 10 is_stmt 0 view .LVU238
 799 0022 9DF82660 		ldrb	r6, [sp, #38]	@ zero_extendqisi2
 311:Drivers/STM32F4xx_HAL_Driver/Src/stm32f4xx_ll_usb.c ****   {
 800              		.loc 1 311 6 view .LVU239
 801 0026 06BB     		cbnz	r6, .L52
 313:Drivers/STM32F4xx_HAL_Driver/Src/stm32f4xx_ll_usb.c **** 
 802              		.loc 1 313 5 is_stmt 1 view .LVU240
 313:Drivers/STM32F4xx_HAL_Driver/Src/stm32f4xx_ll_usb.c **** 
 803              		.loc 1 313 16 is_stmt 0 view .LVU241
 804 0028 D4F80438 		ldr	r3, [r4, #2052]
 805              	.LVL42:
 313:Drivers/STM32F4xx_HAL_Driver/Src/stm32f4xx_ll_usb.c **** 
 806              		.loc 1 313 23 view .LVU242
 807 002c 43F00203 		orr	r3, r3, #2
 808 0030 C4F80438 		str	r3, [r4, #2052]
 316:Drivers/STM32F4xx_HAL_Driver/Src/stm32f4xx_ll_usb.c **** 
 809              		.loc 1 316 5 is_stmt 1 view .LVU243
 316:Drivers/STM32F4xx_HAL_Driver/Src/stm32f4xx_ll_usb.c **** 
 810              		.loc 1 316 9 is_stmt 0 view .LVU244
 811 0034 A36B     		ldr	r3, [r4, #56]
 316:Drivers/STM32F4xx_HAL_Driver/Src/stm32f4xx_ll_usb.c **** 
 812              		.loc 1 316 17 view .LVU245
 813 0036 23F40013 		bic	r3, r3, #2097152
 814 003a A363     		str	r3, [r4, #56]
 319:Drivers/STM32F4xx_HAL_Driver/Src/stm32f4xx_ll_usb.c ****     USBx->GOTGCTL |= USB_OTG_GOTGCTL_BVALOVAL;
 815              		.loc 1 319 5 is_stmt 1 view .LVU246
ARM GAS  C:\Users\marci\AppData\Local\Temp\ccNtE0Aw.s 			page 44


 319:Drivers/STM32F4xx_HAL_Driver/Src/stm32f4xx_ll_usb.c ****     USBx->GOTGCTL |= USB_OTG_GOTGCTL_BVALOVAL;
 816              		.loc 1 319 9 is_stmt 0 view .LVU247
 817 003c 2368     		ldr	r3, [r4]
 319:Drivers/STM32F4xx_HAL_Driver/Src/stm32f4xx_ll_usb.c ****     USBx->GOTGCTL |= USB_OTG_GOTGCTL_BVALOVAL;
 818              		.loc 1 319 19 view .LVU248
 819 003e 43F04003 		orr	r3, r3, #64
 820 0042 2360     		str	r3, [r4]
 320:Drivers/STM32F4xx_HAL_Driver/Src/stm32f4xx_ll_usb.c ****   }
 821              		.loc 1 320 5 is_stmt 1 view .LVU249
 320:Drivers/STM32F4xx_HAL_Driver/Src/stm32f4xx_ll_usb.c ****   }
 822              		.loc 1 320 9 is_stmt 0 view .LVU250
 823 0044 2368     		ldr	r3, [r4]
 320:Drivers/STM32F4xx_HAL_Driver/Src/stm32f4xx_ll_usb.c ****   }
 824              		.loc 1 320 19 view .LVU251
 825 0046 43F08003 		orr	r3, r3, #128
 826 004a 2360     		str	r3, [r4]
 827              	.L53:
 351:Drivers/STM32F4xx_HAL_Driver/Src/stm32f4xx_ll_usb.c **** 
 828              		.loc 1 351 3 is_stmt 1 view .LVU252
 351:Drivers/STM32F4xx_HAL_Driver/Src/stm32f4xx_ll_usb.c **** 
 829              		.loc 1 351 16 is_stmt 0 view .LVU253
 830 004c 0023     		movs	r3, #0
 831 004e C4F8003E 		str	r3, [r4, #3584]
 353:Drivers/STM32F4xx_HAL_Driver/Src/stm32f4xx_ll_usb.c ****   {
 832              		.loc 1 353 3 is_stmt 1 view .LVU254
 353:Drivers/STM32F4xx_HAL_Driver/Src/stm32f4xx_ll_usb.c ****   {
 833              		.loc 1 353 10 is_stmt 0 view .LVU255
 834 0052 9DF82130 		ldrb	r3, [sp, #33]	@ zero_extendqisi2
 353:Drivers/STM32F4xx_HAL_Driver/Src/stm32f4xx_ll_usb.c ****   {
 835              		.loc 1 353 6 view .LVU256
 836 0056 012B     		cmp	r3, #1
 837 0058 11D1     		bne	.L54
 355:Drivers/STM32F4xx_HAL_Driver/Src/stm32f4xx_ll_usb.c ****     {
 838              		.loc 1 355 5 is_stmt 1 view .LVU257
 355:Drivers/STM32F4xx_HAL_Driver/Src/stm32f4xx_ll_usb.c ****     {
 839              		.loc 1 355 12 is_stmt 0 view .LVU258
 840 005a 9DF81F30 		ldrb	r3, [sp, #31]	@ zero_extendqisi2
 355:Drivers/STM32F4xx_HAL_Driver/Src/stm32f4xx_ll_usb.c ****     {
 841              		.loc 1 355 8 view .LVU259
 842 005e 4BB9     		cbnz	r3, .L55
 358:Drivers/STM32F4xx_HAL_Driver/Src/stm32f4xx_ll_usb.c ****     }
 843              		.loc 1 358 7 is_stmt 1 view .LVU260
 358:Drivers/STM32F4xx_HAL_Driver/Src/stm32f4xx_ll_usb.c ****     }
 844              		.loc 1 358 13 is_stmt 0 view .LVU261
 845 0060 0021     		movs	r1, #0
 846 0062 2046     		mov	r0, r4
 847 0064 FFF7FEFF 		bl	USB_SetDevSpeed
 848              	.LVL43:
 849 0068 0DE0     		b	.L56
 850              	.LVL44:
 851              	.L52:
 325:Drivers/STM32F4xx_HAL_Driver/Src/stm32f4xx_ll_usb.c ****   }
 852              		.loc 1 325 5 is_stmt 1 view .LVU262
 325:Drivers/STM32F4xx_HAL_Driver/Src/stm32f4xx_ll_usb.c ****   }
 853              		.loc 1 325 9 is_stmt 0 view .LVU263
 854 006a A36B     		ldr	r3, [r4, #56]
 855              	.LVL45:
ARM GAS  C:\Users\marci\AppData\Local\Temp\ccNtE0Aw.s 			page 45


 325:Drivers/STM32F4xx_HAL_Driver/Src/stm32f4xx_ll_usb.c ****   }
 856              		.loc 1 325 17 view .LVU264
 857 006c 43F40013 		orr	r3, r3, #2097152
 858 0070 A363     		str	r3, [r4, #56]
 859 0072 EBE7     		b	.L53
 860              	.L55:
 363:Drivers/STM32F4xx_HAL_Driver/Src/stm32f4xx_ll_usb.c ****     }
 861              		.loc 1 363 7 is_stmt 1 view .LVU265
 363:Drivers/STM32F4xx_HAL_Driver/Src/stm32f4xx_ll_usb.c ****     }
 862              		.loc 1 363 13 is_stmt 0 view .LVU266
 863 0074 0121     		movs	r1, #1
 864 0076 2046     		mov	r0, r4
 865 0078 FFF7FEFF 		bl	USB_SetDevSpeed
 866              	.LVL46:
 867 007c 03E0     		b	.L56
 868              	.L54:
 369:Drivers/STM32F4xx_HAL_Driver/Src/stm32f4xx_ll_usb.c ****   }
 869              		.loc 1 369 5 is_stmt 1 view .LVU267
 369:Drivers/STM32F4xx_HAL_Driver/Src/stm32f4xx_ll_usb.c ****   }
 870              		.loc 1 369 11 is_stmt 0 view .LVU268
 871 007e 0321     		movs	r1, #3
 872 0080 2046     		mov	r0, r4
 873 0082 FFF7FEFF 		bl	USB_SetDevSpeed
 874              	.LVL47:
 875              	.L56:
 373:Drivers/STM32F4xx_HAL_Driver/Src/stm32f4xx_ll_usb.c ****   {
 876              		.loc 1 373 3 is_stmt 1 view .LVU269
 373:Drivers/STM32F4xx_HAL_Driver/Src/stm32f4xx_ll_usb.c ****   {
 877              		.loc 1 373 7 is_stmt 0 view .LVU270
 878 0086 1021     		movs	r1, #16
 879 0088 2046     		mov	r0, r4
 880 008a FFF7FEFF 		bl	USB_FlushTxFifo
 881              	.LVL48:
 373:Drivers/STM32F4xx_HAL_Driver/Src/stm32f4xx_ll_usb.c ****   {
 882              		.loc 1 373 6 discriminator 1 view .LVU271
 883 008e 0546     		mov	r5, r0
 884 0090 00B1     		cbz	r0, .L57
 375:Drivers/STM32F4xx_HAL_Driver/Src/stm32f4xx_ll_usb.c ****   }
 885              		.loc 1 375 9 view .LVU272
 886 0092 0125     		movs	r5, #1
 887              	.L57:
 888              	.LVL49:
 378:Drivers/STM32F4xx_HAL_Driver/Src/stm32f4xx_ll_usb.c ****   {
 889              		.loc 1 378 3 is_stmt 1 view .LVU273
 378:Drivers/STM32F4xx_HAL_Driver/Src/stm32f4xx_ll_usb.c ****   {
 890              		.loc 1 378 7 is_stmt 0 view .LVU274
 891 0094 2046     		mov	r0, r4
 892 0096 FFF7FEFF 		bl	USB_FlushRxFifo
 893              	.LVL50:
 378:Drivers/STM32F4xx_HAL_Driver/Src/stm32f4xx_ll_usb.c ****   {
 894              		.loc 1 378 6 discriminator 1 view .LVU275
 895 009a 00B1     		cbz	r0, .L58
 380:Drivers/STM32F4xx_HAL_Driver/Src/stm32f4xx_ll_usb.c ****   }
 896              		.loc 1 380 9 view .LVU276
 897 009c 0125     		movs	r5, #1
 898              	.LVL51:
 899              	.L58:
ARM GAS  C:\Users\marci\AppData\Local\Temp\ccNtE0Aw.s 			page 46


 384:Drivers/STM32F4xx_HAL_Driver/Src/stm32f4xx_ll_usb.c ****   USBx_DEVICE->DOEPMSK = 0U;
 900              		.loc 1 384 3 is_stmt 1 view .LVU277
 901 009e 04F5006C 		add	ip, r4, #2048
 384:Drivers/STM32F4xx_HAL_Driver/Src/stm32f4xx_ll_usb.c ****   USBx_DEVICE->DOEPMSK = 0U;
 902              		.loc 1 384 24 is_stmt 0 view .LVU278
 903 00a2 0023     		movs	r3, #0
 904 00a4 CCF81030 		str	r3, [ip, #16]
 385:Drivers/STM32F4xx_HAL_Driver/Src/stm32f4xx_ll_usb.c ****   USBx_DEVICE->DAINTMSK = 0U;
 905              		.loc 1 385 3 is_stmt 1 view .LVU279
 385:Drivers/STM32F4xx_HAL_Driver/Src/stm32f4xx_ll_usb.c ****   USBx_DEVICE->DAINTMSK = 0U;
 906              		.loc 1 385 24 is_stmt 0 view .LVU280
 907 00a8 CCF81430 		str	r3, [ip, #20]
 386:Drivers/STM32F4xx_HAL_Driver/Src/stm32f4xx_ll_usb.c **** 
 908              		.loc 1 386 3 is_stmt 1 view .LVU281
 386:Drivers/STM32F4xx_HAL_Driver/Src/stm32f4xx_ll_usb.c **** 
 909              		.loc 1 386 25 is_stmt 0 view .LVU282
 910 00ac CCF81C30 		str	r3, [ip, #28]
 388:Drivers/STM32F4xx_HAL_Driver/Src/stm32f4xx_ll_usb.c ****   {
 911              		.loc 1 388 3 is_stmt 1 view .LVU283
 912              	.LVL52:
 388:Drivers/STM32F4xx_HAL_Driver/Src/stm32f4xx_ll_usb.c ****   {
 913              		.loc 1 388 3 is_stmt 0 view .LVU284
 914 00b0 0AE0     		b	.L59
 915              	.LVL53:
 916              	.L76:
 392:Drivers/STM32F4xx_HAL_Driver/Src/stm32f4xx_ll_usb.c ****       {
 917              		.loc 1 392 7 is_stmt 1 view .LVU285
 392:Drivers/STM32F4xx_HAL_Driver/Src/stm32f4xx_ll_usb.c ****       {
 918              		.loc 1 392 10 is_stmt 0 view .LVU286
 919 00b2 CBB9     		cbnz	r3, .L61
 394:Drivers/STM32F4xx_HAL_Driver/Src/stm32f4xx_ll_usb.c ****       }
 920              		.loc 1 394 9 is_stmt 1 view .LVU287
 394:Drivers/STM32F4xx_HAL_Driver/Src/stm32f4xx_ll_usb.c ****       }
 921              		.loc 1 394 31 is_stmt 0 view .LVU288
 922 00b4 4FF00060 		mov	r0, #134217728
 923 00b8 C2F80009 		str	r0, [r2, #2304]
 924              	.L62:
 406:Drivers/STM32F4xx_HAL_Driver/Src/stm32f4xx_ll_usb.c ****     USBx_INEP(i)->DIEPINT  = 0xFB7FU;
 925              		.loc 1 406 5 is_stmt 1 view .LVU289
 406:Drivers/STM32F4xx_HAL_Driver/Src/stm32f4xx_ll_usb.c ****     USBx_INEP(i)->DIEPINT  = 0xFB7FU;
 926              		.loc 1 406 28 is_stmt 0 view .LVU290
 927 00bc 0022     		movs	r2, #0
 928 00be 0A61     		str	r2, [r1, #16]
 407:Drivers/STM32F4xx_HAL_Driver/Src/stm32f4xx_ll_usb.c ****   }
 929              		.loc 1 407 5 is_stmt 1 view .LVU291
 407:Drivers/STM32F4xx_HAL_Driver/Src/stm32f4xx_ll_usb.c ****   }
 930              		.loc 1 407 28 is_stmt 0 view .LVU292
 931 00c0 4FF67F32 		movw	r2, #64383
 932 00c4 8A60     		str	r2, [r1, #8]
 388:Drivers/STM32F4xx_HAL_Driver/Src/stm32f4xx_ll_usb.c ****   {
 933              		.loc 1 388 40 is_stmt 1 discriminator 2 view .LVU293
 934 00c6 0133     		adds	r3, r3, #1
 935              	.LVL54:
 936              	.L59:
 388:Drivers/STM32F4xx_HAL_Driver/Src/stm32f4xx_ll_usb.c ****   {
 937              		.loc 1 388 18 discriminator 1 view .LVU294
 388:Drivers/STM32F4xx_HAL_Driver/Src/stm32f4xx_ll_usb.c ****   {
ARM GAS  C:\Users\marci\AppData\Local\Temp\ccNtE0Aw.s 			page 47


 938              		.loc 1 388 23 is_stmt 0 discriminator 1 view .LVU295
 939 00c8 9DF81C10 		ldrb	r1, [sp, #28]	@ zero_extendqisi2
 388:Drivers/STM32F4xx_HAL_Driver/Src/stm32f4xx_ll_usb.c ****   {
 940              		.loc 1 388 18 discriminator 1 view .LVU296
 941 00cc 9942     		cmp	r1, r3
 942 00ce 10D9     		bls	.L75
 390:Drivers/STM32F4xx_HAL_Driver/Src/stm32f4xx_ll_usb.c ****     {
 943              		.loc 1 390 5 is_stmt 1 view .LVU297
 390:Drivers/STM32F4xx_HAL_Driver/Src/stm32f4xx_ll_usb.c ****     {
 944              		.loc 1 390 10 is_stmt 0 view .LVU298
 945 00d0 04EB4312 		add	r2, r4, r3, lsl #5
 946 00d4 02F51061 		add	r1, r2, #2304
 390:Drivers/STM32F4xx_HAL_Driver/Src/stm32f4xx_ll_usb.c ****     {
 947              		.loc 1 390 22 view .LVU299
 948 00d8 D2F80009 		ldr	r0, [r2, #2304]
 390:Drivers/STM32F4xx_HAL_Driver/Src/stm32f4xx_ll_usb.c ****     {
 949              		.loc 1 390 8 view .LVU300
 950 00dc 0028     		cmp	r0, #0
 951 00de E8DB     		blt	.L76
 403:Drivers/STM32F4xx_HAL_Driver/Src/stm32f4xx_ll_usb.c ****     }
 952              		.loc 1 403 7 is_stmt 1 view .LVU301
 403:Drivers/STM32F4xx_HAL_Driver/Src/stm32f4xx_ll_usb.c ****     }
 953              		.loc 1 403 29 is_stmt 0 view .LVU302
 954 00e0 0020     		movs	r0, #0
 955 00e2 C2F80009 		str	r0, [r2, #2304]
 956 00e6 E9E7     		b	.L62
 957              	.L61:
 398:Drivers/STM32F4xx_HAL_Driver/Src/stm32f4xx_ll_usb.c ****       }
 958              		.loc 1 398 9 is_stmt 1 view .LVU303
 398:Drivers/STM32F4xx_HAL_Driver/Src/stm32f4xx_ll_usb.c ****       }
 959              		.loc 1 398 31 is_stmt 0 view .LVU304
 960 00e8 4FF09040 		mov	r0, #1207959552
 961 00ec C2F80009 		str	r0, [r2, #2304]
 962 00f0 E4E7     		b	.L62
 963              	.L75:
 410:Drivers/STM32F4xx_HAL_Driver/Src/stm32f4xx_ll_usb.c ****   {
 964              		.loc 1 410 10 view .LVU305
 965 00f2 0023     		movs	r3, #0
 966              	.LVL55:
 410:Drivers/STM32F4xx_HAL_Driver/Src/stm32f4xx_ll_usb.c ****   {
 967              		.loc 1 410 10 view .LVU306
 968 00f4 0AE0     		b	.L64
 969              	.LVL56:
 970              	.L79:
 414:Drivers/STM32F4xx_HAL_Driver/Src/stm32f4xx_ll_usb.c ****       {
 971              		.loc 1 414 7 is_stmt 1 view .LVU307
 414:Drivers/STM32F4xx_HAL_Driver/Src/stm32f4xx_ll_usb.c ****       {
 972              		.loc 1 414 10 is_stmt 0 view .LVU308
 973 00f6 BBB1     		cbz	r3, .L77
 420:Drivers/STM32F4xx_HAL_Driver/Src/stm32f4xx_ll_usb.c ****       }
 974              		.loc 1 420 9 is_stmt 1 view .LVU309
 420:Drivers/STM32F4xx_HAL_Driver/Src/stm32f4xx_ll_usb.c ****       }
 975              		.loc 1 420 32 is_stmt 0 view .LVU310
 976 00f8 4FF09047 		mov	r7, #1207959552
 977 00fc C2F8007B 		str	r7, [r2, #2816]
 978              	.L67:
 428:Drivers/STM32F4xx_HAL_Driver/Src/stm32f4xx_ll_usb.c ****     USBx_OUTEP(i)->DOEPINT  = 0xFB7FU;
ARM GAS  C:\Users\marci\AppData\Local\Temp\ccNtE0Aw.s 			page 48


 979              		.loc 1 428 5 is_stmt 1 view .LVU311
 428:Drivers/STM32F4xx_HAL_Driver/Src/stm32f4xx_ll_usb.c ****     USBx_OUTEP(i)->DOEPINT  = 0xFB7FU;
 980              		.loc 1 428 29 is_stmt 0 view .LVU312
 981 0100 0022     		movs	r2, #0
 982 0102 0261     		str	r2, [r0, #16]
 429:Drivers/STM32F4xx_HAL_Driver/Src/stm32f4xx_ll_usb.c ****   }
 983              		.loc 1 429 5 is_stmt 1 view .LVU313
 429:Drivers/STM32F4xx_HAL_Driver/Src/stm32f4xx_ll_usb.c ****   }
 984              		.loc 1 429 29 is_stmt 0 view .LVU314
 985 0104 4FF67F32 		movw	r2, #64383
 986 0108 8260     		str	r2, [r0, #8]
 410:Drivers/STM32F4xx_HAL_Driver/Src/stm32f4xx_ll_usb.c ****   {
 987              		.loc 1 410 40 is_stmt 1 discriminator 2 view .LVU315
 988 010a 0133     		adds	r3, r3, #1
 989              	.LVL57:
 990              	.L64:
 410:Drivers/STM32F4xx_HAL_Driver/Src/stm32f4xx_ll_usb.c ****   {
 991              		.loc 1 410 18 discriminator 1 view .LVU316
 992 010c 9942     		cmp	r1, r3
 993 010e 10D9     		bls	.L78
 412:Drivers/STM32F4xx_HAL_Driver/Src/stm32f4xx_ll_usb.c ****     {
 994              		.loc 1 412 5 view .LVU317
 412:Drivers/STM32F4xx_HAL_Driver/Src/stm32f4xx_ll_usb.c ****     {
 995              		.loc 1 412 10 is_stmt 0 view .LVU318
 996 0110 04EB4312 		add	r2, r4, r3, lsl #5
 997 0114 02F53060 		add	r0, r2, #2816
 412:Drivers/STM32F4xx_HAL_Driver/Src/stm32f4xx_ll_usb.c ****     {
 998              		.loc 1 412 23 view .LVU319
 999 0118 D2F8007B 		ldr	r7, [r2, #2816]
 412:Drivers/STM32F4xx_HAL_Driver/Src/stm32f4xx_ll_usb.c ****     {
 1000              		.loc 1 412 8 view .LVU320
 1001 011c 002F     		cmp	r7, #0
 1002 011e EADB     		blt	.L79
 425:Drivers/STM32F4xx_HAL_Driver/Src/stm32f4xx_ll_usb.c ****     }
 1003              		.loc 1 425 7 is_stmt 1 view .LVU321
 425:Drivers/STM32F4xx_HAL_Driver/Src/stm32f4xx_ll_usb.c ****     }
 1004              		.loc 1 425 30 is_stmt 0 view .LVU322
 1005 0120 0027     		movs	r7, #0
 1006 0122 C2F8007B 		str	r7, [r2, #2816]
 1007 0126 EBE7     		b	.L67
 1008              	.L77:
 416:Drivers/STM32F4xx_HAL_Driver/Src/stm32f4xx_ll_usb.c ****       }
 1009              		.loc 1 416 9 is_stmt 1 view .LVU323
 416:Drivers/STM32F4xx_HAL_Driver/Src/stm32f4xx_ll_usb.c ****       }
 1010              		.loc 1 416 32 is_stmt 0 view .LVU324
 1011 0128 4FF00067 		mov	r7, #134217728
 1012 012c C2F8007B 		str	r7, [r2, #2816]
 1013 0130 E6E7     		b	.L67
 1014              	.L78:
 432:Drivers/STM32F4xx_HAL_Driver/Src/stm32f4xx_ll_usb.c **** 
 1015              		.loc 1 432 3 is_stmt 1 view .LVU325
 432:Drivers/STM32F4xx_HAL_Driver/Src/stm32f4xx_ll_usb.c **** 
 1016              		.loc 1 432 14 is_stmt 0 view .LVU326
 1017 0132 DCF81030 		ldr	r3, [ip, #16]
 1018              	.LVL58:
 432:Drivers/STM32F4xx_HAL_Driver/Src/stm32f4xx_ll_usb.c **** 
 1019              		.loc 1 432 24 view .LVU327
ARM GAS  C:\Users\marci\AppData\Local\Temp\ccNtE0Aw.s 			page 49


 1020 0136 23F48073 		bic	r3, r3, #256
 1021 013a CCF81030 		str	r3, [ip, #16]
 435:Drivers/STM32F4xx_HAL_Driver/Src/stm32f4xx_ll_usb.c **** 
 1022              		.loc 1 435 3 is_stmt 1 view .LVU328
 435:Drivers/STM32F4xx_HAL_Driver/Src/stm32f4xx_ll_usb.c **** 
 1023              		.loc 1 435 17 is_stmt 0 view .LVU329
 1024 013e 0023     		movs	r3, #0
 1025 0140 A361     		str	r3, [r4, #24]
 438:Drivers/STM32F4xx_HAL_Driver/Src/stm32f4xx_ll_usb.c **** 
 1026              		.loc 1 438 3 is_stmt 1 view .LVU330
 438:Drivers/STM32F4xx_HAL_Driver/Src/stm32f4xx_ll_usb.c **** 
 1027              		.loc 1 438 17 is_stmt 0 view .LVU331
 1028 0142 6FF08043 		mvn	r3, #1073741824
 1029 0146 6361     		str	r3, [r4, #20]
 441:Drivers/STM32F4xx_HAL_Driver/Src/stm32f4xx_ll_usb.c ****   {
 1030              		.loc 1 441 3 is_stmt 1 view .LVU332
 441:Drivers/STM32F4xx_HAL_Driver/Src/stm32f4xx_ll_usb.c ****   {
 1031              		.loc 1 441 10 is_stmt 0 view .LVU333
 1032 0148 9DF81E30 		ldrb	r3, [sp, #30]	@ zero_extendqisi2
 441:Drivers/STM32F4xx_HAL_Driver/Src/stm32f4xx_ll_usb.c ****   {
 1033              		.loc 1 441 6 view .LVU334
 1034 014c 1BB9     		cbnz	r3, .L69
 443:Drivers/STM32F4xx_HAL_Driver/Src/stm32f4xx_ll_usb.c ****   }
 1035              		.loc 1 443 5 is_stmt 1 view .LVU335
 443:Drivers/STM32F4xx_HAL_Driver/Src/stm32f4xx_ll_usb.c ****   }
 1036              		.loc 1 443 9 is_stmt 0 view .LVU336
 1037 014e A369     		ldr	r3, [r4, #24]
 443:Drivers/STM32F4xx_HAL_Driver/Src/stm32f4xx_ll_usb.c ****   }
 1038              		.loc 1 443 19 view .LVU337
 1039 0150 43F01003 		orr	r3, r3, #16
 1040 0154 A361     		str	r3, [r4, #24]
 1041              	.L69:
 447:Drivers/STM32F4xx_HAL_Driver/Src/stm32f4xx_ll_usb.c ****                    USB_OTG_GINTMSK_ENUMDNEM | USB_OTG_GINTMSK_IEPINT |
 1042              		.loc 1 447 3 is_stmt 1 view .LVU338
 447:Drivers/STM32F4xx_HAL_Driver/Src/stm32f4xx_ll_usb.c ****                    USB_OTG_GINTMSK_ENUMDNEM | USB_OTG_GINTMSK_IEPINT |
 1043              		.loc 1 447 7 is_stmt 0 view .LVU339
 1044 0156 A269     		ldr	r2, [r4, #24]
 447:Drivers/STM32F4xx_HAL_Driver/Src/stm32f4xx_ll_usb.c ****                    USB_OTG_GINTMSK_ENUMDNEM | USB_OTG_GINTMSK_IEPINT |
 1045              		.loc 1 447 17 view .LVU340
 1046 0158 0B4B     		ldr	r3, .L81
 1047 015a 1343     		orrs	r3, r3, r2
 1048 015c A361     		str	r3, [r4, #24]
 452:Drivers/STM32F4xx_HAL_Driver/Src/stm32f4xx_ll_usb.c ****   {
 1049              		.loc 1 452 3 is_stmt 1 view .LVU341
 452:Drivers/STM32F4xx_HAL_Driver/Src/stm32f4xx_ll_usb.c ****   {
 1050              		.loc 1 452 10 is_stmt 0 view .LVU342
 1051 015e 9DF82230 		ldrb	r3, [sp, #34]	@ zero_extendqisi2
 452:Drivers/STM32F4xx_HAL_Driver/Src/stm32f4xx_ll_usb.c ****   {
 1052              		.loc 1 452 6 view .LVU343
 1053 0162 1BB1     		cbz	r3, .L70
 454:Drivers/STM32F4xx_HAL_Driver/Src/stm32f4xx_ll_usb.c ****   }
 1054              		.loc 1 454 5 is_stmt 1 view .LVU344
 454:Drivers/STM32F4xx_HAL_Driver/Src/stm32f4xx_ll_usb.c ****   }
 1055              		.loc 1 454 9 is_stmt 0 view .LVU345
 1056 0164 A369     		ldr	r3, [r4, #24]
 454:Drivers/STM32F4xx_HAL_Driver/Src/stm32f4xx_ll_usb.c ****   }
 1057              		.loc 1 454 19 view .LVU346
ARM GAS  C:\Users\marci\AppData\Local\Temp\ccNtE0Aw.s 			page 50


 1058 0166 43F00803 		orr	r3, r3, #8
 1059 016a A361     		str	r3, [r4, #24]
 1060              	.L70:
 457:Drivers/STM32F4xx_HAL_Driver/Src/stm32f4xx_ll_usb.c ****   {
 1061              		.loc 1 457 3 is_stmt 1 view .LVU347
 457:Drivers/STM32F4xx_HAL_Driver/Src/stm32f4xx_ll_usb.c ****   {
 1062              		.loc 1 457 6 is_stmt 0 view .LVU348
 1063 016c 012E     		cmp	r6, #1
 1064 016e 04D0     		beq	.L80
 1065              	.L71:
 462:Drivers/STM32F4xx_HAL_Driver/Src/stm32f4xx_ll_usb.c **** }
 1066              		.loc 1 462 3 is_stmt 1 view .LVU349
 463:Drivers/STM32F4xx_HAL_Driver/Src/stm32f4xx_ll_usb.c **** 
 1067              		.loc 1 463 1 is_stmt 0 view .LVU350
 1068 0170 2846     		mov	r0, r5
 1069 0172 BDE8F840 		pop	{r3, r4, r5, r6, r7, lr}
 1070              	.LCFI16:
 1071              		.cfi_remember_state
 1072              		.cfi_restore 14
 1073              		.cfi_restore 7
 1074              		.cfi_restore 6
 1075              		.cfi_restore 5
 1076              		.cfi_restore 4
 1077              		.cfi_restore 3
 1078              		.cfi_def_cfa_offset 16
 1079              	.LVL59:
 463:Drivers/STM32F4xx_HAL_Driver/Src/stm32f4xx_ll_usb.c **** 
 1080              		.loc 1 463 1 view .LVU351
 1081 0176 04B0     		add	sp, sp, #16
 1082              	.LCFI17:
 1083              		.cfi_def_cfa_offset 0
 1084 0178 7047     		bx	lr
 1085              	.LVL60:
 1086              	.L80:
 1087              	.LCFI18:
 1088              		.cfi_restore_state
 459:Drivers/STM32F4xx_HAL_Driver/Src/stm32f4xx_ll_usb.c ****   }
 1089              		.loc 1 459 5 is_stmt 1 view .LVU352
 459:Drivers/STM32F4xx_HAL_Driver/Src/stm32f4xx_ll_usb.c ****   }
 1090              		.loc 1 459 9 is_stmt 0 view .LVU353
 1091 017a A369     		ldr	r3, [r4, #24]
 459:Drivers/STM32F4xx_HAL_Driver/Src/stm32f4xx_ll_usb.c ****   }
 1092              		.loc 1 459 19 view .LVU354
 1093 017c 43F08043 		orr	r3, r3, #1073741824
 1094 0180 43F00403 		orr	r3, r3, #4
 1095 0184 A361     		str	r3, [r4, #24]
 1096 0186 F3E7     		b	.L71
 1097              	.L82:
 1098              		.align	2
 1099              	.L81:
 1100 0188 00383C80 		.word	-2143537152
 1101              		.cfi_endproc
 1102              	.LFE139:
 1104              		.section	.text.USB_GetDevSpeed,"ax",%progbits
 1105              		.align	1
 1106              		.global	USB_GetDevSpeed
 1107              		.syntax unified
ARM GAS  C:\Users\marci\AppData\Local\Temp\ccNtE0Aw.s 			page 51


 1108              		.thumb
 1109              		.thumb_func
 1111              	USB_GetDevSpeed:
 1112              	.LVL61:
 1113              	.LFB143:
 570:Drivers/STM32F4xx_HAL_Driver/Src/stm32f4xx_ll_usb.c ****   uint32_t USBx_BASE = (uint32_t)USBx;
 1114              		.loc 1 570 1 is_stmt 1 view -0
 1115              		.cfi_startproc
 1116              		@ args = 0, pretend = 0, frame = 0
 1117              		@ frame_needed = 0, uses_anonymous_args = 0
 1118              		@ link register save eliminated.
 571:Drivers/STM32F4xx_HAL_Driver/Src/stm32f4xx_ll_usb.c ****   uint8_t speed;
 1119              		.loc 1 571 3 view .LVU356
 572:Drivers/STM32F4xx_HAL_Driver/Src/stm32f4xx_ll_usb.c ****   uint32_t DevEnumSpeed = USBx_DEVICE->DSTS & USB_OTG_DSTS_ENUMSPD;
 1120              		.loc 1 572 3 view .LVU357
 573:Drivers/STM32F4xx_HAL_Driver/Src/stm32f4xx_ll_usb.c **** 
 1121              		.loc 1 573 3 view .LVU358
 573:Drivers/STM32F4xx_HAL_Driver/Src/stm32f4xx_ll_usb.c **** 
 1122              		.loc 1 573 38 is_stmt 0 view .LVU359
 1123 0000 D0F80838 		ldr	r3, [r0, #2056]
 573:Drivers/STM32F4xx_HAL_Driver/Src/stm32f4xx_ll_usb.c **** 
 1124              		.loc 1 573 12 view .LVU360
 1125 0004 03F00603 		and	r3, r3, #6
 1126              	.LVL62:
 575:Drivers/STM32F4xx_HAL_Driver/Src/stm32f4xx_ll_usb.c ****   {
 1127              		.loc 1 575 3 is_stmt 1 view .LVU361
 1128 0008 022B     		cmp	r3, #2
 1129 000a 04D0     		beq	.L85
 1130 000c 062B     		cmp	r3, #6
 1131 000e 04D0     		beq	.L86
 1132 0010 2BB9     		cbnz	r3, .L87
 573:Drivers/STM32F4xx_HAL_Driver/Src/stm32f4xx_ll_usb.c **** 
 1133              		.loc 1 573 12 is_stmt 0 view .LVU362
 1134 0012 0020     		movs	r0, #0
 1135              	.LVL63:
 573:Drivers/STM32F4xx_HAL_Driver/Src/stm32f4xx_ll_usb.c **** 
 1136              		.loc 1 573 12 view .LVU363
 1137 0014 7047     		bx	lr
 1138              	.LVL64:
 1139              	.L85:
 573:Drivers/STM32F4xx_HAL_Driver/Src/stm32f4xx_ll_usb.c **** 
 1140              		.loc 1 573 12 view .LVU364
 1141 0016 0220     		movs	r0, #2
 1142              	.LVL65:
 573:Drivers/STM32F4xx_HAL_Driver/Src/stm32f4xx_ll_usb.c **** 
 1143              		.loc 1 573 12 view .LVU365
 1144 0018 7047     		bx	lr
 1145              	.LVL66:
 1146              	.L86:
 573:Drivers/STM32F4xx_HAL_Driver/Src/stm32f4xx_ll_usb.c **** 
 1147              		.loc 1 573 12 view .LVU366
 1148 001a 0220     		movs	r0, #2
 1149              	.LVL67:
 573:Drivers/STM32F4xx_HAL_Driver/Src/stm32f4xx_ll_usb.c **** 
 1150              		.loc 1 573 12 view .LVU367
 1151 001c 7047     		bx	lr
 1152              	.LVL68:
ARM GAS  C:\Users\marci\AppData\Local\Temp\ccNtE0Aw.s 			page 52


 1153              	.L87:
 573:Drivers/STM32F4xx_HAL_Driver/Src/stm32f4xx_ll_usb.c **** 
 1154              		.loc 1 573 12 view .LVU368
 1155 001e 0F20     		movs	r0, #15
 1156              	.LVL69:
 589:Drivers/STM32F4xx_HAL_Driver/Src/stm32f4xx_ll_usb.c **** }
 1157              		.loc 1 589 3 is_stmt 1 view .LVU369
 590:Drivers/STM32F4xx_HAL_Driver/Src/stm32f4xx_ll_usb.c **** 
 1158              		.loc 1 590 1 is_stmt 0 view .LVU370
 1159 0020 7047     		bx	lr
 1160              		.cfi_endproc
 1161              	.LFE143:
 1163              		.section	.text.USB_ActivateEndpoint,"ax",%progbits
 1164              		.align	1
 1165              		.global	USB_ActivateEndpoint
 1166              		.syntax unified
 1167              		.thumb
 1168              		.thumb_func
 1170              	USB_ActivateEndpoint:
 1171              	.LVL70:
 1172              	.LFB144:
 599:Drivers/STM32F4xx_HAL_Driver/Src/stm32f4xx_ll_usb.c ****   uint32_t USBx_BASE = (uint32_t)USBx;
 1173              		.loc 1 599 1 is_stmt 1 view -0
 1174              		.cfi_startproc
 1175              		@ args = 0, pretend = 0, frame = 0
 1176              		@ frame_needed = 0, uses_anonymous_args = 0
 599:Drivers/STM32F4xx_HAL_Driver/Src/stm32f4xx_ll_usb.c ****   uint32_t USBx_BASE = (uint32_t)USBx;
 1177              		.loc 1 599 1 is_stmt 0 view .LVU372
 1178 0000 10B5     		push	{r4, lr}
 1179              	.LCFI19:
 1180              		.cfi_def_cfa_offset 8
 1181              		.cfi_offset 4, -8
 1182              		.cfi_offset 14, -4
 600:Drivers/STM32F4xx_HAL_Driver/Src/stm32f4xx_ll_usb.c ****   uint32_t epnum = (uint32_t)ep->num;
 1183              		.loc 1 600 3 is_stmt 1 view .LVU373
 1184              	.LVL71:
 601:Drivers/STM32F4xx_HAL_Driver/Src/stm32f4xx_ll_usb.c **** 
 1185              		.loc 1 601 3 view .LVU374
 601:Drivers/STM32F4xx_HAL_Driver/Src/stm32f4xx_ll_usb.c **** 
 1186              		.loc 1 601 32 is_stmt 0 view .LVU375
 1187 0002 91F800C0 		ldrb	ip, [r1]	@ zero_extendqisi2
 1188              	.LVL72:
 603:Drivers/STM32F4xx_HAL_Driver/Src/stm32f4xx_ll_usb.c ****   {
 1189              		.loc 1 603 3 is_stmt 1 view .LVU376
 603:Drivers/STM32F4xx_HAL_Driver/Src/stm32f4xx_ll_usb.c ****   {
 1190              		.loc 1 603 9 is_stmt 0 view .LVU377
 1191 0006 4B78     		ldrb	r3, [r1, #1]	@ zero_extendqisi2
 603:Drivers/STM32F4xx_HAL_Driver/Src/stm32f4xx_ll_usb.c ****   {
 1192              		.loc 1 603 6 view .LVU378
 1193 0008 012B     		cmp	r3, #1
 1194 000a 23D0     		beq	.L92
 617:Drivers/STM32F4xx_HAL_Driver/Src/stm32f4xx_ll_usb.c **** 
 1195              		.loc 1 617 5 is_stmt 1 view .LVU379
 617:Drivers/STM32F4xx_HAL_Driver/Src/stm32f4xx_ll_usb.c **** 
 1196              		.loc 1 617 16 is_stmt 0 view .LVU380
 1197 000c 00F5006E 		add	lr, r0, #2048
 1198 0010 D0F81C38 		ldr	r3, [r0, #2076]
ARM GAS  C:\Users\marci\AppData\Local\Temp\ccNtE0Aw.s 			page 53


 617:Drivers/STM32F4xx_HAL_Driver/Src/stm32f4xx_ll_usb.c **** 
 1199              		.loc 1 617 82 view .LVU381
 1200 0014 0CF00F04 		and	r4, ip, #15
 617:Drivers/STM32F4xx_HAL_Driver/Src/stm32f4xx_ll_usb.c **** 
 1201              		.loc 1 617 55 view .LVU382
 1202 0018 0122     		movs	r2, #1
 1203 001a A240     		lsls	r2, r2, r4
 617:Drivers/STM32F4xx_HAL_Driver/Src/stm32f4xx_ll_usb.c **** 
 1204              		.loc 1 617 27 view .LVU383
 1205 001c 43EA0243 		orr	r3, r3, r2, lsl #16
 1206 0020 C0F81C38 		str	r3, [r0, #2076]
 619:Drivers/STM32F4xx_HAL_Driver/Src/stm32f4xx_ll_usb.c ****     {
 1207              		.loc 1 619 5 is_stmt 1 view .LVU384
 619:Drivers/STM32F4xx_HAL_Driver/Src/stm32f4xx_ll_usb.c ****     {
 1208              		.loc 1 619 11 is_stmt 0 view .LVU385
 1209 0024 00EB4C10 		add	r0, r0, ip, lsl #5
 1210              	.LVL73:
 619:Drivers/STM32F4xx_HAL_Driver/Src/stm32f4xx_ll_usb.c ****     {
 1211              		.loc 1 619 28 view .LVU386
 1212 0028 D0F8003B 		ldr	r3, [r0, #2816]
 619:Drivers/STM32F4xx_HAL_Driver/Src/stm32f4xx_ll_usb.c ****     {
 1213              		.loc 1 619 8 view .LVU387
 1214 002c 13F4004F 		tst	r3, #32768
 1215 0030 0ED1     		bne	.L90
 621:Drivers/STM32F4xx_HAL_Driver/Src/stm32f4xx_ll_usb.c ****                                     ((uint32_t)ep->type << 18) |
 1216              		.loc 1 621 7 is_stmt 1 view .LVU388
 621:Drivers/STM32F4xx_HAL_Driver/Src/stm32f4xx_ll_usb.c ****                                     ((uint32_t)ep->type << 18) |
 1217              		.loc 1 621 24 is_stmt 0 view .LVU389
 1218 0032 D0F8003B 		ldr	r3, [r0, #2816]
 621:Drivers/STM32F4xx_HAL_Driver/Src/stm32f4xx_ll_usb.c ****                                     ((uint32_t)ep->type << 18) |
 1219              		.loc 1 621 40 view .LVU390
 1220 0036 8A68     		ldr	r2, [r1, #8]
 621:Drivers/STM32F4xx_HAL_Driver/Src/stm32f4xx_ll_usb.c ****                                     ((uint32_t)ep->type << 18) |
 1221              		.loc 1 621 52 view .LVU391
 1222 0038 C2F30A02 		ubfx	r2, r2, #0, #11
 622:Drivers/STM32F4xx_HAL_Driver/Src/stm32f4xx_ll_usb.c ****                                     USB_OTG_DIEPCTL_SD0PID_SEVNFRM |
 1223              		.loc 1 622 50 view .LVU392
 1224 003c 0979     		ldrb	r1, [r1, #4]	@ zero_extendqisi2
 1225              	.LVL74:
 621:Drivers/STM32F4xx_HAL_Driver/Src/stm32f4xx_ll_usb.c ****                                     ((uint32_t)ep->type << 18) |
 1226              		.loc 1 621 77 view .LVU393
 1227 003e 42EA8142 		orr	r2, r2, r1, lsl #18
 621:Drivers/STM32F4xx_HAL_Driver/Src/stm32f4xx_ll_usb.c ****                                     ((uint32_t)ep->type << 18) |
 1228              		.loc 1 621 34 view .LVU394
 1229 0042 1343     		orrs	r3, r3, r2
 1230 0044 43F08053 		orr	r3, r3, #268435456
 1231 0048 43F40043 		orr	r3, r3, #32768
 1232 004c C0F8003B 		str	r3, [r0, #2816]
 1233              	.LVL75:
 1234              	.L90:
 627:Drivers/STM32F4xx_HAL_Driver/Src/stm32f4xx_ll_usb.c **** }
 1235              		.loc 1 627 3 is_stmt 1 view .LVU395
 628:Drivers/STM32F4xx_HAL_Driver/Src/stm32f4xx_ll_usb.c **** 
 1236              		.loc 1 628 1 is_stmt 0 view .LVU396
 1237 0050 0020     		movs	r0, #0
 1238 0052 10BD     		pop	{r4, pc}
 1239              	.LVL76:
ARM GAS  C:\Users\marci\AppData\Local\Temp\ccNtE0Aw.s 			page 54


 1240              	.L92:
 605:Drivers/STM32F4xx_HAL_Driver/Src/stm32f4xx_ll_usb.c **** 
 1241              		.loc 1 605 5 is_stmt 1 view .LVU397
 605:Drivers/STM32F4xx_HAL_Driver/Src/stm32f4xx_ll_usb.c **** 
 1242              		.loc 1 605 16 is_stmt 0 view .LVU398
 1243 0054 D0F81C28 		ldr	r2, [r0, #2076]
 605:Drivers/STM32F4xx_HAL_Driver/Src/stm32f4xx_ll_usb.c **** 
 1244              		.loc 1 605 81 view .LVU399
 1245 0058 0CF00F0E 		and	lr, ip, #15
 605:Drivers/STM32F4xx_HAL_Driver/Src/stm32f4xx_ll_usb.c **** 
 1246              		.loc 1 605 54 view .LVU400
 1247 005c 03FA0EF3 		lsl	r3, r3, lr
 605:Drivers/STM32F4xx_HAL_Driver/Src/stm32f4xx_ll_usb.c **** 
 1248              		.loc 1 605 52 view .LVU401
 1249 0060 9BB2     		uxth	r3, r3
 605:Drivers/STM32F4xx_HAL_Driver/Src/stm32f4xx_ll_usb.c **** 
 1250              		.loc 1 605 27 view .LVU402
 1251 0062 1343     		orrs	r3, r3, r2
 1252 0064 C0F81C38 		str	r3, [r0, #2076]
 607:Drivers/STM32F4xx_HAL_Driver/Src/stm32f4xx_ll_usb.c ****     {
 1253              		.loc 1 607 5 is_stmt 1 view .LVU403
 607:Drivers/STM32F4xx_HAL_Driver/Src/stm32f4xx_ll_usb.c ****     {
 1254              		.loc 1 607 10 is_stmt 0 view .LVU404
 1255 0068 00EB4C10 		add	r0, r0, ip, lsl #5
 1256              	.LVL77:
 607:Drivers/STM32F4xx_HAL_Driver/Src/stm32f4xx_ll_usb.c ****     {
 1257              		.loc 1 607 26 view .LVU405
 1258 006c D0F80039 		ldr	r3, [r0, #2304]
 607:Drivers/STM32F4xx_HAL_Driver/Src/stm32f4xx_ll_usb.c ****     {
 1259              		.loc 1 607 8 view .LVU406
 1260 0070 13F4004F 		tst	r3, #32768
 1261 0074 ECD1     		bne	.L90
 609:Drivers/STM32F4xx_HAL_Driver/Src/stm32f4xx_ll_usb.c ****                                    ((uint32_t)ep->type << 18) | (epnum << 22) |
 1262              		.loc 1 609 7 is_stmt 1 view .LVU407
 609:Drivers/STM32F4xx_HAL_Driver/Src/stm32f4xx_ll_usb.c ****                                    ((uint32_t)ep->type << 18) | (epnum << 22) |
 1263              		.loc 1 609 23 is_stmt 0 view .LVU408
 1264 0076 D0F80039 		ldr	r3, [r0, #2304]
 609:Drivers/STM32F4xx_HAL_Driver/Src/stm32f4xx_ll_usb.c ****                                    ((uint32_t)ep->type << 18) | (epnum << 22) |
 1265              		.loc 1 609 39 view .LVU409
 1266 007a 8A68     		ldr	r2, [r1, #8]
 609:Drivers/STM32F4xx_HAL_Driver/Src/stm32f4xx_ll_usb.c ****                                    ((uint32_t)ep->type << 18) | (epnum << 22) |
 1267              		.loc 1 609 51 view .LVU410
 1268 007c C2F30A02 		ubfx	r2, r2, #0, #11
 610:Drivers/STM32F4xx_HAL_Driver/Src/stm32f4xx_ll_usb.c ****                                    USB_OTG_DIEPCTL_SD0PID_SEVNFRM |
 1269              		.loc 1 610 49 view .LVU411
 1270 0080 0979     		ldrb	r1, [r1, #4]	@ zero_extendqisi2
 1271              	.LVL78:
 609:Drivers/STM32F4xx_HAL_Driver/Src/stm32f4xx_ll_usb.c ****                                    ((uint32_t)ep->type << 18) | (epnum << 22) |
 1272              		.loc 1 609 76 view .LVU412
 1273 0082 42EA8142 		orr	r2, r2, r1, lsl #18
 610:Drivers/STM32F4xx_HAL_Driver/Src/stm32f4xx_ll_usb.c ****                                    USB_OTG_DIEPCTL_SD0PID_SEVNFRM |
 1274              		.loc 1 610 63 view .LVU413
 1275 0086 42EA8C52 		orr	r2, r2, ip, lsl #22
 609:Drivers/STM32F4xx_HAL_Driver/Src/stm32f4xx_ll_usb.c ****                                    ((uint32_t)ep->type << 18) | (epnum << 22) |
 1276              		.loc 1 609 33 view .LVU414
 1277 008a 1343     		orrs	r3, r3, r2
 1278 008c 43F08053 		orr	r3, r3, #268435456
ARM GAS  C:\Users\marci\AppData\Local\Temp\ccNtE0Aw.s 			page 55


 1279 0090 43F40043 		orr	r3, r3, #32768
 1280 0094 C0F80039 		str	r3, [r0, #2304]
 1281 0098 DAE7     		b	.L90
 1282              		.cfi_endproc
 1283              	.LFE144:
 1285              		.section	.text.USB_ActivateDedicatedEndpoint,"ax",%progbits
 1286              		.align	1
 1287              		.global	USB_ActivateDedicatedEndpoint
 1288              		.syntax unified
 1289              		.thumb
 1290              		.thumb_func
 1292              	USB_ActivateDedicatedEndpoint:
 1293              	.LVL79:
 1294              	.LFB145:
 637:Drivers/STM32F4xx_HAL_Driver/Src/stm32f4xx_ll_usb.c ****   uint32_t USBx_BASE = (uint32_t)USBx;
 1295              		.loc 1 637 1 is_stmt 1 view -0
 1296              		.cfi_startproc
 1297              		@ args = 0, pretend = 0, frame = 0
 1298              		@ frame_needed = 0, uses_anonymous_args = 0
 637:Drivers/STM32F4xx_HAL_Driver/Src/stm32f4xx_ll_usb.c ****   uint32_t USBx_BASE = (uint32_t)USBx;
 1299              		.loc 1 637 1 is_stmt 0 view .LVU416
 1300 0000 10B5     		push	{r4, lr}
 1301              	.LCFI20:
 1302              		.cfi_def_cfa_offset 8
 1303              		.cfi_offset 4, -8
 1304              		.cfi_offset 14, -4
 638:Drivers/STM32F4xx_HAL_Driver/Src/stm32f4xx_ll_usb.c ****   uint32_t epnum = (uint32_t)ep->num;
 1305              		.loc 1 638 3 is_stmt 1 view .LVU417
 1306              	.LVL80:
 639:Drivers/STM32F4xx_HAL_Driver/Src/stm32f4xx_ll_usb.c **** 
 1307              		.loc 1 639 3 view .LVU418
 639:Drivers/STM32F4xx_HAL_Driver/Src/stm32f4xx_ll_usb.c **** 
 1308              		.loc 1 639 32 is_stmt 0 view .LVU419
 1309 0002 0A78     		ldrb	r2, [r1]	@ zero_extendqisi2
 1310              	.LVL81:
 642:Drivers/STM32F4xx_HAL_Driver/Src/stm32f4xx_ll_usb.c ****   {
 1311              		.loc 1 642 3 is_stmt 1 view .LVU420
 642:Drivers/STM32F4xx_HAL_Driver/Src/stm32f4xx_ll_usb.c ****   {
 1312              		.loc 1 642 9 is_stmt 0 view .LVU421
 1313 0004 4B78     		ldrb	r3, [r1, #1]	@ zero_extendqisi2
 642:Drivers/STM32F4xx_HAL_Driver/Src/stm32f4xx_ll_usb.c ****   {
 1314              		.loc 1 642 6 view .LVU422
 1315 0006 012B     		cmp	r3, #1
 1316 0008 23D0     		beq	.L99
 656:Drivers/STM32F4xx_HAL_Driver/Src/stm32f4xx_ll_usb.c ****     {
 1317              		.loc 1 656 5 is_stmt 1 view .LVU423
 656:Drivers/STM32F4xx_HAL_Driver/Src/stm32f4xx_ll_usb.c ****     {
 1318              		.loc 1 656 11 is_stmt 0 view .LVU424
 1319 000a 00EB421C 		add	ip, r0, r2, lsl #5
 656:Drivers/STM32F4xx_HAL_Driver/Src/stm32f4xx_ll_usb.c ****     {
 1320              		.loc 1 656 28 view .LVU425
 1321 000e DCF8003B 		ldr	r3, [ip, #2816]
 656:Drivers/STM32F4xx_HAL_Driver/Src/stm32f4xx_ll_usb.c ****     {
 1322              		.loc 1 656 8 view .LVU426
 1323 0012 13F4004F 		tst	r3, #32768
 1324 0016 0FD1     		bne	.L97
 658:Drivers/STM32F4xx_HAL_Driver/Src/stm32f4xx_ll_usb.c ****                                     ((uint32_t)ep->type << 18) | (epnum << 22) |
ARM GAS  C:\Users\marci\AppData\Local\Temp\ccNtE0Aw.s 			page 56


 1325              		.loc 1 658 7 is_stmt 1 view .LVU427
 658:Drivers/STM32F4xx_HAL_Driver/Src/stm32f4xx_ll_usb.c ****                                     ((uint32_t)ep->type << 18) | (epnum << 22) |
 1326              		.loc 1 658 24 is_stmt 0 view .LVU428
 1327 0018 DCF8004B 		ldr	r4, [ip, #2816]
 658:Drivers/STM32F4xx_HAL_Driver/Src/stm32f4xx_ll_usb.c ****                                     ((uint32_t)ep->type << 18) | (epnum << 22) |
 1328              		.loc 1 658 40 view .LVU429
 1329 001c 8B68     		ldr	r3, [r1, #8]
 658:Drivers/STM32F4xx_HAL_Driver/Src/stm32f4xx_ll_usb.c ****                                     ((uint32_t)ep->type << 18) | (epnum << 22) |
 1330              		.loc 1 658 52 view .LVU430
 1331 001e C3F30A03 		ubfx	r3, r3, #0, #11
 659:Drivers/STM32F4xx_HAL_Driver/Src/stm32f4xx_ll_usb.c ****                                     USB_OTG_DOEPCTL_USBAEP;
 1332              		.loc 1 659 50 view .LVU431
 1333 0022 91F804E0 		ldrb	lr, [r1, #4]	@ zero_extendqisi2
 658:Drivers/STM32F4xx_HAL_Driver/Src/stm32f4xx_ll_usb.c ****                                     ((uint32_t)ep->type << 18) | (epnum << 22) |
 1334              		.loc 1 658 77 view .LVU432
 1335 0026 43EA8E43 		orr	r3, r3, lr, lsl #18
 659:Drivers/STM32F4xx_HAL_Driver/Src/stm32f4xx_ll_usb.c ****                                     USB_OTG_DOEPCTL_USBAEP;
 1336              		.loc 1 659 64 view .LVU433
 1337 002a 43EA8253 		orr	r3, r3, r2, lsl #22
 658:Drivers/STM32F4xx_HAL_Driver/Src/stm32f4xx_ll_usb.c ****                                     ((uint32_t)ep->type << 18) | (epnum << 22) |
 1338              		.loc 1 658 34 view .LVU434
 1339 002e 2343     		orrs	r3, r3, r4
 1340 0030 43F40043 		orr	r3, r3, #32768
 1341 0034 CCF8003B 		str	r3, [ip, #2816]
 1342              	.L97:
 663:Drivers/STM32F4xx_HAL_Driver/Src/stm32f4xx_ll_usb.c ****   }
 1343              		.loc 1 663 5 is_stmt 1 view .LVU435
 663:Drivers/STM32F4xx_HAL_Driver/Src/stm32f4xx_ll_usb.c ****   }
 1344              		.loc 1 663 16 is_stmt 0 view .LVU436
 1345 0038 D0F83C38 		ldr	r3, [r0, #2108]
 663:Drivers/STM32F4xx_HAL_Driver/Src/stm32f4xx_ll_usb.c ****   }
 1346              		.loc 1 663 76 view .LVU437
 1347 003c 0978     		ldrb	r1, [r1]	@ zero_extendqisi2
 1348              	.LVL82:
 663:Drivers/STM32F4xx_HAL_Driver/Src/stm32f4xx_ll_usb.c ****   }
 1349              		.loc 1 663 82 view .LVU438
 1350 003e 01F00F01 		and	r1, r1, #15
 663:Drivers/STM32F4xx_HAL_Driver/Src/stm32f4xx_ll_usb.c ****   }
 1351              		.loc 1 663 55 view .LVU439
 1352 0042 0122     		movs	r2, #1
 1353              	.LVL83:
 663:Drivers/STM32F4xx_HAL_Driver/Src/stm32f4xx_ll_usb.c ****   }
 1354              		.loc 1 663 55 view .LVU440
 1355 0044 8A40     		lsls	r2, r2, r1
 663:Drivers/STM32F4xx_HAL_Driver/Src/stm32f4xx_ll_usb.c ****   }
 1356              		.loc 1 663 27 view .LVU441
 1357 0046 43EA0243 		orr	r3, r3, r2, lsl #16
 1358 004a C0F83C38 		str	r3, [r0, #2108]
 1359              	.L96:
 666:Drivers/STM32F4xx_HAL_Driver/Src/stm32f4xx_ll_usb.c **** }
 1360              		.loc 1 666 3 is_stmt 1 view .LVU442
 667:Drivers/STM32F4xx_HAL_Driver/Src/stm32f4xx_ll_usb.c **** 
 1361              		.loc 1 667 1 is_stmt 0 view .LVU443
 1362 004e 0020     		movs	r0, #0
 1363              	.LVL84:
 667:Drivers/STM32F4xx_HAL_Driver/Src/stm32f4xx_ll_usb.c **** 
 1364              		.loc 1 667 1 view .LVU444
ARM GAS  C:\Users\marci\AppData\Local\Temp\ccNtE0Aw.s 			page 57


 1365 0050 10BD     		pop	{r4, pc}
 1366              	.LVL85:
 1367              	.L99:
 644:Drivers/STM32F4xx_HAL_Driver/Src/stm32f4xx_ll_usb.c ****     {
 1368              		.loc 1 644 5 is_stmt 1 view .LVU445
 644:Drivers/STM32F4xx_HAL_Driver/Src/stm32f4xx_ll_usb.c ****     {
 1369              		.loc 1 644 11 is_stmt 0 view .LVU446
 1370 0052 00EB421C 		add	ip, r0, r2, lsl #5
 644:Drivers/STM32F4xx_HAL_Driver/Src/stm32f4xx_ll_usb.c ****     {
 1371              		.loc 1 644 27 view .LVU447
 1372 0056 DCF80039 		ldr	r3, [ip, #2304]
 644:Drivers/STM32F4xx_HAL_Driver/Src/stm32f4xx_ll_usb.c ****     {
 1373              		.loc 1 644 8 view .LVU448
 1374 005a 13F4004F 		tst	r3, #32768
 1375 005e 11D1     		bne	.L95
 646:Drivers/STM32F4xx_HAL_Driver/Src/stm32f4xx_ll_usb.c ****                                    ((uint32_t)ep->type << 18) | (epnum << 22) |
 1376              		.loc 1 646 7 is_stmt 1 view .LVU449
 646:Drivers/STM32F4xx_HAL_Driver/Src/stm32f4xx_ll_usb.c ****                                    ((uint32_t)ep->type << 18) | (epnum << 22) |
 1377              		.loc 1 646 23 is_stmt 0 view .LVU450
 1378 0060 DCF80039 		ldr	r3, [ip, #2304]
 646:Drivers/STM32F4xx_HAL_Driver/Src/stm32f4xx_ll_usb.c ****                                    ((uint32_t)ep->type << 18) | (epnum << 22) |
 1379              		.loc 1 646 39 view .LVU451
 1380 0064 8C68     		ldr	r4, [r1, #8]
 646:Drivers/STM32F4xx_HAL_Driver/Src/stm32f4xx_ll_usb.c ****                                    ((uint32_t)ep->type << 18) | (epnum << 22) |
 1381              		.loc 1 646 51 view .LVU452
 1382 0066 C4F30A04 		ubfx	r4, r4, #0, #11
 647:Drivers/STM32F4xx_HAL_Driver/Src/stm32f4xx_ll_usb.c ****                                    USB_OTG_DIEPCTL_SD0PID_SEVNFRM |
 1383              		.loc 1 647 49 view .LVU453
 1384 006a 91F804E0 		ldrb	lr, [r1, #4]	@ zero_extendqisi2
 646:Drivers/STM32F4xx_HAL_Driver/Src/stm32f4xx_ll_usb.c ****                                    ((uint32_t)ep->type << 18) | (epnum << 22) |
 1385              		.loc 1 646 76 view .LVU454
 1386 006e 44EA8E44 		orr	r4, r4, lr, lsl #18
 647:Drivers/STM32F4xx_HAL_Driver/Src/stm32f4xx_ll_usb.c ****                                    USB_OTG_DIEPCTL_SD0PID_SEVNFRM |
 1387              		.loc 1 647 63 view .LVU455
 1388 0072 44EA8254 		orr	r4, r4, r2, lsl #22
 646:Drivers/STM32F4xx_HAL_Driver/Src/stm32f4xx_ll_usb.c ****                                    ((uint32_t)ep->type << 18) | (epnum << 22) |
 1389              		.loc 1 646 33 view .LVU456
 1390 0076 2343     		orrs	r3, r3, r4
 1391 0078 43F08053 		orr	r3, r3, #268435456
 1392 007c 43F40043 		orr	r3, r3, #32768
 1393 0080 CCF80039 		str	r3, [ip, #2304]
 1394              	.L95:
 652:Drivers/STM32F4xx_HAL_Driver/Src/stm32f4xx_ll_usb.c ****   }
 1395              		.loc 1 652 5 is_stmt 1 view .LVU457
 652:Drivers/STM32F4xx_HAL_Driver/Src/stm32f4xx_ll_usb.c ****   }
 1396              		.loc 1 652 16 is_stmt 0 view .LVU458
 1397 0084 D0F83C28 		ldr	r2, [r0, #2108]
 1398              	.LVL86:
 652:Drivers/STM32F4xx_HAL_Driver/Src/stm32f4xx_ll_usb.c ****   }
 1399              		.loc 1 652 75 view .LVU459
 1400 0088 0978     		ldrb	r1, [r1]	@ zero_extendqisi2
 1401              	.LVL87:
 652:Drivers/STM32F4xx_HAL_Driver/Src/stm32f4xx_ll_usb.c ****   }
 1402              		.loc 1 652 81 view .LVU460
 1403 008a 01F00F01 		and	r1, r1, #15
 652:Drivers/STM32F4xx_HAL_Driver/Src/stm32f4xx_ll_usb.c ****   }
 1404              		.loc 1 652 54 view .LVU461
ARM GAS  C:\Users\marci\AppData\Local\Temp\ccNtE0Aw.s 			page 58


 1405 008e 0123     		movs	r3, #1
 1406 0090 8B40     		lsls	r3, r3, r1
 652:Drivers/STM32F4xx_HAL_Driver/Src/stm32f4xx_ll_usb.c ****   }
 1407              		.loc 1 652 52 view .LVU462
 1408 0092 9BB2     		uxth	r3, r3
 652:Drivers/STM32F4xx_HAL_Driver/Src/stm32f4xx_ll_usb.c ****   }
 1409              		.loc 1 652 27 view .LVU463
 1410 0094 1343     		orrs	r3, r3, r2
 1411 0096 C0F83C38 		str	r3, [r0, #2108]
 1412 009a D8E7     		b	.L96
 1413              		.cfi_endproc
 1414              	.LFE145:
 1416              		.section	.text.USB_DeactivateEndpoint,"ax",%progbits
 1417              		.align	1
 1418              		.global	USB_DeactivateEndpoint
 1419              		.syntax unified
 1420              		.thumb
 1421              		.thumb_func
 1423              	USB_DeactivateEndpoint:
 1424              	.LVL88:
 1425              	.LFB146:
 676:Drivers/STM32F4xx_HAL_Driver/Src/stm32f4xx_ll_usb.c ****   uint32_t USBx_BASE = (uint32_t)USBx;
 1426              		.loc 1 676 1 is_stmt 1 view -0
 1427              		.cfi_startproc
 1428              		@ args = 0, pretend = 0, frame = 0
 1429              		@ frame_needed = 0, uses_anonymous_args = 0
 1430              		@ link register save eliminated.
 676:Drivers/STM32F4xx_HAL_Driver/Src/stm32f4xx_ll_usb.c ****   uint32_t USBx_BASE = (uint32_t)USBx;
 1431              		.loc 1 676 1 is_stmt 0 view .LVU465
 1432 0000 30B4     		push	{r4, r5}
 1433              	.LCFI21:
 1434              		.cfi_def_cfa_offset 8
 1435              		.cfi_offset 4, -8
 1436              		.cfi_offset 5, -4
 677:Drivers/STM32F4xx_HAL_Driver/Src/stm32f4xx_ll_usb.c ****   uint32_t epnum = (uint32_t)ep->num;
 1437              		.loc 1 677 3 is_stmt 1 view .LVU466
 1438              	.LVL89:
 678:Drivers/STM32F4xx_HAL_Driver/Src/stm32f4xx_ll_usb.c **** 
 1439              		.loc 1 678 3 view .LVU467
 678:Drivers/STM32F4xx_HAL_Driver/Src/stm32f4xx_ll_usb.c **** 
 1440              		.loc 1 678 32 is_stmt 0 view .LVU468
 1441 0002 0B78     		ldrb	r3, [r1]	@ zero_extendqisi2
 1442              	.LVL90:
 681:Drivers/STM32F4xx_HAL_Driver/Src/stm32f4xx_ll_usb.c ****   {
 1443              		.loc 1 681 3 is_stmt 1 view .LVU469
 681:Drivers/STM32F4xx_HAL_Driver/Src/stm32f4xx_ll_usb.c ****   {
 1444              		.loc 1 681 9 is_stmt 0 view .LVU470
 1445 0004 4A78     		ldrb	r2, [r1, #1]	@ zero_extendqisi2
 681:Drivers/STM32F4xx_HAL_Driver/Src/stm32f4xx_ll_usb.c ****   {
 1446              		.loc 1 681 6 view .LVU471
 1447 0006 012A     		cmp	r2, #1
 1448 0008 26D0     		beq	.L106
 699:Drivers/STM32F4xx_HAL_Driver/Src/stm32f4xx_ll_usb.c ****     {
 1449              		.loc 1 699 5 is_stmt 1 view .LVU472
 699:Drivers/STM32F4xx_HAL_Driver/Src/stm32f4xx_ll_usb.c ****     {
 1450              		.loc 1 699 10 is_stmt 0 view .LVU473
 1451 000a 00EB4313 		add	r3, r0, r3, lsl #5
ARM GAS  C:\Users\marci\AppData\Local\Temp\ccNtE0Aw.s 			page 59


 1452              	.LVL91:
 699:Drivers/STM32F4xx_HAL_Driver/Src/stm32f4xx_ll_usb.c ****     {
 1453              		.loc 1 699 27 view .LVU474
 1454 000e D3F8002B 		ldr	r2, [r3, #2816]
 699:Drivers/STM32F4xx_HAL_Driver/Src/stm32f4xx_ll_usb.c ****     {
 1455              		.loc 1 699 8 view .LVU475
 1456 0012 002A     		cmp	r2, #0
 1457 0014 52DB     		blt	.L107
 1458              	.LVL92:
 1459              	.L104:
 705:Drivers/STM32F4xx_HAL_Driver/Src/stm32f4xx_ll_usb.c ****     USBx_DEVICE->DAINTMSK &= ~(USB_OTG_DAINTMSK_OEPM & ((uint32_t)(1UL << (ep->num & EP_ADDR_MSK)) 
 1460              		.loc 1 705 5 is_stmt 1 view .LVU476
 705:Drivers/STM32F4xx_HAL_Driver/Src/stm32f4xx_ll_usb.c ****     USBx_DEVICE->DAINTMSK &= ~(USB_OTG_DAINTMSK_OEPM & ((uint32_t)(1UL << (ep->num & EP_ADDR_MSK)) 
 1461              		.loc 1 705 16 is_stmt 0 view .LVU477
 1462 0016 D0F83C48 		ldr	r4, [r0, #2108]
 705:Drivers/STM32F4xx_HAL_Driver/Src/stm32f4xx_ll_usb.c ****     USBx_DEVICE->DAINTMSK &= ~(USB_OTG_DAINTMSK_OEPM & ((uint32_t)(1UL << (ep->num & EP_ADDR_MSK)) 
 1463              		.loc 1 705 78 view .LVU478
 1464 001a 0A78     		ldrb	r2, [r1]	@ zero_extendqisi2
 705:Drivers/STM32F4xx_HAL_Driver/Src/stm32f4xx_ll_usb.c ****     USBx_DEVICE->DAINTMSK &= ~(USB_OTG_DAINTMSK_OEPM & ((uint32_t)(1UL << (ep->num & EP_ADDR_MSK)) 
 1465              		.loc 1 705 84 view .LVU479
 1466 001c 02F00F02 		and	r2, r2, #15
 705:Drivers/STM32F4xx_HAL_Driver/Src/stm32f4xx_ll_usb.c ****     USBx_DEVICE->DAINTMSK &= ~(USB_OTG_DAINTMSK_OEPM & ((uint32_t)(1UL << (ep->num & EP_ADDR_MSK)) 
 1467              		.loc 1 705 57 view .LVU480
 1468 0020 4FF0010C 		mov	ip, #1
 1469 0024 0CFA02F2 		lsl	r2, ip, r2
 705:Drivers/STM32F4xx_HAL_Driver/Src/stm32f4xx_ll_usb.c ****     USBx_DEVICE->DAINTMSK &= ~(USB_OTG_DAINTMSK_OEPM & ((uint32_t)(1UL << (ep->num & EP_ADDR_MSK)) 
 1470              		.loc 1 705 27 view .LVU481
 1471 0028 24EA0242 		bic	r2, r4, r2, lsl #16
 1472 002c C0F83C28 		str	r2, [r0, #2108]
 706:Drivers/STM32F4xx_HAL_Driver/Src/stm32f4xx_ll_usb.c ****     USBx_OUTEP(epnum)->DOEPCTL &= ~(USB_OTG_DOEPCTL_USBAEP |
 1473              		.loc 1 706 5 is_stmt 1 view .LVU482
 706:Drivers/STM32F4xx_HAL_Driver/Src/stm32f4xx_ll_usb.c ****     USBx_OUTEP(epnum)->DOEPCTL &= ~(USB_OTG_DOEPCTL_USBAEP |
 1474              		.loc 1 706 16 is_stmt 0 view .LVU483
 1475 0030 D0F81C28 		ldr	r2, [r0, #2076]
 706:Drivers/STM32F4xx_HAL_Driver/Src/stm32f4xx_ll_usb.c ****     USBx_OUTEP(epnum)->DOEPCTL &= ~(USB_OTG_DOEPCTL_USBAEP |
 1476              		.loc 1 706 78 view .LVU484
 1477 0034 0978     		ldrb	r1, [r1]	@ zero_extendqisi2
 1478              	.LVL93:
 706:Drivers/STM32F4xx_HAL_Driver/Src/stm32f4xx_ll_usb.c ****     USBx_OUTEP(epnum)->DOEPCTL &= ~(USB_OTG_DOEPCTL_USBAEP |
 1479              		.loc 1 706 84 view .LVU485
 1480 0036 01F00F01 		and	r1, r1, #15
 706:Drivers/STM32F4xx_HAL_Driver/Src/stm32f4xx_ll_usb.c ****     USBx_OUTEP(epnum)->DOEPCTL &= ~(USB_OTG_DOEPCTL_USBAEP |
 1481              		.loc 1 706 57 view .LVU486
 1482 003a 0CFA01FC 		lsl	ip, ip, r1
 706:Drivers/STM32F4xx_HAL_Driver/Src/stm32f4xx_ll_usb.c ****     USBx_OUTEP(epnum)->DOEPCTL &= ~(USB_OTG_DOEPCTL_USBAEP |
 1483              		.loc 1 706 27 view .LVU487
 1484 003e 22EA0C42 		bic	r2, r2, ip, lsl #16
 1485 0042 C0F81C28 		str	r2, [r0, #2076]
 707:Drivers/STM32F4xx_HAL_Driver/Src/stm32f4xx_ll_usb.c ****                                     USB_OTG_DOEPCTL_MPSIZ |
 1486              		.loc 1 707 5 is_stmt 1 view .LVU488
 707:Drivers/STM32F4xx_HAL_Driver/Src/stm32f4xx_ll_usb.c ****                                     USB_OTG_DOEPCTL_MPSIZ |
 1487              		.loc 1 707 22 is_stmt 0 view .LVU489
 1488 0046 D3F8001B 		ldr	r1, [r3, #2816]
 707:Drivers/STM32F4xx_HAL_Driver/Src/stm32f4xx_ll_usb.c ****                                     USB_OTG_DOEPCTL_MPSIZ |
 1489              		.loc 1 707 32 view .LVU490
 1490 004a 234A     		ldr	r2, .L109
 1491 004c 0A40     		ands	r2, r2, r1
ARM GAS  C:\Users\marci\AppData\Local\Temp\ccNtE0Aw.s 			page 60


 1492 004e C3F8002B 		str	r2, [r3, #2816]
 1493              	.L103:
 713:Drivers/STM32F4xx_HAL_Driver/Src/stm32f4xx_ll_usb.c **** }
 1494              		.loc 1 713 3 is_stmt 1 view .LVU491
 714:Drivers/STM32F4xx_HAL_Driver/Src/stm32f4xx_ll_usb.c **** 
 1495              		.loc 1 714 1 is_stmt 0 view .LVU492
 1496 0052 0020     		movs	r0, #0
 1497              	.LVL94:
 714:Drivers/STM32F4xx_HAL_Driver/Src/stm32f4xx_ll_usb.c **** 
 1498              		.loc 1 714 1 view .LVU493
 1499 0054 30BC     		pop	{r4, r5}
 1500              	.LCFI22:
 1501              		.cfi_remember_state
 1502              		.cfi_restore 5
 1503              		.cfi_restore 4
 1504              		.cfi_def_cfa_offset 0
 1505 0056 7047     		bx	lr
 1506              	.LVL95:
 1507              	.L106:
 1508              	.LCFI23:
 1509              		.cfi_restore_state
 683:Drivers/STM32F4xx_HAL_Driver/Src/stm32f4xx_ll_usb.c ****     {
 1510              		.loc 1 683 5 is_stmt 1 view .LVU494
 683:Drivers/STM32F4xx_HAL_Driver/Src/stm32f4xx_ll_usb.c ****     {
 1511              		.loc 1 683 10 is_stmt 0 view .LVU495
 1512 0058 00EB4313 		add	r3, r0, r3, lsl #5
 1513              	.LVL96:
 683:Drivers/STM32F4xx_HAL_Driver/Src/stm32f4xx_ll_usb.c ****     {
 1514              		.loc 1 683 26 view .LVU496
 1515 005c D3F80029 		ldr	r2, [r3, #2304]
 683:Drivers/STM32F4xx_HAL_Driver/Src/stm32f4xx_ll_usb.c ****     {
 1516              		.loc 1 683 8 view .LVU497
 1517 0060 002A     		cmp	r2, #0
 1518 0062 1EDB     		blt	.L108
 1519              	.LVL97:
 1520              	.L102:
 689:Drivers/STM32F4xx_HAL_Driver/Src/stm32f4xx_ll_usb.c ****     USBx_DEVICE->DAINTMSK &= ~(USB_OTG_DAINTMSK_IEPM & (uint32_t)(1UL << (ep->num & EP_ADDR_MSK)));
 1521              		.loc 1 689 5 is_stmt 1 view .LVU498
 689:Drivers/STM32F4xx_HAL_Driver/Src/stm32f4xx_ll_usb.c ****     USBx_DEVICE->DAINTMSK &= ~(USB_OTG_DAINTMSK_IEPM & (uint32_t)(1UL << (ep->num & EP_ADDR_MSK)));
 1522              		.loc 1 689 16 is_stmt 0 view .LVU499
 1523 0064 D0F83C58 		ldr	r5, [r0, #2108]
 689:Drivers/STM32F4xx_HAL_Driver/Src/stm32f4xx_ll_usb.c ****     USBx_DEVICE->DAINTMSK &= ~(USB_OTG_DAINTMSK_IEPM & (uint32_t)(1UL << (ep->num & EP_ADDR_MSK)));
 1524              		.loc 1 689 77 view .LVU500
 1525 0068 0A78     		ldrb	r2, [r1]	@ zero_extendqisi2
 689:Drivers/STM32F4xx_HAL_Driver/Src/stm32f4xx_ll_usb.c ****     USBx_DEVICE->DAINTMSK &= ~(USB_OTG_DAINTMSK_IEPM & (uint32_t)(1UL << (ep->num & EP_ADDR_MSK)));
 1526              		.loc 1 689 83 view .LVU501
 1527 006a 02F00F02 		and	r2, r2, #15
 689:Drivers/STM32F4xx_HAL_Driver/Src/stm32f4xx_ll_usb.c ****     USBx_DEVICE->DAINTMSK &= ~(USB_OTG_DAINTMSK_IEPM & (uint32_t)(1UL << (ep->num & EP_ADDR_MSK)));
 1528              		.loc 1 689 56 view .LVU502
 1529 006e 0124     		movs	r4, #1
 1530 0070 04FA02F2 		lsl	r2, r4, r2
 689:Drivers/STM32F4xx_HAL_Driver/Src/stm32f4xx_ll_usb.c ****     USBx_DEVICE->DAINTMSK &= ~(USB_OTG_DAINTMSK_IEPM & (uint32_t)(1UL << (ep->num & EP_ADDR_MSK)));
 1531              		.loc 1 689 54 view .LVU503
 1532 0074 92B2     		uxth	r2, r2
 689:Drivers/STM32F4xx_HAL_Driver/Src/stm32f4xx_ll_usb.c ****     USBx_DEVICE->DAINTMSK &= ~(USB_OTG_DAINTMSK_IEPM & (uint32_t)(1UL << (ep->num & EP_ADDR_MSK)));
 1533              		.loc 1 689 27 view .LVU504
 1534 0076 25EA0202 		bic	r2, r5, r2
ARM GAS  C:\Users\marci\AppData\Local\Temp\ccNtE0Aw.s 			page 61


 1535 007a C0F83C28 		str	r2, [r0, #2108]
 690:Drivers/STM32F4xx_HAL_Driver/Src/stm32f4xx_ll_usb.c ****     USBx_INEP(epnum)->DIEPCTL &= ~(USB_OTG_DIEPCTL_USBAEP |
 1536              		.loc 1 690 5 is_stmt 1 view .LVU505
 690:Drivers/STM32F4xx_HAL_Driver/Src/stm32f4xx_ll_usb.c ****     USBx_INEP(epnum)->DIEPCTL &= ~(USB_OTG_DIEPCTL_USBAEP |
 1537              		.loc 1 690 16 is_stmt 0 view .LVU506
 1538 007e D0F81C28 		ldr	r2, [r0, #2076]
 690:Drivers/STM32F4xx_HAL_Driver/Src/stm32f4xx_ll_usb.c ****     USBx_INEP(epnum)->DIEPCTL &= ~(USB_OTG_DIEPCTL_USBAEP |
 1539              		.loc 1 690 77 view .LVU507
 1540 0082 0978     		ldrb	r1, [r1]	@ zero_extendqisi2
 1541              	.LVL98:
 690:Drivers/STM32F4xx_HAL_Driver/Src/stm32f4xx_ll_usb.c ****     USBx_INEP(epnum)->DIEPCTL &= ~(USB_OTG_DIEPCTL_USBAEP |
 1542              		.loc 1 690 83 view .LVU508
 1543 0084 01F00F01 		and	r1, r1, #15
 690:Drivers/STM32F4xx_HAL_Driver/Src/stm32f4xx_ll_usb.c ****     USBx_INEP(epnum)->DIEPCTL &= ~(USB_OTG_DIEPCTL_USBAEP |
 1544              		.loc 1 690 56 view .LVU509
 1545 0088 8C40     		lsls	r4, r4, r1
 690:Drivers/STM32F4xx_HAL_Driver/Src/stm32f4xx_ll_usb.c ****     USBx_INEP(epnum)->DIEPCTL &= ~(USB_OTG_DIEPCTL_USBAEP |
 1546              		.loc 1 690 54 view .LVU510
 1547 008a A4B2     		uxth	r4, r4
 690:Drivers/STM32F4xx_HAL_Driver/Src/stm32f4xx_ll_usb.c ****     USBx_INEP(epnum)->DIEPCTL &= ~(USB_OTG_DIEPCTL_USBAEP |
 1548              		.loc 1 690 27 view .LVU511
 1549 008c 22EA0402 		bic	r2, r2, r4
 1550 0090 C0F81C28 		str	r2, [r0, #2076]
 691:Drivers/STM32F4xx_HAL_Driver/Src/stm32f4xx_ll_usb.c ****                                    USB_OTG_DIEPCTL_MPSIZ |
 1551              		.loc 1 691 5 is_stmt 1 view .LVU512
 691:Drivers/STM32F4xx_HAL_Driver/Src/stm32f4xx_ll_usb.c ****                                    USB_OTG_DIEPCTL_MPSIZ |
 1552              		.loc 1 691 21 is_stmt 0 view .LVU513
 1553 0094 D3F80019 		ldr	r1, [r3, #2304]
 691:Drivers/STM32F4xx_HAL_Driver/Src/stm32f4xx_ll_usb.c ****                                    USB_OTG_DIEPCTL_MPSIZ |
 1554              		.loc 1 691 31 view .LVU514
 1555 0098 104A     		ldr	r2, .L109+4
 1556 009a 0A40     		ands	r2, r2, r1
 1557 009c C3F80029 		str	r2, [r3, #2304]
 1558 00a0 D7E7     		b	.L103
 1559              	.LVL99:
 1560              	.L108:
 685:Drivers/STM32F4xx_HAL_Driver/Src/stm32f4xx_ll_usb.c ****       USBx_INEP(epnum)->DIEPCTL |= USB_OTG_DIEPCTL_EPDIS;
 1561              		.loc 1 685 7 is_stmt 1 view .LVU515
 685:Drivers/STM32F4xx_HAL_Driver/Src/stm32f4xx_ll_usb.c ****       USBx_INEP(epnum)->DIEPCTL |= USB_OTG_DIEPCTL_EPDIS;
 1562              		.loc 1 685 23 is_stmt 0 view .LVU516
 1563 00a2 D3F80029 		ldr	r2, [r3, #2304]
 685:Drivers/STM32F4xx_HAL_Driver/Src/stm32f4xx_ll_usb.c ****       USBx_INEP(epnum)->DIEPCTL |= USB_OTG_DIEPCTL_EPDIS;
 1564              		.loc 1 685 33 view .LVU517
 1565 00a6 42F00062 		orr	r2, r2, #134217728
 1566 00aa C3F80029 		str	r2, [r3, #2304]
 1567              	.LVL100:
 686:Drivers/STM32F4xx_HAL_Driver/Src/stm32f4xx_ll_usb.c ****     }
 1568              		.loc 1 686 7 is_stmt 1 view .LVU518
 686:Drivers/STM32F4xx_HAL_Driver/Src/stm32f4xx_ll_usb.c ****     }
 1569              		.loc 1 686 23 is_stmt 0 view .LVU519
 1570 00ae D3F80029 		ldr	r2, [r3, #2304]
 686:Drivers/STM32F4xx_HAL_Driver/Src/stm32f4xx_ll_usb.c ****     }
 1571              		.loc 1 686 33 view .LVU520
 1572 00b2 42F08042 		orr	r2, r2, #1073741824
 1573 00b6 C3F80029 		str	r2, [r3, #2304]
 1574 00ba D3E7     		b	.L102
 1575              	.LVL101:
ARM GAS  C:\Users\marci\AppData\Local\Temp\ccNtE0Aw.s 			page 62


 1576              	.L107:
 701:Drivers/STM32F4xx_HAL_Driver/Src/stm32f4xx_ll_usb.c ****       USBx_OUTEP(epnum)->DOEPCTL |= USB_OTG_DOEPCTL_EPDIS;
 1577              		.loc 1 701 7 is_stmt 1 view .LVU521
 701:Drivers/STM32F4xx_HAL_Driver/Src/stm32f4xx_ll_usb.c ****       USBx_OUTEP(epnum)->DOEPCTL |= USB_OTG_DOEPCTL_EPDIS;
 1578              		.loc 1 701 24 is_stmt 0 view .LVU522
 1579 00bc D3F8002B 		ldr	r2, [r3, #2816]
 701:Drivers/STM32F4xx_HAL_Driver/Src/stm32f4xx_ll_usb.c ****       USBx_OUTEP(epnum)->DOEPCTL |= USB_OTG_DOEPCTL_EPDIS;
 1580              		.loc 1 701 34 view .LVU523
 1581 00c0 42F00062 		orr	r2, r2, #134217728
 1582 00c4 C3F8002B 		str	r2, [r3, #2816]
 1583              	.LVL102:
 702:Drivers/STM32F4xx_HAL_Driver/Src/stm32f4xx_ll_usb.c ****     }
 1584              		.loc 1 702 7 is_stmt 1 view .LVU524
 702:Drivers/STM32F4xx_HAL_Driver/Src/stm32f4xx_ll_usb.c ****     }
 1585              		.loc 1 702 24 is_stmt 0 view .LVU525
 1586 00c8 D3F8002B 		ldr	r2, [r3, #2816]
 702:Drivers/STM32F4xx_HAL_Driver/Src/stm32f4xx_ll_usb.c ****     }
 1587              		.loc 1 702 34 view .LVU526
 1588 00cc 42F08042 		orr	r2, r2, #1073741824
 1589 00d0 C3F8002B 		str	r2, [r3, #2816]
 1590 00d4 9FE7     		b	.L104
 1591              	.L110:
 1592 00d6 00BF     		.align	2
 1593              	.L109:
 1594 00d8 0078F3EF 		.word	-269256704
 1595 00dc 007833EC 		.word	-332171264
 1596              		.cfi_endproc
 1597              	.LFE146:
 1599              		.section	.text.USB_DeactivateDedicatedEndpoint,"ax",%progbits
 1600              		.align	1
 1601              		.global	USB_DeactivateDedicatedEndpoint
 1602              		.syntax unified
 1603              		.thumb
 1604              		.thumb_func
 1606              	USB_DeactivateDedicatedEndpoint:
 1607              	.LVL103:
 1608              	.LFB147:
 723:Drivers/STM32F4xx_HAL_Driver/Src/stm32f4xx_ll_usb.c ****   uint32_t USBx_BASE = (uint32_t)USBx;
 1609              		.loc 1 723 1 is_stmt 1 view -0
 1610              		.cfi_startproc
 1611              		@ args = 0, pretend = 0, frame = 0
 1612              		@ frame_needed = 0, uses_anonymous_args = 0
 1613              		@ link register save eliminated.
 724:Drivers/STM32F4xx_HAL_Driver/Src/stm32f4xx_ll_usb.c ****   uint32_t epnum = (uint32_t)ep->num;
 1614              		.loc 1 724 3 view .LVU528
 725:Drivers/STM32F4xx_HAL_Driver/Src/stm32f4xx_ll_usb.c **** 
 1615              		.loc 1 725 3 view .LVU529
 725:Drivers/STM32F4xx_HAL_Driver/Src/stm32f4xx_ll_usb.c **** 
 1616              		.loc 1 725 32 is_stmt 0 view .LVU530
 1617 0000 0B78     		ldrb	r3, [r1]	@ zero_extendqisi2
 1618              	.LVL104:
 728:Drivers/STM32F4xx_HAL_Driver/Src/stm32f4xx_ll_usb.c ****   {
 1619              		.loc 1 728 3 is_stmt 1 view .LVU531
 728:Drivers/STM32F4xx_HAL_Driver/Src/stm32f4xx_ll_usb.c ****   {
 1620              		.loc 1 728 9 is_stmt 0 view .LVU532
 1621 0002 4A78     		ldrb	r2, [r1, #1]	@ zero_extendqisi2
 728:Drivers/STM32F4xx_HAL_Driver/Src/stm32f4xx_ll_usb.c ****   {
ARM GAS  C:\Users\marci\AppData\Local\Temp\ccNtE0Aw.s 			page 63


 1622              		.loc 1 728 6 view .LVU533
 1623 0004 012A     		cmp	r2, #1
 1624 0006 18D0     		beq	.L116
 741:Drivers/STM32F4xx_HAL_Driver/Src/stm32f4xx_ll_usb.c ****     {
 1625              		.loc 1 741 5 is_stmt 1 view .LVU534
 741:Drivers/STM32F4xx_HAL_Driver/Src/stm32f4xx_ll_usb.c ****     {
 1626              		.loc 1 741 10 is_stmt 0 view .LVU535
 1627 0008 00EB4313 		add	r3, r0, r3, lsl #5
 1628              	.LVL105:
 741:Drivers/STM32F4xx_HAL_Driver/Src/stm32f4xx_ll_usb.c ****     {
 1629              		.loc 1 741 27 view .LVU536
 1630 000c D3F8002B 		ldr	r2, [r3, #2816]
 741:Drivers/STM32F4xx_HAL_Driver/Src/stm32f4xx_ll_usb.c ****     {
 1631              		.loc 1 741 8 view .LVU537
 1632 0010 002A     		cmp	r2, #0
 1633 0012 38DB     		blt	.L117
 1634              	.LVL106:
 1635              	.L115:
 747:Drivers/STM32F4xx_HAL_Driver/Src/stm32f4xx_ll_usb.c ****     USBx_DEVICE->DAINTMSK &= ~(USB_OTG_DAINTMSK_OEPM & ((uint32_t)(1UL << (ep->num & EP_ADDR_MSK)) 
 1636              		.loc 1 747 5 is_stmt 1 view .LVU538
 747:Drivers/STM32F4xx_HAL_Driver/Src/stm32f4xx_ll_usb.c ****     USBx_DEVICE->DAINTMSK &= ~(USB_OTG_DAINTMSK_OEPM & ((uint32_t)(1UL << (ep->num & EP_ADDR_MSK)) 
 1637              		.loc 1 747 22 is_stmt 0 view .LVU539
 1638 0014 D3F8002B 		ldr	r2, [r3, #2816]
 747:Drivers/STM32F4xx_HAL_Driver/Src/stm32f4xx_ll_usb.c ****     USBx_DEVICE->DAINTMSK &= ~(USB_OTG_DAINTMSK_OEPM & ((uint32_t)(1UL << (ep->num & EP_ADDR_MSK)) 
 1639              		.loc 1 747 32 view .LVU540
 1640 0018 22F40042 		bic	r2, r2, #32768
 1641 001c C3F8002B 		str	r2, [r3, #2816]
 748:Drivers/STM32F4xx_HAL_Driver/Src/stm32f4xx_ll_usb.c ****   }
 1642              		.loc 1 748 5 is_stmt 1 view .LVU541
 748:Drivers/STM32F4xx_HAL_Driver/Src/stm32f4xx_ll_usb.c ****   }
 1643              		.loc 1 748 16 is_stmt 0 view .LVU542
 1644 0020 D0F81C38 		ldr	r3, [r0, #2076]
 748:Drivers/STM32F4xx_HAL_Driver/Src/stm32f4xx_ll_usb.c ****   }
 1645              		.loc 1 748 78 view .LVU543
 1646 0024 0978     		ldrb	r1, [r1]	@ zero_extendqisi2
 1647              	.LVL107:
 748:Drivers/STM32F4xx_HAL_Driver/Src/stm32f4xx_ll_usb.c ****   }
 1648              		.loc 1 748 84 view .LVU544
 1649 0026 01F00F01 		and	r1, r1, #15
 748:Drivers/STM32F4xx_HAL_Driver/Src/stm32f4xx_ll_usb.c ****   }
 1650              		.loc 1 748 57 view .LVU545
 1651 002a 0122     		movs	r2, #1
 1652 002c 8A40     		lsls	r2, r2, r1
 748:Drivers/STM32F4xx_HAL_Driver/Src/stm32f4xx_ll_usb.c ****   }
 1653              		.loc 1 748 27 view .LVU546
 1654 002e 23EA0243 		bic	r3, r3, r2, lsl #16
 1655 0032 C0F81C38 		str	r3, [r0, #2076]
 1656              	.L114:
 751:Drivers/STM32F4xx_HAL_Driver/Src/stm32f4xx_ll_usb.c **** }
 1657              		.loc 1 751 3 is_stmt 1 view .LVU547
 752:Drivers/STM32F4xx_HAL_Driver/Src/stm32f4xx_ll_usb.c **** 
 1658              		.loc 1 752 1 is_stmt 0 view .LVU548
 1659 0036 0020     		movs	r0, #0
 1660              	.LVL108:
 752:Drivers/STM32F4xx_HAL_Driver/Src/stm32f4xx_ll_usb.c **** 
 1661              		.loc 1 752 1 view .LVU549
 1662 0038 7047     		bx	lr
ARM GAS  C:\Users\marci\AppData\Local\Temp\ccNtE0Aw.s 			page 64


 1663              	.LVL109:
 1664              	.L116:
 730:Drivers/STM32F4xx_HAL_Driver/Src/stm32f4xx_ll_usb.c ****     {
 1665              		.loc 1 730 5 is_stmt 1 view .LVU550
 730:Drivers/STM32F4xx_HAL_Driver/Src/stm32f4xx_ll_usb.c ****     {
 1666              		.loc 1 730 10 is_stmt 0 view .LVU551
 1667 003a 00EB4313 		add	r3, r0, r3, lsl #5
 1668              	.LVL110:
 730:Drivers/STM32F4xx_HAL_Driver/Src/stm32f4xx_ll_usb.c ****     {
 1669              		.loc 1 730 26 view .LVU552
 1670 003e D3F80029 		ldr	r2, [r3, #2304]
 730:Drivers/STM32F4xx_HAL_Driver/Src/stm32f4xx_ll_usb.c ****     {
 1671              		.loc 1 730 8 view .LVU553
 1672 0042 002A     		cmp	r2, #0
 1673 0044 12DB     		blt	.L118
 1674              	.LVL111:
 1675              	.L113:
 736:Drivers/STM32F4xx_HAL_Driver/Src/stm32f4xx_ll_usb.c ****     USBx_DEVICE->DAINTMSK &= ~(USB_OTG_DAINTMSK_IEPM & (uint32_t)(1UL << (ep->num & EP_ADDR_MSK)));
 1676              		.loc 1 736 5 is_stmt 1 view .LVU554
 736:Drivers/STM32F4xx_HAL_Driver/Src/stm32f4xx_ll_usb.c ****     USBx_DEVICE->DAINTMSK &= ~(USB_OTG_DAINTMSK_IEPM & (uint32_t)(1UL << (ep->num & EP_ADDR_MSK)));
 1677              		.loc 1 736 21 is_stmt 0 view .LVU555
 1678 0046 D3F80029 		ldr	r2, [r3, #2304]
 736:Drivers/STM32F4xx_HAL_Driver/Src/stm32f4xx_ll_usb.c ****     USBx_DEVICE->DAINTMSK &= ~(USB_OTG_DAINTMSK_IEPM & (uint32_t)(1UL << (ep->num & EP_ADDR_MSK)));
 1679              		.loc 1 736 31 view .LVU556
 1680 004a 22F40042 		bic	r2, r2, #32768
 1681 004e C3F80029 		str	r2, [r3, #2304]
 737:Drivers/STM32F4xx_HAL_Driver/Src/stm32f4xx_ll_usb.c ****   }
 1682              		.loc 1 737 5 is_stmt 1 view .LVU557
 737:Drivers/STM32F4xx_HAL_Driver/Src/stm32f4xx_ll_usb.c ****   }
 1683              		.loc 1 737 16 is_stmt 0 view .LVU558
 1684 0052 D0F81C28 		ldr	r2, [r0, #2076]
 737:Drivers/STM32F4xx_HAL_Driver/Src/stm32f4xx_ll_usb.c ****   }
 1685              		.loc 1 737 77 view .LVU559
 1686 0056 0978     		ldrb	r1, [r1]	@ zero_extendqisi2
 1687              	.LVL112:
 737:Drivers/STM32F4xx_HAL_Driver/Src/stm32f4xx_ll_usb.c ****   }
 1688              		.loc 1 737 83 view .LVU560
 1689 0058 01F00F01 		and	r1, r1, #15
 737:Drivers/STM32F4xx_HAL_Driver/Src/stm32f4xx_ll_usb.c ****   }
 1690              		.loc 1 737 56 view .LVU561
 1691 005c 0123     		movs	r3, #1
 1692 005e 8B40     		lsls	r3, r3, r1
 737:Drivers/STM32F4xx_HAL_Driver/Src/stm32f4xx_ll_usb.c ****   }
 1693              		.loc 1 737 54 view .LVU562
 1694 0060 9BB2     		uxth	r3, r3
 737:Drivers/STM32F4xx_HAL_Driver/Src/stm32f4xx_ll_usb.c ****   }
 1695              		.loc 1 737 27 view .LVU563
 1696 0062 22EA0303 		bic	r3, r2, r3
 1697 0066 C0F81C38 		str	r3, [r0, #2076]
 1698 006a E4E7     		b	.L114
 1699              	.LVL113:
 1700              	.L118:
 732:Drivers/STM32F4xx_HAL_Driver/Src/stm32f4xx_ll_usb.c ****       USBx_INEP(epnum)->DIEPCTL  |= USB_OTG_DIEPCTL_EPDIS;
 1701              		.loc 1 732 7 is_stmt 1 view .LVU564
 732:Drivers/STM32F4xx_HAL_Driver/Src/stm32f4xx_ll_usb.c ****       USBx_INEP(epnum)->DIEPCTL  |= USB_OTG_DIEPCTL_EPDIS;
 1702              		.loc 1 732 23 is_stmt 0 view .LVU565
 1703 006c D3F80029 		ldr	r2, [r3, #2304]
ARM GAS  C:\Users\marci\AppData\Local\Temp\ccNtE0Aw.s 			page 65


 732:Drivers/STM32F4xx_HAL_Driver/Src/stm32f4xx_ll_usb.c ****       USBx_INEP(epnum)->DIEPCTL  |= USB_OTG_DIEPCTL_EPDIS;
 1704              		.loc 1 732 34 view .LVU566
 1705 0070 42F00062 		orr	r2, r2, #134217728
 1706 0074 C3F80029 		str	r2, [r3, #2304]
 1707              	.LVL114:
 733:Drivers/STM32F4xx_HAL_Driver/Src/stm32f4xx_ll_usb.c ****     }
 1708              		.loc 1 733 7 is_stmt 1 view .LVU567
 733:Drivers/STM32F4xx_HAL_Driver/Src/stm32f4xx_ll_usb.c ****     }
 1709              		.loc 1 733 23 is_stmt 0 view .LVU568
 1710 0078 D3F80029 		ldr	r2, [r3, #2304]
 733:Drivers/STM32F4xx_HAL_Driver/Src/stm32f4xx_ll_usb.c ****     }
 1711              		.loc 1 733 34 view .LVU569
 1712 007c 42F08042 		orr	r2, r2, #1073741824
 1713 0080 C3F80029 		str	r2, [r3, #2304]
 1714 0084 DFE7     		b	.L113
 1715              	.LVL115:
 1716              	.L117:
 743:Drivers/STM32F4xx_HAL_Driver/Src/stm32f4xx_ll_usb.c ****       USBx_OUTEP(epnum)->DOEPCTL  |= USB_OTG_DOEPCTL_EPDIS;
 1717              		.loc 1 743 7 is_stmt 1 view .LVU570
 743:Drivers/STM32F4xx_HAL_Driver/Src/stm32f4xx_ll_usb.c ****       USBx_OUTEP(epnum)->DOEPCTL  |= USB_OTG_DOEPCTL_EPDIS;
 1718              		.loc 1 743 24 is_stmt 0 view .LVU571
 1719 0086 D3F8002B 		ldr	r2, [r3, #2816]
 743:Drivers/STM32F4xx_HAL_Driver/Src/stm32f4xx_ll_usb.c ****       USBx_OUTEP(epnum)->DOEPCTL  |= USB_OTG_DOEPCTL_EPDIS;
 1720              		.loc 1 743 35 view .LVU572
 1721 008a 42F00062 		orr	r2, r2, #134217728
 1722 008e C3F8002B 		str	r2, [r3, #2816]
 1723              	.LVL116:
 744:Drivers/STM32F4xx_HAL_Driver/Src/stm32f4xx_ll_usb.c ****     }
 1724              		.loc 1 744 7 is_stmt 1 view .LVU573
 744:Drivers/STM32F4xx_HAL_Driver/Src/stm32f4xx_ll_usb.c ****     }
 1725              		.loc 1 744 24 is_stmt 0 view .LVU574
 1726 0092 D3F8002B 		ldr	r2, [r3, #2816]
 744:Drivers/STM32F4xx_HAL_Driver/Src/stm32f4xx_ll_usb.c ****     }
 1727              		.loc 1 744 35 view .LVU575
 1728 0096 42F08042 		orr	r2, r2, #1073741824
 1729 009a C3F8002B 		str	r2, [r3, #2816]
 1730 009e B9E7     		b	.L115
 1731              		.cfi_endproc
 1732              	.LFE147:
 1734              		.section	.text.USB_EPStopXfer,"ax",%progbits
 1735              		.align	1
 1736              		.global	USB_EPStopXfer
 1737              		.syntax unified
 1738              		.thumb
 1739              		.thumb_func
 1741              	USB_EPStopXfer:
 1742              	.LVL117:
 1743              	.LFB149:
 937:Drivers/STM32F4xx_HAL_Driver/Src/stm32f4xx_ll_usb.c ****   __IO uint32_t count = 0U;
 1744              		.loc 1 937 1 is_stmt 1 view -0
 1745              		.cfi_startproc
 1746              		@ args = 0, pretend = 0, frame = 8
 1747              		@ frame_needed = 0, uses_anonymous_args = 0
 1748              		@ link register save eliminated.
 937:Drivers/STM32F4xx_HAL_Driver/Src/stm32f4xx_ll_usb.c ****   __IO uint32_t count = 0U;
 1749              		.loc 1 937 1 is_stmt 0 view .LVU577
 1750 0000 10B4     		push	{r4}
ARM GAS  C:\Users\marci\AppData\Local\Temp\ccNtE0Aw.s 			page 66


 1751              	.LCFI24:
 1752              		.cfi_def_cfa_offset 4
 1753              		.cfi_offset 4, -4
 1754 0002 83B0     		sub	sp, sp, #12
 1755              	.LCFI25:
 1756              		.cfi_def_cfa_offset 16
 1757 0004 0246     		mov	r2, r0
 938:Drivers/STM32F4xx_HAL_Driver/Src/stm32f4xx_ll_usb.c ****   HAL_StatusTypeDef ret = HAL_OK;
 1758              		.loc 1 938 3 is_stmt 1 view .LVU578
 938:Drivers/STM32F4xx_HAL_Driver/Src/stm32f4xx_ll_usb.c ****   HAL_StatusTypeDef ret = HAL_OK;
 1759              		.loc 1 938 17 is_stmt 0 view .LVU579
 1760 0006 0023     		movs	r3, #0
 1761 0008 0193     		str	r3, [sp, #4]
 939:Drivers/STM32F4xx_HAL_Driver/Src/stm32f4xx_ll_usb.c ****   uint32_t USBx_BASE = (uint32_t)USBx;
 1762              		.loc 1 939 3 is_stmt 1 view .LVU580
 1763              	.LVL118:
 940:Drivers/STM32F4xx_HAL_Driver/Src/stm32f4xx_ll_usb.c **** 
 1764              		.loc 1 940 3 view .LVU581
 943:Drivers/STM32F4xx_HAL_Driver/Src/stm32f4xx_ll_usb.c ****   {
 1765              		.loc 1 943 3 view .LVU582
 943:Drivers/STM32F4xx_HAL_Driver/Src/stm32f4xx_ll_usb.c ****   {
 1766              		.loc 1 943 9 is_stmt 0 view .LVU583
 1767 000a 4878     		ldrb	r0, [r1, #1]	@ zero_extendqisi2
 1768              	.LVL119:
 943:Drivers/STM32F4xx_HAL_Driver/Src/stm32f4xx_ll_usb.c ****   {
 1769              		.loc 1 943 6 view .LVU584
 1770 000c 0128     		cmp	r0, #1
 1771 000e 0BD0     		beq	.L128
 965:Drivers/STM32F4xx_HAL_Driver/Src/stm32f4xx_ll_usb.c ****     {
 1772              		.loc 1 965 5 is_stmt 1 view .LVU585
 965:Drivers/STM32F4xx_HAL_Driver/Src/stm32f4xx_ll_usb.c ****     {
 1773              		.loc 1 965 11 is_stmt 0 view .LVU586
 1774 0010 0B78     		ldrb	r3, [r1]	@ zero_extendqisi2
 1775 0012 02EB4313 		add	r3, r2, r3, lsl #5
 965:Drivers/STM32F4xx_HAL_Driver/Src/stm32f4xx_ll_usb.c ****     {
 1776              		.loc 1 965 30 view .LVU587
 1777 0016 D3F8000B 		ldr	r0, [r3, #2816]
 965:Drivers/STM32F4xx_HAL_Driver/Src/stm32f4xx_ll_usb.c ****     {
 1778              		.loc 1 965 8 view .LVU588
 1779 001a 0028     		cmp	r0, #0
 1780 001c 2DDB     		blt	.L129
 939:Drivers/STM32F4xx_HAL_Driver/Src/stm32f4xx_ll_usb.c ****   uint32_t USBx_BASE = (uint32_t)USBx;
 1781              		.loc 1 939 21 view .LVU589
 1782 001e 0020     		movs	r0, #0
 1783              	.L121:
 1784              	.LVL120:
 983:Drivers/STM32F4xx_HAL_Driver/Src/stm32f4xx_ll_usb.c **** }
 1785              		.loc 1 983 3 is_stmt 1 view .LVU590
 984:Drivers/STM32F4xx_HAL_Driver/Src/stm32f4xx_ll_usb.c **** 
 1786              		.loc 1 984 1 is_stmt 0 view .LVU591
 1787 0020 03B0     		add	sp, sp, #12
 1788              	.LCFI26:
 1789              		.cfi_remember_state
 1790              		.cfi_def_cfa_offset 4
 1791              		@ sp needed
 1792 0022 5DF8044B 		ldr	r4, [sp], #4
 1793              	.LCFI27:
ARM GAS  C:\Users\marci\AppData\Local\Temp\ccNtE0Aw.s 			page 67


 1794              		.cfi_restore 4
 1795              		.cfi_def_cfa_offset 0
 1796 0026 7047     		bx	lr
 1797              	.LVL121:
 1798              	.L128:
 1799              	.LCFI28:
 1800              		.cfi_restore_state
 946:Drivers/STM32F4xx_HAL_Driver/Src/stm32f4xx_ll_usb.c ****     {
 1801              		.loc 1 946 5 is_stmt 1 view .LVU592
 946:Drivers/STM32F4xx_HAL_Driver/Src/stm32f4xx_ll_usb.c ****     {
 1802              		.loc 1 946 11 is_stmt 0 view .LVU593
 1803 0028 0B78     		ldrb	r3, [r1]	@ zero_extendqisi2
 1804 002a 02EB4313 		add	r3, r2, r3, lsl #5
 946:Drivers/STM32F4xx_HAL_Driver/Src/stm32f4xx_ll_usb.c ****     {
 1805              		.loc 1 946 29 view .LVU594
 1806 002e D3F80049 		ldr	r4, [r3, #2304]
 946:Drivers/STM32F4xx_HAL_Driver/Src/stm32f4xx_ll_usb.c ****     {
 1807              		.loc 1 946 8 view .LVU595
 1808 0032 002C     		cmp	r4, #0
 1809 0034 01DB     		blt	.L130
 939:Drivers/STM32F4xx_HAL_Driver/Src/stm32f4xx_ll_usb.c ****   uint32_t USBx_BASE = (uint32_t)USBx;
 1810              		.loc 1 939 21 view .LVU596
 1811 0036 0020     		movs	r0, #0
 1812 0038 F2E7     		b	.L121
 1813              	.L130:
 948:Drivers/STM32F4xx_HAL_Driver/Src/stm32f4xx_ll_usb.c ****       USBx_INEP(ep->num)->DIEPCTL |= (USB_OTG_DIEPCTL_EPDIS);
 1814              		.loc 1 948 7 is_stmt 1 view .LVU597
 948:Drivers/STM32F4xx_HAL_Driver/Src/stm32f4xx_ll_usb.c ****       USBx_INEP(ep->num)->DIEPCTL |= (USB_OTG_DIEPCTL_EPDIS);
 1815              		.loc 1 948 25 is_stmt 0 view .LVU598
 1816 003a D3F80049 		ldr	r4, [r3, #2304]
 948:Drivers/STM32F4xx_HAL_Driver/Src/stm32f4xx_ll_usb.c ****       USBx_INEP(ep->num)->DIEPCTL |= (USB_OTG_DIEPCTL_EPDIS);
 1817              		.loc 1 948 35 view .LVU599
 1818 003e 44F00064 		orr	r4, r4, #134217728
 1819 0042 C3F80049 		str	r4, [r3, #2304]
 949:Drivers/STM32F4xx_HAL_Driver/Src/stm32f4xx_ll_usb.c **** 
 1820              		.loc 1 949 7 is_stmt 1 view .LVU600
 1821 0046 0B78     		ldrb	r3, [r1]	@ zero_extendqisi2
 949:Drivers/STM32F4xx_HAL_Driver/Src/stm32f4xx_ll_usb.c **** 
 1822              		.loc 1 949 25 is_stmt 0 view .LVU601
 1823 0048 02EB4313 		add	r3, r2, r3, lsl #5
 1824 004c D3F80049 		ldr	r4, [r3, #2304]
 949:Drivers/STM32F4xx_HAL_Driver/Src/stm32f4xx_ll_usb.c **** 
 1825              		.loc 1 949 35 view .LVU602
 1826 0050 44F08044 		orr	r4, r4, #1073741824
 1827 0054 C3F80049 		str	r4, [r3, #2304]
 1828              	.L122:
 951:Drivers/STM32F4xx_HAL_Driver/Src/stm32f4xx_ll_usb.c ****       {
 1829              		.loc 1 951 7 is_stmt 1 view .LVU603
 953:Drivers/STM32F4xx_HAL_Driver/Src/stm32f4xx_ll_usb.c **** 
 1830              		.loc 1 953 9 view .LVU604
 953:Drivers/STM32F4xx_HAL_Driver/Src/stm32f4xx_ll_usb.c **** 
 1831              		.loc 1 953 14 is_stmt 0 view .LVU605
 1832 0058 019B     		ldr	r3, [sp, #4]
 1833 005a 0133     		adds	r3, r3, #1
 1834 005c 0193     		str	r3, [sp, #4]
 955:Drivers/STM32F4xx_HAL_Driver/Src/stm32f4xx_ll_usb.c ****         {
 1835              		.loc 1 955 9 is_stmt 1 view .LVU606
ARM GAS  C:\Users\marci\AppData\Local\Temp\ccNtE0Aw.s 			page 68


 955:Drivers/STM32F4xx_HAL_Driver/Src/stm32f4xx_ll_usb.c ****         {
 1836              		.loc 1 955 19 is_stmt 0 view .LVU607
 1837 005e 019C     		ldr	r4, [sp, #4]
 955:Drivers/STM32F4xx_HAL_Driver/Src/stm32f4xx_ll_usb.c ****         {
 1838              		.loc 1 955 12 view .LVU608
 1839 0060 42F21073 		movw	r3, #10000
 1840 0064 9C42     		cmp	r4, r3
 1841 0066 DBD8     		bhi	.L121
 960:Drivers/STM32F4xx_HAL_Driver/Src/stm32f4xx_ll_usb.c ****     }
 1842              		.loc 1 960 72 is_stmt 1 view .LVU609
 960:Drivers/STM32F4xx_HAL_Driver/Src/stm32f4xx_ll_usb.c ****     }
 1843              		.loc 1 960 18 is_stmt 0 view .LVU610
 1844 0068 0B78     		ldrb	r3, [r1]	@ zero_extendqisi2
 1845 006a 02EB4313 		add	r3, r2, r3, lsl #5
 960:Drivers/STM32F4xx_HAL_Driver/Src/stm32f4xx_ll_usb.c ****     }
 1846              		.loc 1 960 36 view .LVU611
 1847 006e D3F80039 		ldr	r3, [r3, #2304]
 960:Drivers/STM32F4xx_HAL_Driver/Src/stm32f4xx_ll_usb.c ****     }
 1848              		.loc 1 960 72 view .LVU612
 1849 0072 002B     		cmp	r3, #0
 1850 0074 F0DB     		blt	.L122
 939:Drivers/STM32F4xx_HAL_Driver/Src/stm32f4xx_ll_usb.c ****   uint32_t USBx_BASE = (uint32_t)USBx;
 1851              		.loc 1 939 21 view .LVU613
 1852 0076 0020     		movs	r0, #0
 1853 0078 D2E7     		b	.L121
 1854              	.L129:
 967:Drivers/STM32F4xx_HAL_Driver/Src/stm32f4xx_ll_usb.c ****       USBx_OUTEP(ep->num)->DOEPCTL |= (USB_OTG_DOEPCTL_EPDIS);
 1855              		.loc 1 967 7 is_stmt 1 view .LVU614
 967:Drivers/STM32F4xx_HAL_Driver/Src/stm32f4xx_ll_usb.c ****       USBx_OUTEP(ep->num)->DOEPCTL |= (USB_OTG_DOEPCTL_EPDIS);
 1856              		.loc 1 967 26 is_stmt 0 view .LVU615
 1857 007a D3F8000B 		ldr	r0, [r3, #2816]
 967:Drivers/STM32F4xx_HAL_Driver/Src/stm32f4xx_ll_usb.c ****       USBx_OUTEP(ep->num)->DOEPCTL |= (USB_OTG_DOEPCTL_EPDIS);
 1858              		.loc 1 967 36 view .LVU616
 1859 007e 40F00060 		orr	r0, r0, #134217728
 1860 0082 C3F8000B 		str	r0, [r3, #2816]
 968:Drivers/STM32F4xx_HAL_Driver/Src/stm32f4xx_ll_usb.c **** 
 1861              		.loc 1 968 7 is_stmt 1 view .LVU617
 1862 0086 0B78     		ldrb	r3, [r1]	@ zero_extendqisi2
 968:Drivers/STM32F4xx_HAL_Driver/Src/stm32f4xx_ll_usb.c **** 
 1863              		.loc 1 968 26 is_stmt 0 view .LVU618
 1864 0088 02EB4313 		add	r3, r2, r3, lsl #5
 1865 008c D3F8000B 		ldr	r0, [r3, #2816]
 968:Drivers/STM32F4xx_HAL_Driver/Src/stm32f4xx_ll_usb.c **** 
 1866              		.loc 1 968 36 view .LVU619
 1867 0090 40F08040 		orr	r0, r0, #1073741824
 1868 0094 C3F8000B 		str	r0, [r3, #2816]
 1869              	.L123:
 970:Drivers/STM32F4xx_HAL_Driver/Src/stm32f4xx_ll_usb.c ****       {
 1870              		.loc 1 970 7 is_stmt 1 view .LVU620
 972:Drivers/STM32F4xx_HAL_Driver/Src/stm32f4xx_ll_usb.c **** 
 1871              		.loc 1 972 9 view .LVU621
 972:Drivers/STM32F4xx_HAL_Driver/Src/stm32f4xx_ll_usb.c **** 
 1872              		.loc 1 972 14 is_stmt 0 view .LVU622
 1873 0098 019B     		ldr	r3, [sp, #4]
 1874 009a 0133     		adds	r3, r3, #1
 1875 009c 0193     		str	r3, [sp, #4]
 974:Drivers/STM32F4xx_HAL_Driver/Src/stm32f4xx_ll_usb.c ****         {
ARM GAS  C:\Users\marci\AppData\Local\Temp\ccNtE0Aw.s 			page 69


 1876              		.loc 1 974 9 is_stmt 1 view .LVU623
 974:Drivers/STM32F4xx_HAL_Driver/Src/stm32f4xx_ll_usb.c ****         {
 1877              		.loc 1 974 19 is_stmt 0 view .LVU624
 1878 009e 0198     		ldr	r0, [sp, #4]
 974:Drivers/STM32F4xx_HAL_Driver/Src/stm32f4xx_ll_usb.c ****         {
 1879              		.loc 1 974 12 view .LVU625
 1880 00a0 42F21073 		movw	r3, #10000
 1881 00a4 9842     		cmp	r0, r3
 1882 00a6 08D8     		bhi	.L126
 979:Drivers/STM32F4xx_HAL_Driver/Src/stm32f4xx_ll_usb.c ****     }
 1883              		.loc 1 979 73 is_stmt 1 view .LVU626
 979:Drivers/STM32F4xx_HAL_Driver/Src/stm32f4xx_ll_usb.c ****     }
 1884              		.loc 1 979 18 is_stmt 0 view .LVU627
 1885 00a8 0B78     		ldrb	r3, [r1]	@ zero_extendqisi2
 1886 00aa 02EB4313 		add	r3, r2, r3, lsl #5
 979:Drivers/STM32F4xx_HAL_Driver/Src/stm32f4xx_ll_usb.c ****     }
 1887              		.loc 1 979 37 view .LVU628
 1888 00ae D3F8003B 		ldr	r3, [r3, #2816]
 979:Drivers/STM32F4xx_HAL_Driver/Src/stm32f4xx_ll_usb.c ****     }
 1889              		.loc 1 979 73 view .LVU629
 1890 00b2 002B     		cmp	r3, #0
 1891 00b4 F0DB     		blt	.L123
 939:Drivers/STM32F4xx_HAL_Driver/Src/stm32f4xx_ll_usb.c ****   uint32_t USBx_BASE = (uint32_t)USBx;
 1892              		.loc 1 939 21 view .LVU630
 1893 00b6 0020     		movs	r0, #0
 1894 00b8 B2E7     		b	.L121
 1895              	.L126:
 976:Drivers/STM32F4xx_HAL_Driver/Src/stm32f4xx_ll_usb.c ****           break;
 1896              		.loc 1 976 15 view .LVU631
 1897 00ba 0120     		movs	r0, #1
 1898 00bc B0E7     		b	.L121
 1899              		.cfi_endproc
 1900              	.LFE149:
 1902              		.section	.text.USB_WritePacket,"ax",%progbits
 1903              		.align	1
 1904              		.global	USB_WritePacket
 1905              		.syntax unified
 1906              		.thumb
 1907              		.thumb_func
 1909              	USB_WritePacket:
 1910              	.LVL122:
 1911              	.LFB150:
1002:Drivers/STM32F4xx_HAL_Driver/Src/stm32f4xx_ll_usb.c ****   uint32_t USBx_BASE = (uint32_t)USBx;
 1912              		.loc 1 1002 1 is_stmt 1 view -0
 1913              		.cfi_startproc
 1914              		@ args = 4, pretend = 0, frame = 0
 1915              		@ frame_needed = 0, uses_anonymous_args = 0
1002:Drivers/STM32F4xx_HAL_Driver/Src/stm32f4xx_ll_usb.c ****   uint32_t USBx_BASE = (uint32_t)USBx;
 1916              		.loc 1 1002 1 is_stmt 0 view .LVU633
 1917 0000 10B5     		push	{r4, lr}
 1918              	.LCFI29:
 1919              		.cfi_def_cfa_offset 8
 1920              		.cfi_offset 4, -8
 1921              		.cfi_offset 14, -4
 1922 0002 9DF80840 		ldrb	r4, [sp, #8]	@ zero_extendqisi2
1003:Drivers/STM32F4xx_HAL_Driver/Src/stm32f4xx_ll_usb.c ****   uint8_t *pSrc = src;
 1923              		.loc 1 1003 3 is_stmt 1 view .LVU634
ARM GAS  C:\Users\marci\AppData\Local\Temp\ccNtE0Aw.s 			page 70


 1924              	.LVL123:
1004:Drivers/STM32F4xx_HAL_Driver/Src/stm32f4xx_ll_usb.c ****   uint32_t count32b;
 1925              		.loc 1 1004 3 view .LVU635
1005:Drivers/STM32F4xx_HAL_Driver/Src/stm32f4xx_ll_usb.c ****   uint32_t i;
 1926              		.loc 1 1005 3 view .LVU636
1006:Drivers/STM32F4xx_HAL_Driver/Src/stm32f4xx_ll_usb.c **** 
 1927              		.loc 1 1006 3 view .LVU637
1008:Drivers/STM32F4xx_HAL_Driver/Src/stm32f4xx_ll_usb.c ****   {
 1928              		.loc 1 1008 3 view .LVU638
1008:Drivers/STM32F4xx_HAL_Driver/Src/stm32f4xx_ll_usb.c ****   {
 1929              		.loc 1 1008 6 is_stmt 0 view .LVU639
 1930 0006 84B9     		cbnz	r4, .L132
1010:Drivers/STM32F4xx_HAL_Driver/Src/stm32f4xx_ll_usb.c ****     for (i = 0U; i < count32b; i++)
 1931              		.loc 1 1010 5 is_stmt 1 view .LVU640
1010:Drivers/STM32F4xx_HAL_Driver/Src/stm32f4xx_ll_usb.c ****     for (i = 0U; i < count32b; i++)
 1932              		.loc 1 1010 31 is_stmt 0 view .LVU641
 1933 0008 0333     		adds	r3, r3, #3
 1934              	.LVL124:
1010:Drivers/STM32F4xx_HAL_Driver/Src/stm32f4xx_ll_usb.c ****     for (i = 0U; i < count32b; i++)
 1935              		.loc 1 1010 14 view .LVU642
 1936 000a 4FEA930E 		lsr	lr, r3, #2
 1937              	.LVL125:
1011:Drivers/STM32F4xx_HAL_Driver/Src/stm32f4xx_ll_usb.c ****     {
 1938              		.loc 1 1011 5 is_stmt 1 view .LVU643
1011:Drivers/STM32F4xx_HAL_Driver/Src/stm32f4xx_ll_usb.c ****     {
 1939              		.loc 1 1011 12 is_stmt 0 view .LVU644
 1940 000e 4FF0000C 		mov	ip, #0
1011:Drivers/STM32F4xx_HAL_Driver/Src/stm32f4xx_ll_usb.c ****     {
 1941              		.loc 1 1011 5 view .LVU645
 1942 0012 08E0     		b	.L133
 1943              	.LVL126:
 1944              	.L134:
1013:Drivers/STM32F4xx_HAL_Driver/Src/stm32f4xx_ll_usb.c ****       pSrc++;
 1945              		.loc 1 1013 7 is_stmt 1 view .LVU646
 1946 0014 00EB0233 		add	r3, r0, r2, lsl #12
 1947 0018 03F58053 		add	r3, r3, #4096
1013:Drivers/STM32F4xx_HAL_Driver/Src/stm32f4xx_ll_usb.c ****       pSrc++;
 1948              		.loc 1 1013 41 is_stmt 0 view .LVU647
 1949 001c 51F8044B 		ldr	r4, [r1], #4	@ unaligned
 1950              	.LVL127:
1013:Drivers/STM32F4xx_HAL_Driver/Src/stm32f4xx_ll_usb.c ****       pSrc++;
 1951              		.loc 1 1013 39 view .LVU648
 1952 0020 1C60     		str	r4, [r3]
1014:Drivers/STM32F4xx_HAL_Driver/Src/stm32f4xx_ll_usb.c ****       pSrc++;
 1953              		.loc 1 1014 7 is_stmt 1 view .LVU649
 1954              	.LVL128:
1015:Drivers/STM32F4xx_HAL_Driver/Src/stm32f4xx_ll_usb.c ****       pSrc++;
 1955              		.loc 1 1015 7 view .LVU650
1016:Drivers/STM32F4xx_HAL_Driver/Src/stm32f4xx_ll_usb.c ****       pSrc++;
 1956              		.loc 1 1016 7 view .LVU651
1017:Drivers/STM32F4xx_HAL_Driver/Src/stm32f4xx_ll_usb.c ****     }
 1957              		.loc 1 1017 7 view .LVU652
1011:Drivers/STM32F4xx_HAL_Driver/Src/stm32f4xx_ll_usb.c ****     {
 1958              		.loc 1 1011 33 discriminator 3 view .LVU653
 1959 0022 0CF1010C 		add	ip, ip, #1
 1960              	.LVL129:
 1961              	.L133:
ARM GAS  C:\Users\marci\AppData\Local\Temp\ccNtE0Aw.s 			page 71


1011:Drivers/STM32F4xx_HAL_Driver/Src/stm32f4xx_ll_usb.c ****     {
 1962              		.loc 1 1011 20 discriminator 1 view .LVU654
 1963 0026 F445     		cmp	ip, lr
 1964 0028 F4D3     		bcc	.L134
 1965              	.LVL130:
 1966              	.L132:
1021:Drivers/STM32F4xx_HAL_Driver/Src/stm32f4xx_ll_usb.c **** }
 1967              		.loc 1 1021 3 view .LVU655
1022:Drivers/STM32F4xx_HAL_Driver/Src/stm32f4xx_ll_usb.c **** 
 1968              		.loc 1 1022 1 is_stmt 0 view .LVU656
 1969 002a 0020     		movs	r0, #0
 1970              	.LVL131:
1022:Drivers/STM32F4xx_HAL_Driver/Src/stm32f4xx_ll_usb.c **** 
 1971              		.loc 1 1022 1 view .LVU657
 1972 002c 10BD     		pop	{r4, pc}
1022:Drivers/STM32F4xx_HAL_Driver/Src/stm32f4xx_ll_usb.c **** 
 1973              		.loc 1 1022 1 view .LVU658
 1974              		.cfi_endproc
 1975              	.LFE150:
 1977              		.section	.text.USB_EPStartXfer,"ax",%progbits
 1978              		.align	1
 1979              		.global	USB_EPStartXfer
 1980              		.syntax unified
 1981              		.thumb
 1982              		.thumb_func
 1984              	USB_EPStartXfer:
 1985              	.LVL132:
 1986              	.LFB148:
 765:Drivers/STM32F4xx_HAL_Driver/Src/stm32f4xx_ll_usb.c ****   uint32_t USBx_BASE = (uint32_t)USBx;
 1987              		.loc 1 765 1 is_stmt 1 view -0
 1988              		.cfi_startproc
 1989              		@ args = 0, pretend = 0, frame = 0
 1990              		@ frame_needed = 0, uses_anonymous_args = 0
 765:Drivers/STM32F4xx_HAL_Driver/Src/stm32f4xx_ll_usb.c ****   uint32_t USBx_BASE = (uint32_t)USBx;
 1991              		.loc 1 765 1 is_stmt 0 view .LVU660
 1992 0000 F0B5     		push	{r4, r5, r6, r7, lr}
 1993              	.LCFI30:
 1994              		.cfi_def_cfa_offset 20
 1995              		.cfi_offset 4, -20
 1996              		.cfi_offset 5, -16
 1997              		.cfi_offset 6, -12
 1998              		.cfi_offset 7, -8
 1999              		.cfi_offset 14, -4
 2000 0002 83B0     		sub	sp, sp, #12
 2001              	.LCFI31:
 2002              		.cfi_def_cfa_offset 32
 766:Drivers/STM32F4xx_HAL_Driver/Src/stm32f4xx_ll_usb.c ****   uint32_t epnum = (uint32_t)ep->num;
 2003              		.loc 1 766 3 is_stmt 1 view .LVU661
 2004              	.LVL133:
 767:Drivers/STM32F4xx_HAL_Driver/Src/stm32f4xx_ll_usb.c ****   uint16_t pktcnt;
 2005              		.loc 1 767 3 view .LVU662
 767:Drivers/STM32F4xx_HAL_Driver/Src/stm32f4xx_ll_usb.c ****   uint16_t pktcnt;
 2006              		.loc 1 767 32 is_stmt 0 view .LVU663
 2007 0004 0C78     		ldrb	r4, [r1]	@ zero_extendqisi2
 2008              	.LVL134:
 768:Drivers/STM32F4xx_HAL_Driver/Src/stm32f4xx_ll_usb.c **** 
 2009              		.loc 1 768 3 is_stmt 1 view .LVU664
ARM GAS  C:\Users\marci\AppData\Local\Temp\ccNtE0Aw.s 			page 72


 771:Drivers/STM32F4xx_HAL_Driver/Src/stm32f4xx_ll_usb.c ****   {
 2010              		.loc 1 771 3 view .LVU665
 771:Drivers/STM32F4xx_HAL_Driver/Src/stm32f4xx_ll_usb.c ****   {
 2011              		.loc 1 771 9 is_stmt 0 view .LVU666
 2012 0006 4B78     		ldrb	r3, [r1, #1]	@ zero_extendqisi2
 771:Drivers/STM32F4xx_HAL_Driver/Src/stm32f4xx_ll_usb.c ****   {
 2013              		.loc 1 771 6 view .LVU667
 2014 0008 012B     		cmp	r3, #1
 2015 000a 2DD0     		beq	.L159
 870:Drivers/STM32F4xx_HAL_Driver/Src/stm32f4xx_ll_usb.c ****     USBx_OUTEP(epnum)->DOEPTSIZ &= ~(USB_OTG_DOEPTSIZ_PKTCNT);
 2016              		.loc 1 870 5 is_stmt 1 view .LVU668
 870:Drivers/STM32F4xx_HAL_Driver/Src/stm32f4xx_ll_usb.c ****     USBx_OUTEP(epnum)->DOEPTSIZ &= ~(USB_OTG_DOEPTSIZ_PKTCNT);
 2017              		.loc 1 870 22 is_stmt 0 view .LVU669
 2018 000c 00EB441C 		add	ip, r0, r4, lsl #5
 2019 0010 0CF53063 		add	r3, ip, #2816
 2020 0014 1D69     		ldr	r5, [r3, #16]
 870:Drivers/STM32F4xx_HAL_Driver/Src/stm32f4xx_ll_usb.c ****     USBx_OUTEP(epnum)->DOEPTSIZ &= ~(USB_OTG_DOEPTSIZ_PKTCNT);
 2021              		.loc 1 870 33 view .LVU670
 2022 0016 6FF31205 		bfc	r5, #0, #19
 2023 001a 1D61     		str	r5, [r3, #16]
 871:Drivers/STM32F4xx_HAL_Driver/Src/stm32f4xx_ll_usb.c **** 
 2024              		.loc 1 871 5 is_stmt 1 view .LVU671
 871:Drivers/STM32F4xx_HAL_Driver/Src/stm32f4xx_ll_usb.c **** 
 2025              		.loc 1 871 22 is_stmt 0 view .LVU672
 2026 001c 1D69     		ldr	r5, [r3, #16]
 871:Drivers/STM32F4xx_HAL_Driver/Src/stm32f4xx_ll_usb.c **** 
 2027              		.loc 1 871 33 view .LVU673
 2028 001e 6FF3DC45 		bfc	r5, #19, #10
 2029 0022 1D61     		str	r5, [r3, #16]
 873:Drivers/STM32F4xx_HAL_Driver/Src/stm32f4xx_ll_usb.c ****     {
 2030              		.loc 1 873 5 is_stmt 1 view .LVU674
 873:Drivers/STM32F4xx_HAL_Driver/Src/stm32f4xx_ll_usb.c ****     {
 2031              		.loc 1 873 8 is_stmt 0 view .LVU675
 2032 0024 002C     		cmp	r4, #0
 2033 0026 40F0C880 		bne	.L151
 875:Drivers/STM32F4xx_HAL_Driver/Src/stm32f4xx_ll_usb.c ****       {
 2034              		.loc 1 875 7 is_stmt 1 view .LVU676
 875:Drivers/STM32F4xx_HAL_Driver/Src/stm32f4xx_ll_usb.c ****       {
 2035              		.loc 1 875 13 is_stmt 0 view .LVU677
 2036 002a 0C69     		ldr	r4, [r1, #16]
 2037              	.LVL135:
 875:Drivers/STM32F4xx_HAL_Driver/Src/stm32f4xx_ll_usb.c ****       {
 2038              		.loc 1 875 10 view .LVU678
 2039 002c 0CB1     		cbz	r4, .L152
 877:Drivers/STM32F4xx_HAL_Driver/Src/stm32f4xx_ll_usb.c ****       }
 2040              		.loc 1 877 9 is_stmt 1 view .LVU679
 877:Drivers/STM32F4xx_HAL_Driver/Src/stm32f4xx_ll_usb.c ****       }
 2041              		.loc 1 877 26 is_stmt 0 view .LVU680
 2042 002e 8C68     		ldr	r4, [r1, #8]
 877:Drivers/STM32F4xx_HAL_Driver/Src/stm32f4xx_ll_usb.c ****       }
 2043              		.loc 1 877 22 view .LVU681
 2044 0030 0C61     		str	r4, [r1, #16]
 2045              	.L152:
 881:Drivers/STM32F4xx_HAL_Driver/Src/stm32f4xx_ll_usb.c **** 
 2046              		.loc 1 881 7 is_stmt 1 view .LVU682
 881:Drivers/STM32F4xx_HAL_Driver/Src/stm32f4xx_ll_usb.c **** 
 2047              		.loc 1 881 25 is_stmt 0 view .LVU683
ARM GAS  C:\Users\marci\AppData\Local\Temp\ccNtE0Aw.s 			page 73


 2048 0032 8C68     		ldr	r4, [r1, #8]
 881:Drivers/STM32F4xx_HAL_Driver/Src/stm32f4xx_ll_usb.c **** 
 2049              		.loc 1 881 21 view .LVU684
 2050 0034 0C62     		str	r4, [r1, #32]
 883:Drivers/STM32F4xx_HAL_Driver/Src/stm32f4xx_ll_usb.c ****       USBx_OUTEP(epnum)->DOEPTSIZ |= (USB_OTG_DOEPTSIZ_PKTCNT & (1U << 19));
 2051              		.loc 1 883 7 is_stmt 1 view .LVU685
 883:Drivers/STM32F4xx_HAL_Driver/Src/stm32f4xx_ll_usb.c ****       USBx_OUTEP(epnum)->DOEPTSIZ |= (USB_OTG_DOEPTSIZ_PKTCNT & (1U << 19));
 2052              		.loc 1 883 24 is_stmt 0 view .LVU686
 2053 0036 1D69     		ldr	r5, [r3, #16]
 883:Drivers/STM32F4xx_HAL_Driver/Src/stm32f4xx_ll_usb.c ****       USBx_OUTEP(epnum)->DOEPTSIZ |= (USB_OTG_DOEPTSIZ_PKTCNT & (1U << 19));
 2054              		.loc 1 883 63 view .LVU687
 2055 0038 C4F31204 		ubfx	r4, r4, #0, #19
 883:Drivers/STM32F4xx_HAL_Driver/Src/stm32f4xx_ll_usb.c ****       USBx_OUTEP(epnum)->DOEPTSIZ |= (USB_OTG_DOEPTSIZ_PKTCNT & (1U << 19));
 2056              		.loc 1 883 35 view .LVU688
 2057 003c 2C43     		orrs	r4, r4, r5
 2058 003e 1C61     		str	r4, [r3, #16]
 884:Drivers/STM32F4xx_HAL_Driver/Src/stm32f4xx_ll_usb.c ****     }
 2059              		.loc 1 884 7 is_stmt 1 view .LVU689
 884:Drivers/STM32F4xx_HAL_Driver/Src/stm32f4xx_ll_usb.c ****     }
 2060              		.loc 1 884 24 is_stmt 0 view .LVU690
 2061 0040 1C69     		ldr	r4, [r3, #16]
 884:Drivers/STM32F4xx_HAL_Driver/Src/stm32f4xx_ll_usb.c ****     }
 2062              		.loc 1 884 35 view .LVU691
 2063 0042 44F40024 		orr	r4, r4, #524288
 2064 0046 1C61     		str	r4, [r3, #16]
 2065              	.L153:
 903:Drivers/STM32F4xx_HAL_Driver/Src/stm32f4xx_ll_usb.c ****     {
 2066              		.loc 1 903 5 is_stmt 1 view .LVU692
 903:Drivers/STM32F4xx_HAL_Driver/Src/stm32f4xx_ll_usb.c ****     {
 2067              		.loc 1 903 8 is_stmt 0 view .LVU693
 2068 0048 012A     		cmp	r2, #1
 2069 004a 00F0D980 		beq	.L160
 2070              	.LVL136:
 2071              	.L155:
 911:Drivers/STM32F4xx_HAL_Driver/Src/stm32f4xx_ll_usb.c ****     {
 2072              		.loc 1 911 5 is_stmt 1 view .LVU694
 911:Drivers/STM32F4xx_HAL_Driver/Src/stm32f4xx_ll_usb.c ****     {
 2073              		.loc 1 911 11 is_stmt 0 view .LVU695
 2074 004e 0B79     		ldrb	r3, [r1, #4]	@ zero_extendqisi2
 911:Drivers/STM32F4xx_HAL_Driver/Src/stm32f4xx_ll_usb.c ****     {
 2075              		.loc 1 911 8 view .LVU696
 2076 0050 012B     		cmp	r3, #1
 2077 0052 00F0DB80 		beq	.L161
 2078              	.L156:
 923:Drivers/STM32F4xx_HAL_Driver/Src/stm32f4xx_ll_usb.c ****   }
 2079              		.loc 1 923 5 is_stmt 1 view .LVU697
 923:Drivers/STM32F4xx_HAL_Driver/Src/stm32f4xx_ll_usb.c ****   }
 2080              		.loc 1 923 22 is_stmt 0 view .LVU698
 2081 0056 DCF8003B 		ldr	r3, [ip, #2816]
 923:Drivers/STM32F4xx_HAL_Driver/Src/stm32f4xx_ll_usb.c ****   }
 2082              		.loc 1 923 32 view .LVU699
 2083 005a 43F00443 		orr	r3, r3, #-2080374784
 2084 005e CCF8003B 		str	r3, [ip, #2816]
 2085              	.LVL137:
 2086              	.L147:
 926:Drivers/STM32F4xx_HAL_Driver/Src/stm32f4xx_ll_usb.c **** }
 2087              		.loc 1 926 3 is_stmt 1 view .LVU700
ARM GAS  C:\Users\marci\AppData\Local\Temp\ccNtE0Aw.s 			page 74


 927:Drivers/STM32F4xx_HAL_Driver/Src/stm32f4xx_ll_usb.c **** 
 2088              		.loc 1 927 1 is_stmt 0 view .LVU701
 2089 0062 0020     		movs	r0, #0
 2090 0064 03B0     		add	sp, sp, #12
 2091              	.LCFI32:
 2092              		.cfi_remember_state
 2093              		.cfi_def_cfa_offset 20
 2094              		@ sp needed
 2095 0066 F0BD     		pop	{r4, r5, r6, r7, pc}
 2096              	.LVL138:
 2097              	.L159:
 2098              	.LCFI33:
 2099              		.cfi_restore_state
 774:Drivers/STM32F4xx_HAL_Driver/Src/stm32f4xx_ll_usb.c ****     {
 2100              		.loc 1 774 5 is_stmt 1 view .LVU702
 774:Drivers/STM32F4xx_HAL_Driver/Src/stm32f4xx_ll_usb.c ****     {
 2101              		.loc 1 774 11 is_stmt 0 view .LVU703
 2102 0068 0B69     		ldr	r3, [r1, #16]
 774:Drivers/STM32F4xx_HAL_Driver/Src/stm32f4xx_ll_usb.c ****     {
 2103              		.loc 1 774 8 view .LVU704
 2104 006a 73BB     		cbnz	r3, .L138
 776:Drivers/STM32F4xx_HAL_Driver/Src/stm32f4xx_ll_usb.c ****       USBx_INEP(epnum)->DIEPTSIZ |= (USB_OTG_DIEPTSIZ_PKTCNT & (1U << 19));
 2105              		.loc 1 776 7 is_stmt 1 view .LVU705
 776:Drivers/STM32F4xx_HAL_Driver/Src/stm32f4xx_ll_usb.c ****       USBx_INEP(epnum)->DIEPTSIZ |= (USB_OTG_DIEPTSIZ_PKTCNT & (1U << 19));
 2106              		.loc 1 776 23 is_stmt 0 view .LVU706
 2107 006c 00EB4413 		add	r3, r0, r4, lsl #5
 2108 0070 D3F81059 		ldr	r5, [r3, #2320]
 776:Drivers/STM32F4xx_HAL_Driver/Src/stm32f4xx_ll_usb.c ****       USBx_INEP(epnum)->DIEPTSIZ |= (USB_OTG_DIEPTSIZ_PKTCNT & (1U << 19));
 2109              		.loc 1 776 34 view .LVU707
 2110 0074 6FF3DC45 		bfc	r5, #19, #10
 2111 0078 C3F81059 		str	r5, [r3, #2320]
 777:Drivers/STM32F4xx_HAL_Driver/Src/stm32f4xx_ll_usb.c ****       USBx_INEP(epnum)->DIEPTSIZ &= ~(USB_OTG_DIEPTSIZ_XFRSIZ);
 2112              		.loc 1 777 7 is_stmt 1 view .LVU708
 777:Drivers/STM32F4xx_HAL_Driver/Src/stm32f4xx_ll_usb.c ****       USBx_INEP(epnum)->DIEPTSIZ &= ~(USB_OTG_DIEPTSIZ_XFRSIZ);
 2113              		.loc 1 777 23 is_stmt 0 view .LVU709
 2114 007c D3F81059 		ldr	r5, [r3, #2320]
 777:Drivers/STM32F4xx_HAL_Driver/Src/stm32f4xx_ll_usb.c ****       USBx_INEP(epnum)->DIEPTSIZ &= ~(USB_OTG_DIEPTSIZ_XFRSIZ);
 2115              		.loc 1 777 34 view .LVU710
 2116 0080 45F40025 		orr	r5, r5, #524288
 2117 0084 C3F81059 		str	r5, [r3, #2320]
 778:Drivers/STM32F4xx_HAL_Driver/Src/stm32f4xx_ll_usb.c ****     }
 2118              		.loc 1 778 7 is_stmt 1 view .LVU711
 778:Drivers/STM32F4xx_HAL_Driver/Src/stm32f4xx_ll_usb.c ****     }
 2119              		.loc 1 778 23 is_stmt 0 view .LVU712
 2120 0088 D3F81059 		ldr	r5, [r3, #2320]
 778:Drivers/STM32F4xx_HAL_Driver/Src/stm32f4xx_ll_usb.c ****     }
 2121              		.loc 1 778 34 view .LVU713
 2122 008c 6FF31205 		bfc	r5, #0, #19
 2123 0090 C3F81059 		str	r5, [r3, #2320]
 2124              	.L139:
 814:Drivers/STM32F4xx_HAL_Driver/Src/stm32f4xx_ll_usb.c ****     {
 2125              		.loc 1 814 5 is_stmt 1 view .LVU714
 814:Drivers/STM32F4xx_HAL_Driver/Src/stm32f4xx_ll_usb.c ****     {
 2126              		.loc 1 814 8 is_stmt 0 view .LVU715
 2127 0094 012A     		cmp	r2, #1
 2128 0096 4ED0     		beq	.L162
 839:Drivers/STM32F4xx_HAL_Driver/Src/stm32f4xx_ll_usb.c **** 
ARM GAS  C:\Users\marci\AppData\Local\Temp\ccNtE0Aw.s 			page 75


 2129              		.loc 1 839 7 is_stmt 1 view .LVU716
 839:Drivers/STM32F4xx_HAL_Driver/Src/stm32f4xx_ll_usb.c **** 
 2130              		.loc 1 839 23 is_stmt 0 view .LVU717
 2131 0098 00EB4414 		add	r4, r0, r4, lsl #5
 2132              	.LVL139:
 839:Drivers/STM32F4xx_HAL_Driver/Src/stm32f4xx_ll_usb.c **** 
 2133              		.loc 1 839 23 view .LVU718
 2134 009c D4F80039 		ldr	r3, [r4, #2304]
 839:Drivers/STM32F4xx_HAL_Driver/Src/stm32f4xx_ll_usb.c **** 
 2135              		.loc 1 839 33 view .LVU719
 2136 00a0 43F00443 		orr	r3, r3, #-2080374784
 2137 00a4 C4F80039 		str	r3, [r4, #2304]
 841:Drivers/STM32F4xx_HAL_Driver/Src/stm32f4xx_ll_usb.c ****       {
 2138              		.loc 1 841 7 is_stmt 1 view .LVU720
 841:Drivers/STM32F4xx_HAL_Driver/Src/stm32f4xx_ll_usb.c ****       {
 2139              		.loc 1 841 13 is_stmt 0 view .LVU721
 2140 00a8 0B79     		ldrb	r3, [r1, #4]	@ zero_extendqisi2
 841:Drivers/STM32F4xx_HAL_Driver/Src/stm32f4xx_ll_usb.c ****       {
 2141              		.loc 1 841 10 view .LVU722
 2142 00aa 012B     		cmp	r3, #1
 2143 00ac 6CD0     		beq	.L148
 844:Drivers/STM32F4xx_HAL_Driver/Src/stm32f4xx_ll_usb.c ****         {
 2144              		.loc 1 844 9 is_stmt 1 view .LVU723
 844:Drivers/STM32F4xx_HAL_Driver/Src/stm32f4xx_ll_usb.c ****         {
 2145              		.loc 1 844 15 is_stmt 0 view .LVU724
 2146 00ae 0B69     		ldr	r3, [r1, #16]
 844:Drivers/STM32F4xx_HAL_Driver/Src/stm32f4xx_ll_usb.c ****         {
 2147              		.loc 1 844 12 view .LVU725
 2148 00b0 002B     		cmp	r3, #0
 2149 00b2 D6D0     		beq	.L147
 846:Drivers/STM32F4xx_HAL_Driver/Src/stm32f4xx_ll_usb.c ****         }
 2150              		.loc 1 846 11 is_stmt 1 view .LVU726
 846:Drivers/STM32F4xx_HAL_Driver/Src/stm32f4xx_ll_usb.c ****         }
 2151              		.loc 1 846 22 is_stmt 0 view .LVU727
 2152 00b4 D0F83438 		ldr	r3, [r0, #2100]
 846:Drivers/STM32F4xx_HAL_Driver/Src/stm32f4xx_ll_usb.c ****         }
 2153              		.loc 1 846 48 view .LVU728
 2154 00b8 0978     		ldrb	r1, [r1]	@ zero_extendqisi2
 2155              	.LVL140:
 846:Drivers/STM32F4xx_HAL_Driver/Src/stm32f4xx_ll_usb.c ****         }
 2156              		.loc 1 846 54 view .LVU729
 2157 00ba 01F00F01 		and	r1, r1, #15
 846:Drivers/STM32F4xx_HAL_Driver/Src/stm32f4xx_ll_usb.c ****         }
 2158              		.loc 1 846 42 view .LVU730
 2159 00be 0122     		movs	r2, #1
 2160              	.LVL141:
 846:Drivers/STM32F4xx_HAL_Driver/Src/stm32f4xx_ll_usb.c ****         }
 2161              		.loc 1 846 42 view .LVU731
 2162 00c0 8A40     		lsls	r2, r2, r1
 846:Drivers/STM32F4xx_HAL_Driver/Src/stm32f4xx_ll_usb.c ****         }
 2163              		.loc 1 846 35 view .LVU732
 2164 00c2 1343     		orrs	r3, r3, r2
 2165 00c4 C0F83438 		str	r3, [r0, #2100]
 2166 00c8 CBE7     		b	.L147
 2167              	.LVL142:
 2168              	.L138:
 787:Drivers/STM32F4xx_HAL_Driver/Src/stm32f4xx_ll_usb.c ****       USBx_INEP(epnum)->DIEPTSIZ &= ~(USB_OTG_DIEPTSIZ_PKTCNT);
ARM GAS  C:\Users\marci\AppData\Local\Temp\ccNtE0Aw.s 			page 76


 2169              		.loc 1 787 7 is_stmt 1 view .LVU733
 787:Drivers/STM32F4xx_HAL_Driver/Src/stm32f4xx_ll_usb.c ****       USBx_INEP(epnum)->DIEPTSIZ &= ~(USB_OTG_DIEPTSIZ_PKTCNT);
 2170              		.loc 1 787 23 is_stmt 0 view .LVU734
 2171 00ca 00EB4413 		add	r3, r0, r4, lsl #5
 2172 00ce 03F51063 		add	r3, r3, #2304
 2173 00d2 1D69     		ldr	r5, [r3, #16]
 787:Drivers/STM32F4xx_HAL_Driver/Src/stm32f4xx_ll_usb.c ****       USBx_INEP(epnum)->DIEPTSIZ &= ~(USB_OTG_DIEPTSIZ_PKTCNT);
 2174              		.loc 1 787 34 view .LVU735
 2175 00d4 6FF31205 		bfc	r5, #0, #19
 2176 00d8 1D61     		str	r5, [r3, #16]
 788:Drivers/STM32F4xx_HAL_Driver/Src/stm32f4xx_ll_usb.c **** 
 2177              		.loc 1 788 7 is_stmt 1 view .LVU736
 788:Drivers/STM32F4xx_HAL_Driver/Src/stm32f4xx_ll_usb.c **** 
 2178              		.loc 1 788 23 is_stmt 0 view .LVU737
 2179 00da 1D69     		ldr	r5, [r3, #16]
 788:Drivers/STM32F4xx_HAL_Driver/Src/stm32f4xx_ll_usb.c **** 
 2180              		.loc 1 788 34 view .LVU738
 2181 00dc 6FF3DC45 		bfc	r5, #19, #10
 2182 00e0 1D61     		str	r5, [r3, #16]
 790:Drivers/STM32F4xx_HAL_Driver/Src/stm32f4xx_ll_usb.c ****       {
 2183              		.loc 1 790 7 is_stmt 1 view .LVU739
 790:Drivers/STM32F4xx_HAL_Driver/Src/stm32f4xx_ll_usb.c ****       {
 2184              		.loc 1 790 10 is_stmt 0 view .LVU740
 2185 00e2 DCB9     		cbnz	r4, .L140
 792:Drivers/STM32F4xx_HAL_Driver/Src/stm32f4xx_ll_usb.c ****         {
 2186              		.loc 1 792 9 is_stmt 1 view .LVU741
 792:Drivers/STM32F4xx_HAL_Driver/Src/stm32f4xx_ll_usb.c ****         {
 2187              		.loc 1 792 15 is_stmt 0 view .LVU742
 2188 00e4 0E69     		ldr	r6, [r1, #16]
 792:Drivers/STM32F4xx_HAL_Driver/Src/stm32f4xx_ll_usb.c ****         {
 2189              		.loc 1 792 30 view .LVU743
 2190 00e6 8D68     		ldr	r5, [r1, #8]
 792:Drivers/STM32F4xx_HAL_Driver/Src/stm32f4xx_ll_usb.c ****         {
 2191              		.loc 1 792 12 view .LVU744
 2192 00e8 AE42     		cmp	r6, r5
 2193 00ea 00D9     		bls	.L141
 794:Drivers/STM32F4xx_HAL_Driver/Src/stm32f4xx_ll_usb.c ****         }
 2194              		.loc 1 794 11 is_stmt 1 view .LVU745
 794:Drivers/STM32F4xx_HAL_Driver/Src/stm32f4xx_ll_usb.c ****         }
 2195              		.loc 1 794 24 is_stmt 0 view .LVU746
 2196 00ec 0D61     		str	r5, [r1, #16]
 2197              	.L141:
 797:Drivers/STM32F4xx_HAL_Driver/Src/stm32f4xx_ll_usb.c ****       }
 2198              		.loc 1 797 9 is_stmt 1 view .LVU747
 797:Drivers/STM32F4xx_HAL_Driver/Src/stm32f4xx_ll_usb.c ****       }
 2199              		.loc 1 797 25 is_stmt 0 view .LVU748
 2200 00ee 1D69     		ldr	r5, [r3, #16]
 797:Drivers/STM32F4xx_HAL_Driver/Src/stm32f4xx_ll_usb.c ****       }
 2201              		.loc 1 797 36 view .LVU749
 2202 00f0 45F40025 		orr	r5, r5, #524288
 2203 00f4 1D61     		str	r5, [r3, #16]
 2204              	.L142:
 805:Drivers/STM32F4xx_HAL_Driver/Src/stm32f4xx_ll_usb.c **** 
 2205              		.loc 1 805 7 is_stmt 1 view .LVU750
 805:Drivers/STM32F4xx_HAL_Driver/Src/stm32f4xx_ll_usb.c **** 
 2206              		.loc 1 805 23 is_stmt 0 view .LVU751
 2207 00f6 1D69     		ldr	r5, [r3, #16]
ARM GAS  C:\Users\marci\AppData\Local\Temp\ccNtE0Aw.s 			page 77


 805:Drivers/STM32F4xx_HAL_Driver/Src/stm32f4xx_ll_usb.c **** 
 2208              		.loc 1 805 62 view .LVU752
 2209 00f8 0E69     		ldr	r6, [r1, #16]
 2210 00fa C6F3120C 		ubfx	ip, r6, #0, #19
 805:Drivers/STM32F4xx_HAL_Driver/Src/stm32f4xx_ll_usb.c **** 
 2211              		.loc 1 805 34 view .LVU753
 2212 00fe 45EA0C05 		orr	r5, r5, ip
 2213 0102 1D61     		str	r5, [r3, #16]
 807:Drivers/STM32F4xx_HAL_Driver/Src/stm32f4xx_ll_usb.c ****       {
 2214              		.loc 1 807 7 is_stmt 1 view .LVU754
 807:Drivers/STM32F4xx_HAL_Driver/Src/stm32f4xx_ll_usb.c ****       {
 2215              		.loc 1 807 13 is_stmt 0 view .LVU755
 2216 0104 0D79     		ldrb	r5, [r1, #4]	@ zero_extendqisi2
 807:Drivers/STM32F4xx_HAL_Driver/Src/stm32f4xx_ll_usb.c ****       {
 2217              		.loc 1 807 10 view .LVU756
 2218 0106 012D     		cmp	r5, #1
 2219 0108 C4D1     		bne	.L139
 809:Drivers/STM32F4xx_HAL_Driver/Src/stm32f4xx_ll_usb.c ****         USBx_INEP(epnum)->DIEPTSIZ |= (USB_OTG_DIEPTSIZ_MULCNT & (1U << 29));
 2220              		.loc 1 809 9 is_stmt 1 view .LVU757
 809:Drivers/STM32F4xx_HAL_Driver/Src/stm32f4xx_ll_usb.c ****         USBx_INEP(epnum)->DIEPTSIZ |= (USB_OTG_DIEPTSIZ_MULCNT & (1U << 29));
 2221              		.loc 1 809 25 is_stmt 0 view .LVU758
 2222 010a 1D69     		ldr	r5, [r3, #16]
 809:Drivers/STM32F4xx_HAL_Driver/Src/stm32f4xx_ll_usb.c ****         USBx_INEP(epnum)->DIEPTSIZ |= (USB_OTG_DIEPTSIZ_MULCNT & (1U << 29));
 2223              		.loc 1 809 36 view .LVU759
 2224 010c 25F0C045 		bic	r5, r5, #1610612736
 2225 0110 1D61     		str	r5, [r3, #16]
 810:Drivers/STM32F4xx_HAL_Driver/Src/stm32f4xx_ll_usb.c ****       }
 2226              		.loc 1 810 9 is_stmt 1 view .LVU760
 810:Drivers/STM32F4xx_HAL_Driver/Src/stm32f4xx_ll_usb.c ****       }
 2227              		.loc 1 810 25 is_stmt 0 view .LVU761
 2228 0112 1D69     		ldr	r5, [r3, #16]
 810:Drivers/STM32F4xx_HAL_Driver/Src/stm32f4xx_ll_usb.c ****       }
 2229              		.loc 1 810 36 view .LVU762
 2230 0114 45F00055 		orr	r5, r5, #536870912
 2231 0118 1D61     		str	r5, [r3, #16]
 2232 011a BBE7     		b	.L139
 2233              	.L140:
 801:Drivers/STM32F4xx_HAL_Driver/Src/stm32f4xx_ll_usb.c ****                                        (((ep->xfer_len + ep->maxpacket - 1U) / ep->maxpacket) << 19
 2234              		.loc 1 801 9 is_stmt 1 view .LVU763
 801:Drivers/STM32F4xx_HAL_Driver/Src/stm32f4xx_ll_usb.c ****                                        (((ep->xfer_len + ep->maxpacket - 1U) / ep->maxpacket) << 19
 2235              		.loc 1 801 25 is_stmt 0 view .LVU764
 2236 011c 1E69     		ldr	r6, [r3, #16]
 802:Drivers/STM32F4xx_HAL_Driver/Src/stm32f4xx_ll_usb.c ****       }
 2237              		.loc 1 802 45 view .LVU765
 2238 011e 0D69     		ldr	r5, [r1, #16]
 802:Drivers/STM32F4xx_HAL_Driver/Src/stm32f4xx_ll_usb.c ****       }
 2239              		.loc 1 802 60 view .LVU766
 2240 0120 8F68     		ldr	r7, [r1, #8]
 802:Drivers/STM32F4xx_HAL_Driver/Src/stm32f4xx_ll_usb.c ****       }
 2241              		.loc 1 802 56 view .LVU767
 2242 0122 3D44     		add	r5, r5, r7
 802:Drivers/STM32F4xx_HAL_Driver/Src/stm32f4xx_ll_usb.c ****       }
 2243              		.loc 1 802 72 view .LVU768
 2244 0124 013D     		subs	r5, r5, #1
 802:Drivers/STM32F4xx_HAL_Driver/Src/stm32f4xx_ll_usb.c ****       }
 2245              		.loc 1 802 78 view .LVU769
 2246 0126 B5FBF7F5 		udiv	r5, r5, r7
ARM GAS  C:\Users\marci\AppData\Local\Temp\ccNtE0Aw.s 			page 78


 801:Drivers/STM32F4xx_HAL_Driver/Src/stm32f4xx_ll_usb.c ****                                        (((ep->xfer_len + ep->maxpacket - 1U) / ep->maxpacket) << 19
 2247              		.loc 1 801 64 view .LVU770
 2248 012a 424F     		ldr	r7, .L164
 2249 012c 07EAC545 		and	r5, r7, r5, lsl #19
 801:Drivers/STM32F4xx_HAL_Driver/Src/stm32f4xx_ll_usb.c ****                                        (((ep->xfer_len + ep->maxpacket - 1U) / ep->maxpacket) << 19
 2250              		.loc 1 801 36 view .LVU771
 2251 0130 3543     		orrs	r5, r5, r6
 2252 0132 1D61     		str	r5, [r3, #16]
 2253 0134 DFE7     		b	.L142
 2254              	.L162:
 816:Drivers/STM32F4xx_HAL_Driver/Src/stm32f4xx_ll_usb.c ****       {
 2255              		.loc 1 816 7 is_stmt 1 view .LVU772
 816:Drivers/STM32F4xx_HAL_Driver/Src/stm32f4xx_ll_usb.c ****       {
 2256              		.loc 1 816 23 is_stmt 0 view .LVU773
 2257 0136 CB69     		ldr	r3, [r1, #28]
 816:Drivers/STM32F4xx_HAL_Driver/Src/stm32f4xx_ll_usb.c ****       {
 2258              		.loc 1 816 10 view .LVU774
 2259 0138 1BB1     		cbz	r3, .L144
 818:Drivers/STM32F4xx_HAL_Driver/Src/stm32f4xx_ll_usb.c ****       }
 2260              		.loc 1 818 9 is_stmt 1 view .LVU775
 2261 013a 00EB4412 		add	r2, r0, r4, lsl #5
 2262              	.LVL143:
 818:Drivers/STM32F4xx_HAL_Driver/Src/stm32f4xx_ll_usb.c ****       }
 2263              		.loc 1 818 35 is_stmt 0 view .LVU776
 2264 013e C2F81439 		str	r3, [r2, #2324]
 2265              	.L144:
 821:Drivers/STM32F4xx_HAL_Driver/Src/stm32f4xx_ll_usb.c ****       {
 2266              		.loc 1 821 7 is_stmt 1 view .LVU777
 821:Drivers/STM32F4xx_HAL_Driver/Src/stm32f4xx_ll_usb.c ****       {
 2267              		.loc 1 821 13 is_stmt 0 view .LVU778
 2268 0142 0B79     		ldrb	r3, [r1, #4]	@ zero_extendqisi2
 821:Drivers/STM32F4xx_HAL_Driver/Src/stm32f4xx_ll_usb.c ****       {
 2269              		.loc 1 821 10 view .LVU779
 2270 0144 012B     		cmp	r3, #1
 2271 0146 08D0     		beq	.L163
 2272              	.L145:
 834:Drivers/STM32F4xx_HAL_Driver/Src/stm32f4xx_ll_usb.c ****     }
 2273              		.loc 1 834 7 is_stmt 1 view .LVU780
 834:Drivers/STM32F4xx_HAL_Driver/Src/stm32f4xx_ll_usb.c ****     }
 2274              		.loc 1 834 23 is_stmt 0 view .LVU781
 2275 0148 00EB4414 		add	r4, r0, r4, lsl #5
 2276              	.LVL144:
 834:Drivers/STM32F4xx_HAL_Driver/Src/stm32f4xx_ll_usb.c ****     }
 2277              		.loc 1 834 23 view .LVU782
 2278 014c D4F80039 		ldr	r3, [r4, #2304]
 834:Drivers/STM32F4xx_HAL_Driver/Src/stm32f4xx_ll_usb.c ****     }
 2279              		.loc 1 834 33 view .LVU783
 2280 0150 43F00443 		orr	r3, r3, #-2080374784
 2281 0154 C4F80039 		str	r3, [r4, #2304]
 2282 0158 83E7     		b	.L147
 2283              	.LVL145:
 2284              	.L163:
 823:Drivers/STM32F4xx_HAL_Driver/Src/stm32f4xx_ll_usb.c ****         {
 2285              		.loc 1 823 9 is_stmt 1 view .LVU784
 823:Drivers/STM32F4xx_HAL_Driver/Src/stm32f4xx_ll_usb.c ****         {
 2286              		.loc 1 823 25 is_stmt 0 view .LVU785
 2287 015a D0F80838 		ldr	r3, [r0, #2056]
ARM GAS  C:\Users\marci\AppData\Local\Temp\ccNtE0Aw.s 			page 79


 823:Drivers/STM32F4xx_HAL_Driver/Src/stm32f4xx_ll_usb.c ****         {
 2288              		.loc 1 823 12 view .LVU786
 2289 015e 13F4807F 		tst	r3, #256
 2290 0162 08D1     		bne	.L146
 825:Drivers/STM32F4xx_HAL_Driver/Src/stm32f4xx_ll_usb.c ****         }
 2291              		.loc 1 825 11 is_stmt 1 view .LVU787
 825:Drivers/STM32F4xx_HAL_Driver/Src/stm32f4xx_ll_usb.c ****         }
 2292              		.loc 1 825 27 is_stmt 0 view .LVU788
 2293 0164 00EB4412 		add	r2, r0, r4, lsl #5
 2294 0168 D2F80039 		ldr	r3, [r2, #2304]
 825:Drivers/STM32F4xx_HAL_Driver/Src/stm32f4xx_ll_usb.c ****         }
 2295              		.loc 1 825 37 view .LVU789
 2296 016c 43F00053 		orr	r3, r3, #536870912
 2297 0170 C2F80039 		str	r3, [r2, #2304]
 2298 0174 E8E7     		b	.L145
 2299              	.L146:
 829:Drivers/STM32F4xx_HAL_Driver/Src/stm32f4xx_ll_usb.c ****         }
 2300              		.loc 1 829 11 is_stmt 1 view .LVU790
 829:Drivers/STM32F4xx_HAL_Driver/Src/stm32f4xx_ll_usb.c ****         }
 2301              		.loc 1 829 27 is_stmt 0 view .LVU791
 2302 0176 00EB4412 		add	r2, r0, r4, lsl #5
 2303 017a D2F80039 		ldr	r3, [r2, #2304]
 829:Drivers/STM32F4xx_HAL_Driver/Src/stm32f4xx_ll_usb.c ****         }
 2304              		.loc 1 829 37 view .LVU792
 2305 017e 43F08053 		orr	r3, r3, #268435456
 2306 0182 C2F80039 		str	r3, [r2, #2304]
 2307 0186 DFE7     		b	.L145
 2308              	.LVL146:
 2309              	.L148:
 851:Drivers/STM32F4xx_HAL_Driver/Src/stm32f4xx_ll_usb.c ****         {
 2310              		.loc 1 851 9 is_stmt 1 view .LVU793
 851:Drivers/STM32F4xx_HAL_Driver/Src/stm32f4xx_ll_usb.c ****         {
 2311              		.loc 1 851 25 is_stmt 0 view .LVU794
 2312 0188 D0F80838 		ldr	r3, [r0, #2056]
 851:Drivers/STM32F4xx_HAL_Driver/Src/stm32f4xx_ll_usb.c ****         {
 2313              		.loc 1 851 12 view .LVU795
 2314 018c 13F4807F 		tst	r3, #256
 2315 0190 0CD1     		bne	.L149
 853:Drivers/STM32F4xx_HAL_Driver/Src/stm32f4xx_ll_usb.c ****         }
 2316              		.loc 1 853 11 is_stmt 1 view .LVU796
 853:Drivers/STM32F4xx_HAL_Driver/Src/stm32f4xx_ll_usb.c ****         }
 2317              		.loc 1 853 27 is_stmt 0 view .LVU797
 2318 0192 D4F80039 		ldr	r3, [r4, #2304]
 853:Drivers/STM32F4xx_HAL_Driver/Src/stm32f4xx_ll_usb.c ****         }
 2319              		.loc 1 853 37 view .LVU798
 2320 0196 43F00053 		orr	r3, r3, #536870912
 2321 019a C4F80039 		str	r3, [r4, #2304]
 2322              	.L150:
 860:Drivers/STM32F4xx_HAL_Driver/Src/stm32f4xx_ll_usb.c ****       }
 2323              		.loc 1 860 9 is_stmt 1 view .LVU799
 860:Drivers/STM32F4xx_HAL_Driver/Src/stm32f4xx_ll_usb.c ****       }
 2324              		.loc 1 860 15 is_stmt 0 view .LVU800
 2325 019e 0092     		str	r2, [sp]
 2326 01a0 0B8A     		ldrh	r3, [r1, #16]
 2327 01a2 0A78     		ldrb	r2, [r1]	@ zero_extendqisi2
 2328              	.LVL147:
 860:Drivers/STM32F4xx_HAL_Driver/Src/stm32f4xx_ll_usb.c ****       }
ARM GAS  C:\Users\marci\AppData\Local\Temp\ccNtE0Aw.s 			page 80


 2329              		.loc 1 860 15 view .LVU801
 2330 01a4 C968     		ldr	r1, [r1, #12]
 2331              	.LVL148:
 860:Drivers/STM32F4xx_HAL_Driver/Src/stm32f4xx_ll_usb.c ****       }
 2332              		.loc 1 860 15 view .LVU802
 2333 01a6 FFF7FEFF 		bl	USB_WritePacket
 2334              	.LVL149:
 860:Drivers/STM32F4xx_HAL_Driver/Src/stm32f4xx_ll_usb.c ****       }
 2335              		.loc 1 860 15 view .LVU803
 2336 01aa 5AE7     		b	.L147
 2337              	.LVL150:
 2338              	.L149:
 857:Drivers/STM32F4xx_HAL_Driver/Src/stm32f4xx_ll_usb.c ****         }
 2339              		.loc 1 857 11 is_stmt 1 view .LVU804
 857:Drivers/STM32F4xx_HAL_Driver/Src/stm32f4xx_ll_usb.c ****         }
 2340              		.loc 1 857 27 is_stmt 0 view .LVU805
 2341 01ac D4F80039 		ldr	r3, [r4, #2304]
 857:Drivers/STM32F4xx_HAL_Driver/Src/stm32f4xx_ll_usb.c ****         }
 2342              		.loc 1 857 37 view .LVU806
 2343 01b0 43F08053 		orr	r3, r3, #268435456
 2344 01b4 C4F80039 		str	r3, [r4, #2304]
 2345 01b8 F1E7     		b	.L150
 2346              	.LVL151:
 2347              	.L151:
 888:Drivers/STM32F4xx_HAL_Driver/Src/stm32f4xx_ll_usb.c ****       {
 2348              		.loc 1 888 7 is_stmt 1 view .LVU807
 888:Drivers/STM32F4xx_HAL_Driver/Src/stm32f4xx_ll_usb.c ****       {
 2349              		.loc 1 888 13 is_stmt 0 view .LVU808
 2350 01ba 0C69     		ldr	r4, [r1, #16]
 2351              	.LVL152:
 888:Drivers/STM32F4xx_HAL_Driver/Src/stm32f4xx_ll_usb.c ****       {
 2352              		.loc 1 888 10 view .LVU809
 2353 01bc 54B9     		cbnz	r4, .L154
 890:Drivers/STM32F4xx_HAL_Driver/Src/stm32f4xx_ll_usb.c ****         USBx_OUTEP(epnum)->DOEPTSIZ |= (USB_OTG_DOEPTSIZ_PKTCNT & (1U << 19));
 2354              		.loc 1 890 9 is_stmt 1 view .LVU810
 890:Drivers/STM32F4xx_HAL_Driver/Src/stm32f4xx_ll_usb.c ****         USBx_OUTEP(epnum)->DOEPTSIZ |= (USB_OTG_DOEPTSIZ_PKTCNT & (1U << 19));
 2355              		.loc 1 890 26 is_stmt 0 view .LVU811
 2356 01be 1C69     		ldr	r4, [r3, #16]
 890:Drivers/STM32F4xx_HAL_Driver/Src/stm32f4xx_ll_usb.c ****         USBx_OUTEP(epnum)->DOEPTSIZ |= (USB_OTG_DOEPTSIZ_PKTCNT & (1U << 19));
 2357              		.loc 1 890 69 view .LVU812
 2358 01c0 8D68     		ldr	r5, [r1, #8]
 890:Drivers/STM32F4xx_HAL_Driver/Src/stm32f4xx_ll_usb.c ****         USBx_OUTEP(epnum)->DOEPTSIZ |= (USB_OTG_DOEPTSIZ_PKTCNT & (1U << 19));
 2359              		.loc 1 890 65 view .LVU813
 2360 01c2 C5F31205 		ubfx	r5, r5, #0, #19
 890:Drivers/STM32F4xx_HAL_Driver/Src/stm32f4xx_ll_usb.c ****         USBx_OUTEP(epnum)->DOEPTSIZ |= (USB_OTG_DOEPTSIZ_PKTCNT & (1U << 19));
 2361              		.loc 1 890 37 view .LVU814
 2362 01c6 2C43     		orrs	r4, r4, r5
 2363 01c8 1C61     		str	r4, [r3, #16]
 891:Drivers/STM32F4xx_HAL_Driver/Src/stm32f4xx_ll_usb.c ****       }
 2364              		.loc 1 891 9 is_stmt 1 view .LVU815
 891:Drivers/STM32F4xx_HAL_Driver/Src/stm32f4xx_ll_usb.c ****       }
 2365              		.loc 1 891 26 is_stmt 0 view .LVU816
 2366 01ca 1C69     		ldr	r4, [r3, #16]
 891:Drivers/STM32F4xx_HAL_Driver/Src/stm32f4xx_ll_usb.c ****       }
 2367              		.loc 1 891 37 view .LVU817
 2368 01cc 44F40024 		orr	r4, r4, #524288
 2369 01d0 1C61     		str	r4, [r3, #16]
ARM GAS  C:\Users\marci\AppData\Local\Temp\ccNtE0Aw.s 			page 81


 2370 01d2 39E7     		b	.L153
 2371              	.L154:
 895:Drivers/STM32F4xx_HAL_Driver/Src/stm32f4xx_ll_usb.c ****         ep->xfer_size = ep->maxpacket * pktcnt;
 2372              		.loc 1 895 9 is_stmt 1 view .LVU818
 895:Drivers/STM32F4xx_HAL_Driver/Src/stm32f4xx_ll_usb.c ****         ep->xfer_size = ep->maxpacket * pktcnt;
 2373              		.loc 1 895 47 is_stmt 0 view .LVU819
 2374 01d4 8D68     		ldr	r5, [r1, #8]
 895:Drivers/STM32F4xx_HAL_Driver/Src/stm32f4xx_ll_usb.c ****         ep->xfer_size = ep->maxpacket * pktcnt;
 2375              		.loc 1 895 43 view .LVU820
 2376 01d6 2C44     		add	r4, r4, r5
 895:Drivers/STM32F4xx_HAL_Driver/Src/stm32f4xx_ll_usb.c ****         ep->xfer_size = ep->maxpacket * pktcnt;
 2377              		.loc 1 895 59 view .LVU821
 2378 01d8 013C     		subs	r4, r4, #1
 895:Drivers/STM32F4xx_HAL_Driver/Src/stm32f4xx_ll_usb.c ****         ep->xfer_size = ep->maxpacket * pktcnt;
 2379              		.loc 1 895 65 view .LVU822
 2380 01da B4FBF5F4 		udiv	r4, r4, r5
 2381              	.LVL153:
 896:Drivers/STM32F4xx_HAL_Driver/Src/stm32f4xx_ll_usb.c **** 
 2382              		.loc 1 896 9 is_stmt 1 view .LVU823
 2383 01de A4B2     		uxth	r4, r4
 896:Drivers/STM32F4xx_HAL_Driver/Src/stm32f4xx_ll_usb.c **** 
 2384              		.loc 1 896 39 is_stmt 0 view .LVU824
 2385 01e0 04FB05F5 		mul	r5, r4, r5
 896:Drivers/STM32F4xx_HAL_Driver/Src/stm32f4xx_ll_usb.c **** 
 2386              		.loc 1 896 23 view .LVU825
 2387 01e4 0D62     		str	r5, [r1, #32]
 898:Drivers/STM32F4xx_HAL_Driver/Src/stm32f4xx_ll_usb.c ****         USBx_OUTEP(epnum)->DOEPTSIZ |= USB_OTG_DOEPTSIZ_XFRSIZ & ep->xfer_size;
 2388              		.loc 1 898 9 is_stmt 1 view .LVU826
 898:Drivers/STM32F4xx_HAL_Driver/Src/stm32f4xx_ll_usb.c ****         USBx_OUTEP(epnum)->DOEPTSIZ |= USB_OTG_DOEPTSIZ_XFRSIZ & ep->xfer_size;
 2389              		.loc 1 898 26 is_stmt 0 view .LVU827
 2390 01e6 1D69     		ldr	r5, [r3, #16]
 898:Drivers/STM32F4xx_HAL_Driver/Src/stm32f4xx_ll_usb.c ****         USBx_OUTEP(epnum)->DOEPTSIZ |= USB_OTG_DOEPTSIZ_XFRSIZ & ep->xfer_size;
 2391              		.loc 1 898 64 view .LVU828
 2392 01e8 124E     		ldr	r6, .L164
 2393 01ea 06EAC444 		and	r4, r6, r4, lsl #19
 2394              	.LVL154:
 898:Drivers/STM32F4xx_HAL_Driver/Src/stm32f4xx_ll_usb.c ****         USBx_OUTEP(epnum)->DOEPTSIZ |= USB_OTG_DOEPTSIZ_XFRSIZ & ep->xfer_size;
 2395              		.loc 1 898 37 view .LVU829
 2396 01ee 2C43     		orrs	r4, r4, r5
 2397 01f0 1C61     		str	r4, [r3, #16]
 2398              	.LVL155:
 899:Drivers/STM32F4xx_HAL_Driver/Src/stm32f4xx_ll_usb.c ****       }
 2399              		.loc 1 899 9 is_stmt 1 view .LVU830
 899:Drivers/STM32F4xx_HAL_Driver/Src/stm32f4xx_ll_usb.c ****       }
 2400              		.loc 1 899 26 is_stmt 0 view .LVU831
 2401 01f2 1C69     		ldr	r4, [r3, #16]
 899:Drivers/STM32F4xx_HAL_Driver/Src/stm32f4xx_ll_usb.c ****       }
 2402              		.loc 1 899 68 view .LVU832
 2403 01f4 0D6A     		ldr	r5, [r1, #32]
 899:Drivers/STM32F4xx_HAL_Driver/Src/stm32f4xx_ll_usb.c ****       }
 2404              		.loc 1 899 64 view .LVU833
 2405 01f6 C5F31205 		ubfx	r5, r5, #0, #19
 899:Drivers/STM32F4xx_HAL_Driver/Src/stm32f4xx_ll_usb.c ****       }
 2406              		.loc 1 899 37 view .LVU834
 2407 01fa 2C43     		orrs	r4, r4, r5
 2408 01fc 1C61     		str	r4, [r3, #16]
 2409 01fe 23E7     		b	.L153
ARM GAS  C:\Users\marci\AppData\Local\Temp\ccNtE0Aw.s 			page 82


 2410              	.LVL156:
 2411              	.L160:
 905:Drivers/STM32F4xx_HAL_Driver/Src/stm32f4xx_ll_usb.c ****       {
 2412              		.loc 1 905 7 is_stmt 1 view .LVU835
 905:Drivers/STM32F4xx_HAL_Driver/Src/stm32f4xx_ll_usb.c ****       {
 2413              		.loc 1 905 23 is_stmt 0 view .LVU836
 2414 0200 CA68     		ldr	r2, [r1, #12]
 2415              	.LVL157:
 905:Drivers/STM32F4xx_HAL_Driver/Src/stm32f4xx_ll_usb.c ****       {
 2416              		.loc 1 905 10 view .LVU837
 2417 0202 002A     		cmp	r2, #0
 2418 0204 3FF423AF 		beq	.L155
 907:Drivers/STM32F4xx_HAL_Driver/Src/stm32f4xx_ll_usb.c ****       }
 2419              		.loc 1 907 9 is_stmt 1 view .LVU838
 907:Drivers/STM32F4xx_HAL_Driver/Src/stm32f4xx_ll_usb.c ****       }
 2420              		.loc 1 907 36 is_stmt 0 view .LVU839
 2421 0208 5A61     		str	r2, [r3, #20]
 2422 020a 20E7     		b	.L155
 2423              	.L161:
 913:Drivers/STM32F4xx_HAL_Driver/Src/stm32f4xx_ll_usb.c ****       {
 2424              		.loc 1 913 7 is_stmt 1 view .LVU840
 913:Drivers/STM32F4xx_HAL_Driver/Src/stm32f4xx_ll_usb.c ****       {
 2425              		.loc 1 913 23 is_stmt 0 view .LVU841
 2426 020c D0F80838 		ldr	r3, [r0, #2056]
 913:Drivers/STM32F4xx_HAL_Driver/Src/stm32f4xx_ll_usb.c ****       {
 2427              		.loc 1 913 10 view .LVU842
 2428 0210 13F4807F 		tst	r3, #256
 2429 0214 06D1     		bne	.L157
 915:Drivers/STM32F4xx_HAL_Driver/Src/stm32f4xx_ll_usb.c ****       }
 2430              		.loc 1 915 9 is_stmt 1 view .LVU843
 915:Drivers/STM32F4xx_HAL_Driver/Src/stm32f4xx_ll_usb.c ****       }
 2431              		.loc 1 915 26 is_stmt 0 view .LVU844
 2432 0216 DCF8003B 		ldr	r3, [ip, #2816]
 915:Drivers/STM32F4xx_HAL_Driver/Src/stm32f4xx_ll_usb.c ****       }
 2433              		.loc 1 915 36 view .LVU845
 2434 021a 43F00053 		orr	r3, r3, #536870912
 2435 021e CCF8003B 		str	r3, [ip, #2816]
 2436 0222 18E7     		b	.L156
 2437              	.L157:
 919:Drivers/STM32F4xx_HAL_Driver/Src/stm32f4xx_ll_usb.c ****       }
 2438              		.loc 1 919 9 is_stmt 1 view .LVU846
 919:Drivers/STM32F4xx_HAL_Driver/Src/stm32f4xx_ll_usb.c ****       }
 2439              		.loc 1 919 26 is_stmt 0 view .LVU847
 2440 0224 DCF8003B 		ldr	r3, [ip, #2816]
 919:Drivers/STM32F4xx_HAL_Driver/Src/stm32f4xx_ll_usb.c ****       }
 2441              		.loc 1 919 36 view .LVU848
 2442 0228 43F08053 		orr	r3, r3, #268435456
 2443 022c CCF8003B 		str	r3, [ip, #2816]
 2444 0230 11E7     		b	.L156
 2445              	.L165:
 2446 0232 00BF     		.align	2
 2447              	.L164:
 2448 0234 0000F81F 		.word	536346624
 2449              		.cfi_endproc
 2450              	.LFE148:
 2452              		.section	.text.USB_ReadPacket,"ax",%progbits
 2453              		.align	1
ARM GAS  C:\Users\marci\AppData\Local\Temp\ccNtE0Aw.s 			page 83


 2454              		.global	USB_ReadPacket
 2455              		.syntax unified
 2456              		.thumb
 2457              		.thumb_func
 2459              	USB_ReadPacket:
 2460              	.LVL158:
 2461              	.LFB151:
1032:Drivers/STM32F4xx_HAL_Driver/Src/stm32f4xx_ll_usb.c ****   uint32_t USBx_BASE = (uint32_t)USBx;
 2462              		.loc 1 1032 1 is_stmt 1 view -0
 2463              		.cfi_startproc
 2464              		@ args = 0, pretend = 0, frame = 0
 2465              		@ frame_needed = 0, uses_anonymous_args = 0
1032:Drivers/STM32F4xx_HAL_Driver/Src/stm32f4xx_ll_usb.c ****   uint32_t USBx_BASE = (uint32_t)USBx;
 2466              		.loc 1 1032 1 is_stmt 0 view .LVU850
 2467 0000 10B5     		push	{r4, lr}
 2468              	.LCFI34:
 2469              		.cfi_def_cfa_offset 8
 2470              		.cfi_offset 4, -8
 2471              		.cfi_offset 14, -4
 2472 0002 8446     		mov	ip, r0
 2473 0004 0846     		mov	r0, r1
 2474              	.LVL159:
1033:Drivers/STM32F4xx_HAL_Driver/Src/stm32f4xx_ll_usb.c ****   uint8_t *pDest = dest;
 2475              		.loc 1 1033 3 is_stmt 1 view .LVU851
1034:Drivers/STM32F4xx_HAL_Driver/Src/stm32f4xx_ll_usb.c ****   uint32_t pData;
 2476              		.loc 1 1034 3 view .LVU852
1035:Drivers/STM32F4xx_HAL_Driver/Src/stm32f4xx_ll_usb.c ****   uint32_t i;
 2477              		.loc 1 1035 3 view .LVU853
1036:Drivers/STM32F4xx_HAL_Driver/Src/stm32f4xx_ll_usb.c ****   uint32_t count32b = (uint32_t)len >> 2U;
 2478              		.loc 1 1036 3 view .LVU854
1037:Drivers/STM32F4xx_HAL_Driver/Src/stm32f4xx_ll_usb.c ****   uint16_t remaining_bytes = len % 4U;
 2479              		.loc 1 1037 3 view .LVU855
1037:Drivers/STM32F4xx_HAL_Driver/Src/stm32f4xx_ll_usb.c ****   uint16_t remaining_bytes = len % 4U;
 2480              		.loc 1 1037 37 is_stmt 0 view .LVU856
 2481 0006 4FEA920E 		lsr	lr, r2, #2
 2482              	.LVL160:
1038:Drivers/STM32F4xx_HAL_Driver/Src/stm32f4xx_ll_usb.c **** 
 2483              		.loc 1 1038 3 is_stmt 1 view .LVU857
1038:Drivers/STM32F4xx_HAL_Driver/Src/stm32f4xx_ll_usb.c **** 
 2484              		.loc 1 1038 12 is_stmt 0 view .LVU858
 2485 000a 02F00302 		and	r2, r2, #3
 2486              	.LVL161:
1040:Drivers/STM32F4xx_HAL_Driver/Src/stm32f4xx_ll_usb.c ****   {
 2487              		.loc 1 1040 3 is_stmt 1 view .LVU859
1040:Drivers/STM32F4xx_HAL_Driver/Src/stm32f4xx_ll_usb.c ****   {
 2488              		.loc 1 1040 10 is_stmt 0 view .LVU860
 2489 000e 0023     		movs	r3, #0
1040:Drivers/STM32F4xx_HAL_Driver/Src/stm32f4xx_ll_usb.c ****   {
 2490              		.loc 1 1040 3 view .LVU861
 2491 0010 05E0     		b	.L167
 2492              	.LVL162:
 2493              	.L168:
1042:Drivers/STM32F4xx_HAL_Driver/Src/stm32f4xx_ll_usb.c ****     pDest++;
 2494              		.loc 1 1042 5 is_stmt 1 view .LVU862
 2495 0012 0CF58051 		add	r1, ip, #4096
 2496 0016 0968     		ldr	r1, [r1]
 2497 0018 40F8041B 		str	r1, [r0], #4	@ unaligned
ARM GAS  C:\Users\marci\AppData\Local\Temp\ccNtE0Aw.s 			page 84


 2498              	.LVL163:
1043:Drivers/STM32F4xx_HAL_Driver/Src/stm32f4xx_ll_usb.c ****     pDest++;
 2499              		.loc 1 1043 5 view .LVU863
1044:Drivers/STM32F4xx_HAL_Driver/Src/stm32f4xx_ll_usb.c ****     pDest++;
 2500              		.loc 1 1044 5 view .LVU864
1045:Drivers/STM32F4xx_HAL_Driver/Src/stm32f4xx_ll_usb.c ****     pDest++;
 2501              		.loc 1 1045 5 view .LVU865
1046:Drivers/STM32F4xx_HAL_Driver/Src/stm32f4xx_ll_usb.c ****   }
 2502              		.loc 1 1046 5 view .LVU866
1040:Drivers/STM32F4xx_HAL_Driver/Src/stm32f4xx_ll_usb.c ****   {
 2503              		.loc 1 1040 31 discriminator 3 view .LVU867
 2504 001c 0133     		adds	r3, r3, #1
 2505              	.LVL164:
 2506              	.L167:
1040:Drivers/STM32F4xx_HAL_Driver/Src/stm32f4xx_ll_usb.c ****   {
 2507              		.loc 1 1040 18 discriminator 1 view .LVU868
 2508 001e 7345     		cmp	r3, lr
 2509 0020 F7D3     		bcc	.L168
1050:Drivers/STM32F4xx_HAL_Driver/Src/stm32f4xx_ll_usb.c ****   {
 2510              		.loc 1 1050 3 view .LVU869
1050:Drivers/STM32F4xx_HAL_Driver/Src/stm32f4xx_ll_usb.c ****   {
 2511              		.loc 1 1050 6 is_stmt 0 view .LVU870
 2512 0022 7AB1     		cbz	r2, .L169
1052:Drivers/STM32F4xx_HAL_Driver/Src/stm32f4xx_ll_usb.c ****     __UNALIGNED_UINT32_WRITE(&pData, USBx_DFIFO(0U));
 2513              		.loc 1 1052 5 is_stmt 1 view .LVU871
 2514              	.LVL165:
1053:Drivers/STM32F4xx_HAL_Driver/Src/stm32f4xx_ll_usb.c **** 
 2515              		.loc 1 1053 5 view .LVU872
 2516 0024 0CF5805C 		add	ip, ip, #4096
 2517              	.LVL166:
1053:Drivers/STM32F4xx_HAL_Driver/Src/stm32f4xx_ll_usb.c **** 
 2518              		.loc 1 1053 5 is_stmt 0 view .LVU873
 2519 0028 DCF80040 		ldr	r4, [ip]
1052:Drivers/STM32F4xx_HAL_Driver/Src/stm32f4xx_ll_usb.c ****     __UNALIGNED_UINT32_WRITE(&pData, USBx_DFIFO(0U));
 2520              		.loc 1 1052 7 view .LVU874
 2521 002c 0021     		movs	r1, #0
 2522              	.LVL167:
 2523              	.L170:
1055:Drivers/STM32F4xx_HAL_Driver/Src/stm32f4xx_ll_usb.c ****     {
 2524              		.loc 1 1055 5 is_stmt 1 view .LVU875
1057:Drivers/STM32F4xx_HAL_Driver/Src/stm32f4xx_ll_usb.c ****       i++;
 2525              		.loc 1 1057 7 view .LVU876
1057:Drivers/STM32F4xx_HAL_Driver/Src/stm32f4xx_ll_usb.c ****       i++;
 2526              		.loc 1 1057 50 is_stmt 0 view .LVU877
 2527 002e CBB2     		uxtb	r3, r1
 2528 0030 DB00     		lsls	r3, r3, #3
1057:Drivers/STM32F4xx_HAL_Driver/Src/stm32f4xx_ll_usb.c ****       i++;
 2529              		.loc 1 1057 43 view .LVU878
 2530 0032 24FA03F3 		lsr	r3, r4, r3
1057:Drivers/STM32F4xx_HAL_Driver/Src/stm32f4xx_ll_usb.c ****       i++;
 2531              		.loc 1 1057 25 view .LVU879
 2532 0036 00F8013B 		strb	r3, [r0], #1
 2533              	.LVL168:
1058:Drivers/STM32F4xx_HAL_Driver/Src/stm32f4xx_ll_usb.c ****       pDest++;
 2534              		.loc 1 1058 7 is_stmt 1 view .LVU880
1058:Drivers/STM32F4xx_HAL_Driver/Src/stm32f4xx_ll_usb.c ****       pDest++;
 2535              		.loc 1 1058 8 is_stmt 0 view .LVU881
ARM GAS  C:\Users\marci\AppData\Local\Temp\ccNtE0Aw.s 			page 85


 2536 003a 0131     		adds	r1, r1, #1
 2537              	.LVL169:
1059:Drivers/STM32F4xx_HAL_Driver/Src/stm32f4xx_ll_usb.c ****       remaining_bytes--;
 2538              		.loc 1 1059 7 is_stmt 1 view .LVU882
1060:Drivers/STM32F4xx_HAL_Driver/Src/stm32f4xx_ll_usb.c ****     } while (remaining_bytes != 0U);
 2539              		.loc 1 1060 7 view .LVU883
1060:Drivers/STM32F4xx_HAL_Driver/Src/stm32f4xx_ll_usb.c ****     } while (remaining_bytes != 0U);
 2540              		.loc 1 1060 22 is_stmt 0 view .LVU884
 2541 003c 013A     		subs	r2, r2, #1
 2542              	.LVL170:
1060:Drivers/STM32F4xx_HAL_Driver/Src/stm32f4xx_ll_usb.c ****     } while (remaining_bytes != 0U);
 2543              		.loc 1 1060 22 view .LVU885
 2544 003e 92B2     		uxth	r2, r2
 2545              	.LVL171:
1061:Drivers/STM32F4xx_HAL_Driver/Src/stm32f4xx_ll_usb.c ****   }
 2546              		.loc 1 1061 30 is_stmt 1 discriminator 1 view .LVU886
 2547 0040 002A     		cmp	r2, #0
 2548 0042 F4D1     		bne	.L170
 2549              	.LVL172:
 2550              	.L169:
1064:Drivers/STM32F4xx_HAL_Driver/Src/stm32f4xx_ll_usb.c **** }
 2551              		.loc 1 1064 3 view .LVU887
1065:Drivers/STM32F4xx_HAL_Driver/Src/stm32f4xx_ll_usb.c **** 
 2552              		.loc 1 1065 1 is_stmt 0 view .LVU888
 2553 0044 10BD     		pop	{r4, pc}
 2554              		.cfi_endproc
 2555              	.LFE151:
 2557              		.section	.text.USB_EPSetStall,"ax",%progbits
 2558              		.align	1
 2559              		.global	USB_EPSetStall
 2560              		.syntax unified
 2561              		.thumb
 2562              		.thumb_func
 2564              	USB_EPSetStall:
 2565              	.LVL173:
 2566              	.LFB152:
1074:Drivers/STM32F4xx_HAL_Driver/Src/stm32f4xx_ll_usb.c ****   uint32_t USBx_BASE = (uint32_t)USBx;
 2567              		.loc 1 1074 1 is_stmt 1 view -0
 2568              		.cfi_startproc
 2569              		@ args = 0, pretend = 0, frame = 0
 2570              		@ frame_needed = 0, uses_anonymous_args = 0
 2571              		@ link register save eliminated.
1075:Drivers/STM32F4xx_HAL_Driver/Src/stm32f4xx_ll_usb.c ****   uint32_t epnum = (uint32_t)ep->num;
 2572              		.loc 1 1075 3 view .LVU890
1076:Drivers/STM32F4xx_HAL_Driver/Src/stm32f4xx_ll_usb.c **** 
 2573              		.loc 1 1076 3 view .LVU891
1076:Drivers/STM32F4xx_HAL_Driver/Src/stm32f4xx_ll_usb.c **** 
 2574              		.loc 1 1076 32 is_stmt 0 view .LVU892
 2575 0000 0B78     		ldrb	r3, [r1]	@ zero_extendqisi2
 2576              	.LVL174:
1078:Drivers/STM32F4xx_HAL_Driver/Src/stm32f4xx_ll_usb.c ****   {
 2577              		.loc 1 1078 3 is_stmt 1 view .LVU893
1078:Drivers/STM32F4xx_HAL_Driver/Src/stm32f4xx_ll_usb.c ****   {
 2578              		.loc 1 1078 9 is_stmt 0 view .LVU894
 2579 0002 4A78     		ldrb	r2, [r1, #1]	@ zero_extendqisi2
1078:Drivers/STM32F4xx_HAL_Driver/Src/stm32f4xx_ll_usb.c ****   {
 2580              		.loc 1 1078 6 view .LVU895
ARM GAS  C:\Users\marci\AppData\Local\Temp\ccNtE0Aw.s 			page 86


 2581 0004 012A     		cmp	r2, #1
 2582 0006 14D0     		beq	.L177
1088:Drivers/STM32F4xx_HAL_Driver/Src/stm32f4xx_ll_usb.c ****     {
 2583              		.loc 1 1088 5 is_stmt 1 view .LVU896
1088:Drivers/STM32F4xx_HAL_Driver/Src/stm32f4xx_ll_usb.c ****     {
 2584              		.loc 1 1088 11 is_stmt 0 view .LVU897
 2585 0008 00EB4310 		add	r0, r0, r3, lsl #5
 2586              	.LVL175:
1088:Drivers/STM32F4xx_HAL_Driver/Src/stm32f4xx_ll_usb.c ****     {
 2587              		.loc 1 1088 28 view .LVU898
 2588 000c D0F8002B 		ldr	r2, [r0, #2816]
1088:Drivers/STM32F4xx_HAL_Driver/Src/stm32f4xx_ll_usb.c ****     {
 2589              		.loc 1 1088 8 view .LVU899
 2590 0010 002A     		cmp	r2, #0
 2591 0012 06DB     		blt	.L176
1088:Drivers/STM32F4xx_HAL_Driver/Src/stm32f4xx_ll_usb.c ****     {
 2592              		.loc 1 1088 70 discriminator 1 view .LVU900
 2593 0014 2BB1     		cbz	r3, .L176
1090:Drivers/STM32F4xx_HAL_Driver/Src/stm32f4xx_ll_usb.c ****     }
 2594              		.loc 1 1090 7 is_stmt 1 view .LVU901
1090:Drivers/STM32F4xx_HAL_Driver/Src/stm32f4xx_ll_usb.c ****     }
 2595              		.loc 1 1090 24 is_stmt 0 view .LVU902
 2596 0016 D0F8003B 		ldr	r3, [r0, #2816]
 2597              	.LVL176:
1090:Drivers/STM32F4xx_HAL_Driver/Src/stm32f4xx_ll_usb.c ****     }
 2598              		.loc 1 1090 34 view .LVU903
 2599 001a 23F08043 		bic	r3, r3, #1073741824
 2600 001e C0F8003B 		str	r3, [r0, #2816]
 2601              	.LVL177:
 2602              	.L176:
1092:Drivers/STM32F4xx_HAL_Driver/Src/stm32f4xx_ll_usb.c ****   }
 2603              		.loc 1 1092 5 is_stmt 1 view .LVU904
1092:Drivers/STM32F4xx_HAL_Driver/Src/stm32f4xx_ll_usb.c ****   }
 2604              		.loc 1 1092 22 is_stmt 0 view .LVU905
 2605 0022 D0F8003B 		ldr	r3, [r0, #2816]
1092:Drivers/STM32F4xx_HAL_Driver/Src/stm32f4xx_ll_usb.c ****   }
 2606              		.loc 1 1092 32 view .LVU906
 2607 0026 43F40013 		orr	r3, r3, #2097152
 2608 002a C0F8003B 		str	r3, [r0, #2816]
 2609              	.L175:
1095:Drivers/STM32F4xx_HAL_Driver/Src/stm32f4xx_ll_usb.c **** }
 2610              		.loc 1 1095 3 is_stmt 1 view .LVU907
1096:Drivers/STM32F4xx_HAL_Driver/Src/stm32f4xx_ll_usb.c **** 
 2611              		.loc 1 1096 1 is_stmt 0 view .LVU908
 2612 002e 0020     		movs	r0, #0
 2613 0030 7047     		bx	lr
 2614              	.LVL178:
 2615              	.L177:
1080:Drivers/STM32F4xx_HAL_Driver/Src/stm32f4xx_ll_usb.c ****     {
 2616              		.loc 1 1080 5 is_stmt 1 view .LVU909
1080:Drivers/STM32F4xx_HAL_Driver/Src/stm32f4xx_ll_usb.c ****     {
 2617              		.loc 1 1080 11 is_stmt 0 view .LVU910
 2618 0032 00EB4310 		add	r0, r0, r3, lsl #5
 2619              	.LVL179:
1080:Drivers/STM32F4xx_HAL_Driver/Src/stm32f4xx_ll_usb.c ****     {
 2620              		.loc 1 1080 27 view .LVU911
 2621 0036 D0F80029 		ldr	r2, [r0, #2304]
ARM GAS  C:\Users\marci\AppData\Local\Temp\ccNtE0Aw.s 			page 87


1080:Drivers/STM32F4xx_HAL_Driver/Src/stm32f4xx_ll_usb.c ****     {
 2622              		.loc 1 1080 8 view .LVU912
 2623 003a 002A     		cmp	r2, #0
 2624 003c 06DB     		blt	.L174
1080:Drivers/STM32F4xx_HAL_Driver/Src/stm32f4xx_ll_usb.c ****     {
 2625              		.loc 1 1080 69 discriminator 1 view .LVU913
 2626 003e 2BB1     		cbz	r3, .L174
1082:Drivers/STM32F4xx_HAL_Driver/Src/stm32f4xx_ll_usb.c ****     }
 2627              		.loc 1 1082 7 is_stmt 1 view .LVU914
1082:Drivers/STM32F4xx_HAL_Driver/Src/stm32f4xx_ll_usb.c ****     }
 2628              		.loc 1 1082 23 is_stmt 0 view .LVU915
 2629 0040 D0F80039 		ldr	r3, [r0, #2304]
 2630              	.LVL180:
1082:Drivers/STM32F4xx_HAL_Driver/Src/stm32f4xx_ll_usb.c ****     }
 2631              		.loc 1 1082 33 view .LVU916
 2632 0044 23F08043 		bic	r3, r3, #1073741824
 2633 0048 C0F80039 		str	r3, [r0, #2304]
 2634              	.LVL181:
 2635              	.L174:
1084:Drivers/STM32F4xx_HAL_Driver/Src/stm32f4xx_ll_usb.c ****   }
 2636              		.loc 1 1084 5 is_stmt 1 view .LVU917
1084:Drivers/STM32F4xx_HAL_Driver/Src/stm32f4xx_ll_usb.c ****   }
 2637              		.loc 1 1084 21 is_stmt 0 view .LVU918
 2638 004c D0F80039 		ldr	r3, [r0, #2304]
1084:Drivers/STM32F4xx_HAL_Driver/Src/stm32f4xx_ll_usb.c ****   }
 2639              		.loc 1 1084 31 view .LVU919
 2640 0050 43F40013 		orr	r3, r3, #2097152
 2641 0054 C0F80039 		str	r3, [r0, #2304]
 2642 0058 E9E7     		b	.L175
 2643              		.cfi_endproc
 2644              	.LFE152:
 2646              		.section	.text.USB_EPClearStall,"ax",%progbits
 2647              		.align	1
 2648              		.global	USB_EPClearStall
 2649              		.syntax unified
 2650              		.thumb
 2651              		.thumb_func
 2653              	USB_EPClearStall:
 2654              	.LVL182:
 2655              	.LFB153:
1105:Drivers/STM32F4xx_HAL_Driver/Src/stm32f4xx_ll_usb.c ****   uint32_t USBx_BASE = (uint32_t)USBx;
 2656              		.loc 1 1105 1 is_stmt 1 view -0
 2657              		.cfi_startproc
 2658              		@ args = 0, pretend = 0, frame = 0
 2659              		@ frame_needed = 0, uses_anonymous_args = 0
 2660              		@ link register save eliminated.
1106:Drivers/STM32F4xx_HAL_Driver/Src/stm32f4xx_ll_usb.c ****   uint32_t epnum = (uint32_t)ep->num;
 2661              		.loc 1 1106 3 view .LVU921
1107:Drivers/STM32F4xx_HAL_Driver/Src/stm32f4xx_ll_usb.c **** 
 2662              		.loc 1 1107 3 view .LVU922
1107:Drivers/STM32F4xx_HAL_Driver/Src/stm32f4xx_ll_usb.c **** 
 2663              		.loc 1 1107 32 is_stmt 0 view .LVU923
 2664 0000 0B78     		ldrb	r3, [r1]	@ zero_extendqisi2
 2665              	.LVL183:
1109:Drivers/STM32F4xx_HAL_Driver/Src/stm32f4xx_ll_usb.c ****   {
 2666              		.loc 1 1109 3 is_stmt 1 view .LVU924
1109:Drivers/STM32F4xx_HAL_Driver/Src/stm32f4xx_ll_usb.c ****   {
ARM GAS  C:\Users\marci\AppData\Local\Temp\ccNtE0Aw.s 			page 88


 2667              		.loc 1 1109 9 is_stmt 0 view .LVU925
 2668 0002 4A78     		ldrb	r2, [r1, #1]	@ zero_extendqisi2
1109:Drivers/STM32F4xx_HAL_Driver/Src/stm32f4xx_ll_usb.c ****   {
 2669              		.loc 1 1109 6 view .LVU926
 2670 0004 012A     		cmp	r2, #1
 2671 0006 0ED0     		beq	.L181
1119:Drivers/STM32F4xx_HAL_Driver/Src/stm32f4xx_ll_usb.c ****     if ((ep->type == EP_TYPE_INTR) || (ep->type == EP_TYPE_BULK))
 2672              		.loc 1 1119 5 is_stmt 1 view .LVU927
1119:Drivers/STM32F4xx_HAL_Driver/Src/stm32f4xx_ll_usb.c ****     if ((ep->type == EP_TYPE_INTR) || (ep->type == EP_TYPE_BULK))
 2673              		.loc 1 1119 22 is_stmt 0 view .LVU928
 2674 0008 00EB4310 		add	r0, r0, r3, lsl #5
 2675              	.LVL184:
1119:Drivers/STM32F4xx_HAL_Driver/Src/stm32f4xx_ll_usb.c ****     if ((ep->type == EP_TYPE_INTR) || (ep->type == EP_TYPE_BULK))
 2676              		.loc 1 1119 22 view .LVU929
 2677 000c D0F8003B 		ldr	r3, [r0, #2816]
 2678              	.LVL185:
1119:Drivers/STM32F4xx_HAL_Driver/Src/stm32f4xx_ll_usb.c ****     if ((ep->type == EP_TYPE_INTR) || (ep->type == EP_TYPE_BULK))
 2679              		.loc 1 1119 32 view .LVU930
 2680 0010 23F40013 		bic	r3, r3, #2097152
 2681 0014 C0F8003B 		str	r3, [r0, #2816]
 2682              	.LVL186:
1120:Drivers/STM32F4xx_HAL_Driver/Src/stm32f4xx_ll_usb.c ****     {
 2683              		.loc 1 1120 5 is_stmt 1 view .LVU931
1120:Drivers/STM32F4xx_HAL_Driver/Src/stm32f4xx_ll_usb.c ****     {
 2684              		.loc 1 1120 12 is_stmt 0 view .LVU932
 2685 0018 0B79     		ldrb	r3, [r1, #4]	@ zero_extendqisi2
1120:Drivers/STM32F4xx_HAL_Driver/Src/stm32f4xx_ll_usb.c ****     {
 2686              		.loc 1 1120 36 view .LVU933
 2687 001a 023B     		subs	r3, r3, #2
 2688 001c DBB2     		uxtb	r3, r3
1120:Drivers/STM32F4xx_HAL_Driver/Src/stm32f4xx_ll_usb.c ****     {
 2689              		.loc 1 1120 8 view .LVU934
 2690 001e 012B     		cmp	r3, #1
 2691 0020 15D9     		bls	.L182
 2692              	.L180:
1125:Drivers/STM32F4xx_HAL_Driver/Src/stm32f4xx_ll_usb.c **** }
 2693              		.loc 1 1125 3 is_stmt 1 view .LVU935
1126:Drivers/STM32F4xx_HAL_Driver/Src/stm32f4xx_ll_usb.c **** 
 2694              		.loc 1 1126 1 is_stmt 0 view .LVU936
 2695 0022 0020     		movs	r0, #0
 2696 0024 7047     		bx	lr
 2697              	.LVL187:
 2698              	.L181:
1111:Drivers/STM32F4xx_HAL_Driver/Src/stm32f4xx_ll_usb.c ****     if ((ep->type == EP_TYPE_INTR) || (ep->type == EP_TYPE_BULK))
 2699              		.loc 1 1111 5 is_stmt 1 view .LVU937
1111:Drivers/STM32F4xx_HAL_Driver/Src/stm32f4xx_ll_usb.c ****     if ((ep->type == EP_TYPE_INTR) || (ep->type == EP_TYPE_BULK))
 2700              		.loc 1 1111 21 is_stmt 0 view .LVU938
 2701 0026 00EB4310 		add	r0, r0, r3, lsl #5
 2702              	.LVL188:
1111:Drivers/STM32F4xx_HAL_Driver/Src/stm32f4xx_ll_usb.c ****     if ((ep->type == EP_TYPE_INTR) || (ep->type == EP_TYPE_BULK))
 2703              		.loc 1 1111 21 view .LVU939
 2704 002a D0F80039 		ldr	r3, [r0, #2304]
 2705              	.LVL189:
1111:Drivers/STM32F4xx_HAL_Driver/Src/stm32f4xx_ll_usb.c ****     if ((ep->type == EP_TYPE_INTR) || (ep->type == EP_TYPE_BULK))
 2706              		.loc 1 1111 31 view .LVU940
 2707 002e 23F40013 		bic	r3, r3, #2097152
 2708 0032 C0F80039 		str	r3, [r0, #2304]
ARM GAS  C:\Users\marci\AppData\Local\Temp\ccNtE0Aw.s 			page 89


 2709              	.LVL190:
1112:Drivers/STM32F4xx_HAL_Driver/Src/stm32f4xx_ll_usb.c ****     {
 2710              		.loc 1 1112 5 is_stmt 1 view .LVU941
1112:Drivers/STM32F4xx_HAL_Driver/Src/stm32f4xx_ll_usb.c ****     {
 2711              		.loc 1 1112 12 is_stmt 0 view .LVU942
 2712 0036 0B79     		ldrb	r3, [r1, #4]	@ zero_extendqisi2
1112:Drivers/STM32F4xx_HAL_Driver/Src/stm32f4xx_ll_usb.c ****     {
 2713              		.loc 1 1112 36 view .LVU943
 2714 0038 023B     		subs	r3, r3, #2
 2715 003a DBB2     		uxtb	r3, r3
1112:Drivers/STM32F4xx_HAL_Driver/Src/stm32f4xx_ll_usb.c ****     {
 2716              		.loc 1 1112 8 view .LVU944
 2717 003c 012B     		cmp	r3, #1
 2718 003e F0D8     		bhi	.L180
1114:Drivers/STM32F4xx_HAL_Driver/Src/stm32f4xx_ll_usb.c ****     }
 2719              		.loc 1 1114 7 is_stmt 1 view .LVU945
1114:Drivers/STM32F4xx_HAL_Driver/Src/stm32f4xx_ll_usb.c ****     }
 2720              		.loc 1 1114 23 is_stmt 0 view .LVU946
 2721 0040 D0F80039 		ldr	r3, [r0, #2304]
1114:Drivers/STM32F4xx_HAL_Driver/Src/stm32f4xx_ll_usb.c ****     }
 2722              		.loc 1 1114 33 view .LVU947
 2723 0044 43F08053 		orr	r3, r3, #268435456
 2724 0048 C0F80039 		str	r3, [r0, #2304]
 2725 004c E9E7     		b	.L180
 2726              	.L182:
1122:Drivers/STM32F4xx_HAL_Driver/Src/stm32f4xx_ll_usb.c ****     }
 2727              		.loc 1 1122 7 is_stmt 1 view .LVU948
1122:Drivers/STM32F4xx_HAL_Driver/Src/stm32f4xx_ll_usb.c ****     }
 2728              		.loc 1 1122 24 is_stmt 0 view .LVU949
 2729 004e D0F8003B 		ldr	r3, [r0, #2816]
1122:Drivers/STM32F4xx_HAL_Driver/Src/stm32f4xx_ll_usb.c ****     }
 2730              		.loc 1 1122 34 view .LVU950
 2731 0052 43F08053 		orr	r3, r3, #268435456
 2732 0056 C0F8003B 		str	r3, [r0, #2816]
 2733 005a E2E7     		b	.L180
 2734              		.cfi_endproc
 2735              	.LFE153:
 2737              		.section	.text.USB_StopDevice,"ax",%progbits
 2738              		.align	1
 2739              		.global	USB_StopDevice
 2740              		.syntax unified
 2741              		.thumb
 2742              		.thumb_func
 2744              	USB_StopDevice:
 2745              	.LVL191:
 2746              	.LFB154:
1134:Drivers/STM32F4xx_HAL_Driver/Src/stm32f4xx_ll_usb.c ****   HAL_StatusTypeDef ret;
 2747              		.loc 1 1134 1 is_stmt 1 view -0
 2748              		.cfi_startproc
 2749              		@ args = 0, pretend = 0, frame = 0
 2750              		@ frame_needed = 0, uses_anonymous_args = 0
1134:Drivers/STM32F4xx_HAL_Driver/Src/stm32f4xx_ll_usb.c ****   HAL_StatusTypeDef ret;
 2751              		.loc 1 1134 1 is_stmt 0 view .LVU952
 2752 0000 10B5     		push	{r4, lr}
 2753              	.LCFI35:
 2754              		.cfi_def_cfa_offset 8
 2755              		.cfi_offset 4, -8
ARM GAS  C:\Users\marci\AppData\Local\Temp\ccNtE0Aw.s 			page 90


 2756              		.cfi_offset 14, -4
 2757 0002 0446     		mov	r4, r0
1135:Drivers/STM32F4xx_HAL_Driver/Src/stm32f4xx_ll_usb.c ****   uint32_t USBx_BASE = (uint32_t)USBx;
 2758              		.loc 1 1135 3 is_stmt 1 view .LVU953
1136:Drivers/STM32F4xx_HAL_Driver/Src/stm32f4xx_ll_usb.c ****   uint32_t i;
 2759              		.loc 1 1136 3 view .LVU954
 2760              	.LVL192:
1137:Drivers/STM32F4xx_HAL_Driver/Src/stm32f4xx_ll_usb.c **** 
 2761              		.loc 1 1137 3 view .LVU955
1140:Drivers/STM32F4xx_HAL_Driver/Src/stm32f4xx_ll_usb.c ****   {
 2762              		.loc 1 1140 3 view .LVU956
1140:Drivers/STM32F4xx_HAL_Driver/Src/stm32f4xx_ll_usb.c ****   {
 2763              		.loc 1 1140 10 is_stmt 0 view .LVU957
 2764 0004 0022     		movs	r2, #0
1140:Drivers/STM32F4xx_HAL_Driver/Src/stm32f4xx_ll_usb.c ****   {
 2765              		.loc 1 1140 3 view .LVU958
 2766 0006 08E0     		b	.L184
 2767              	.LVL193:
 2768              	.L185:
1142:Drivers/STM32F4xx_HAL_Driver/Src/stm32f4xx_ll_usb.c ****     USBx_OUTEP(i)->DOEPINT = 0xFB7FU;
 2769              		.loc 1 1142 5 is_stmt 1 view .LVU959
 2770 0008 04EB4213 		add	r3, r4, r2, lsl #5
1142:Drivers/STM32F4xx_HAL_Driver/Src/stm32f4xx_ll_usb.c ****     USBx_OUTEP(i)->DOEPINT = 0xFB7FU;
 2771              		.loc 1 1142 27 is_stmt 0 view .LVU960
 2772 000c 4FF67F31 		movw	r1, #64383
 2773 0010 C3F80819 		str	r1, [r3, #2312]
1143:Drivers/STM32F4xx_HAL_Driver/Src/stm32f4xx_ll_usb.c ****   }
 2774              		.loc 1 1143 5 is_stmt 1 view .LVU961
1143:Drivers/STM32F4xx_HAL_Driver/Src/stm32f4xx_ll_usb.c ****   }
 2775              		.loc 1 1143 28 is_stmt 0 view .LVU962
 2776 0014 C3F8081B 		str	r1, [r3, #2824]
1140:Drivers/STM32F4xx_HAL_Driver/Src/stm32f4xx_ll_usb.c ****   {
 2777              		.loc 1 1140 26 is_stmt 1 discriminator 3 view .LVU963
 2778 0018 0132     		adds	r2, r2, #1
 2779              	.LVL194:
 2780              	.L184:
1140:Drivers/STM32F4xx_HAL_Driver/Src/stm32f4xx_ll_usb.c ****   {
 2781              		.loc 1 1140 18 discriminator 1 view .LVU964
 2782 001a 0E2A     		cmp	r2, #14
 2783 001c F4D9     		bls	.L185
1147:Drivers/STM32F4xx_HAL_Driver/Src/stm32f4xx_ll_usb.c ****   USBx_DEVICE->DOEPMSK  = 0U;
 2784              		.loc 1 1147 3 view .LVU965
1147:Drivers/STM32F4xx_HAL_Driver/Src/stm32f4xx_ll_usb.c ****   USBx_DEVICE->DOEPMSK  = 0U;
 2785              		.loc 1 1147 25 is_stmt 0 view .LVU966
 2786 001e 0022     		movs	r2, #0
 2787              	.LVL195:
1147:Drivers/STM32F4xx_HAL_Driver/Src/stm32f4xx_ll_usb.c ****   USBx_DEVICE->DOEPMSK  = 0U;
 2788              		.loc 1 1147 25 view .LVU967
 2789 0020 C4F81028 		str	r2, [r4, #2064]
1148:Drivers/STM32F4xx_HAL_Driver/Src/stm32f4xx_ll_usb.c ****   USBx_DEVICE->DAINTMSK = 0U;
 2790              		.loc 1 1148 3 is_stmt 1 view .LVU968
1148:Drivers/STM32F4xx_HAL_Driver/Src/stm32f4xx_ll_usb.c ****   USBx_DEVICE->DAINTMSK = 0U;
 2791              		.loc 1 1148 25 is_stmt 0 view .LVU969
 2792 0024 C4F81428 		str	r2, [r4, #2068]
1149:Drivers/STM32F4xx_HAL_Driver/Src/stm32f4xx_ll_usb.c **** 
 2793              		.loc 1 1149 3 is_stmt 1 view .LVU970
1149:Drivers/STM32F4xx_HAL_Driver/Src/stm32f4xx_ll_usb.c **** 
ARM GAS  C:\Users\marci\AppData\Local\Temp\ccNtE0Aw.s 			page 91


 2794              		.loc 1 1149 25 is_stmt 0 view .LVU971
 2795 0028 C4F81C28 		str	r2, [r4, #2076]
1152:Drivers/STM32F4xx_HAL_Driver/Src/stm32f4xx_ll_usb.c ****   if (ret != HAL_OK)
 2796              		.loc 1 1152 3 is_stmt 1 view .LVU972
1152:Drivers/STM32F4xx_HAL_Driver/Src/stm32f4xx_ll_usb.c ****   if (ret != HAL_OK)
 2797              		.loc 1 1152 9 is_stmt 0 view .LVU973
 2798 002c 2046     		mov	r0, r4
 2799              	.LVL196:
1152:Drivers/STM32F4xx_HAL_Driver/Src/stm32f4xx_ll_usb.c ****   if (ret != HAL_OK)
 2800              		.loc 1 1152 9 view .LVU974
 2801 002e FFF7FEFF 		bl	USB_FlushRxFifo
 2802              	.LVL197:
1153:Drivers/STM32F4xx_HAL_Driver/Src/stm32f4xx_ll_usb.c ****   {
 2803              		.loc 1 1153 3 is_stmt 1 view .LVU975
1153:Drivers/STM32F4xx_HAL_Driver/Src/stm32f4xx_ll_usb.c ****   {
 2804              		.loc 1 1153 6 is_stmt 0 view .LVU976
 2805 0032 00B1     		cbz	r0, .L188
 2806              	.L186:
1165:Drivers/STM32F4xx_HAL_Driver/Src/stm32f4xx_ll_usb.c **** 
 2807              		.loc 1 1165 1 view .LVU977
 2808 0034 10BD     		pop	{r4, pc}
 2809              	.LVL198:
 2810              	.L188:
1158:Drivers/STM32F4xx_HAL_Driver/Src/stm32f4xx_ll_usb.c ****   if (ret != HAL_OK)
 2811              		.loc 1 1158 3 is_stmt 1 view .LVU978
1158:Drivers/STM32F4xx_HAL_Driver/Src/stm32f4xx_ll_usb.c ****   if (ret != HAL_OK)
 2812              		.loc 1 1158 9 is_stmt 0 view .LVU979
 2813 0036 1021     		movs	r1, #16
 2814 0038 2046     		mov	r0, r4
 2815              	.LVL199:
1158:Drivers/STM32F4xx_HAL_Driver/Src/stm32f4xx_ll_usb.c ****   if (ret != HAL_OK)
 2816              		.loc 1 1158 9 view .LVU980
 2817 003a FFF7FEFF 		bl	USB_FlushTxFifo
 2818              	.LVL200:
1159:Drivers/STM32F4xx_HAL_Driver/Src/stm32f4xx_ll_usb.c ****   {
 2819              		.loc 1 1159 3 is_stmt 1 view .LVU981
1161:Drivers/STM32F4xx_HAL_Driver/Src/stm32f4xx_ll_usb.c ****   }
 2820              		.loc 1 1161 5 view .LVU982
 2821 003e F9E7     		b	.L186
 2822              		.cfi_endproc
 2823              	.LFE154:
 2825              		.section	.text.USB_SetDevAddress,"ax",%progbits
 2826              		.align	1
 2827              		.global	USB_SetDevAddress
 2828              		.syntax unified
 2829              		.thumb
 2830              		.thumb_func
 2832              	USB_SetDevAddress:
 2833              	.LVL201:
 2834              	.LFB155:
1175:Drivers/STM32F4xx_HAL_Driver/Src/stm32f4xx_ll_usb.c ****   uint32_t USBx_BASE = (uint32_t)USBx;
 2835              		.loc 1 1175 1 view -0
 2836              		.cfi_startproc
 2837              		@ args = 0, pretend = 0, frame = 0
 2838              		@ frame_needed = 0, uses_anonymous_args = 0
 2839              		@ link register save eliminated.
1176:Drivers/STM32F4xx_HAL_Driver/Src/stm32f4xx_ll_usb.c **** 
ARM GAS  C:\Users\marci\AppData\Local\Temp\ccNtE0Aw.s 			page 92


 2840              		.loc 1 1176 3 view .LVU984
1178:Drivers/STM32F4xx_HAL_Driver/Src/stm32f4xx_ll_usb.c ****   USBx_DEVICE->DCFG |= ((uint32_t)address << 4) & USB_OTG_DCFG_DAD;
 2841              		.loc 1 1178 3 view .LVU985
1178:Drivers/STM32F4xx_HAL_Driver/Src/stm32f4xx_ll_usb.c ****   USBx_DEVICE->DCFG |= ((uint32_t)address << 4) & USB_OTG_DCFG_DAD;
 2842              		.loc 1 1178 14 is_stmt 0 view .LVU986
 2843 0000 D0F80038 		ldr	r3, [r0, #2048]
1178:Drivers/STM32F4xx_HAL_Driver/Src/stm32f4xx_ll_usb.c ****   USBx_DEVICE->DCFG |= ((uint32_t)address << 4) & USB_OTG_DCFG_DAD;
 2844              		.loc 1 1178 21 view .LVU987
 2845 0004 23F4FE63 		bic	r3, r3, #2032
 2846 0008 C0F80038 		str	r3, [r0, #2048]
1179:Drivers/STM32F4xx_HAL_Driver/Src/stm32f4xx_ll_usb.c **** 
 2847              		.loc 1 1179 3 is_stmt 1 view .LVU988
1179:Drivers/STM32F4xx_HAL_Driver/Src/stm32f4xx_ll_usb.c **** 
 2848              		.loc 1 1179 14 is_stmt 0 view .LVU989
 2849 000c D0F80038 		ldr	r3, [r0, #2048]
1179:Drivers/STM32F4xx_HAL_Driver/Src/stm32f4xx_ll_usb.c **** 
 2850              		.loc 1 1179 43 view .LVU990
 2851 0010 0901     		lsls	r1, r1, #4
 2852              	.LVL202:
1179:Drivers/STM32F4xx_HAL_Driver/Src/stm32f4xx_ll_usb.c **** 
 2853              		.loc 1 1179 49 view .LVU991
 2854 0012 01F4FE61 		and	r1, r1, #2032
1179:Drivers/STM32F4xx_HAL_Driver/Src/stm32f4xx_ll_usb.c **** 
 2855              		.loc 1 1179 21 view .LVU992
 2856 0016 0B43     		orrs	r3, r3, r1
 2857 0018 C0F80038 		str	r3, [r0, #2048]
1181:Drivers/STM32F4xx_HAL_Driver/Src/stm32f4xx_ll_usb.c **** }
 2858              		.loc 1 1181 3 is_stmt 1 view .LVU993
1182:Drivers/STM32F4xx_HAL_Driver/Src/stm32f4xx_ll_usb.c **** 
 2859              		.loc 1 1182 1 is_stmt 0 view .LVU994
 2860 001c 0020     		movs	r0, #0
 2861              	.LVL203:
1182:Drivers/STM32F4xx_HAL_Driver/Src/stm32f4xx_ll_usb.c **** 
 2862              		.loc 1 1182 1 view .LVU995
 2863 001e 7047     		bx	lr
 2864              		.cfi_endproc
 2865              	.LFE155:
 2867              		.section	.text.USB_DevConnect,"ax",%progbits
 2868              		.align	1
 2869              		.global	USB_DevConnect
 2870              		.syntax unified
 2871              		.thumb
 2872              		.thumb_func
 2874              	USB_DevConnect:
 2875              	.LVL204:
 2876              	.LFB156:
1190:Drivers/STM32F4xx_HAL_Driver/Src/stm32f4xx_ll_usb.c ****   uint32_t USBx_BASE = (uint32_t)USBx;
 2877              		.loc 1 1190 1 is_stmt 1 view -0
 2878              		.cfi_startproc
 2879              		@ args = 0, pretend = 0, frame = 0
 2880              		@ frame_needed = 0, uses_anonymous_args = 0
 2881              		@ link register save eliminated.
1191:Drivers/STM32F4xx_HAL_Driver/Src/stm32f4xx_ll_usb.c **** 
 2882              		.loc 1 1191 3 view .LVU997
1194:Drivers/STM32F4xx_HAL_Driver/Src/stm32f4xx_ll_usb.c **** 
 2883              		.loc 1 1194 3 view .LVU998
 2884 0000 D0F8003E 		ldr	r3, [r0, #3584]
ARM GAS  C:\Users\marci\AppData\Local\Temp\ccNtE0Aw.s 			page 93


1194:Drivers/STM32F4xx_HAL_Driver/Src/stm32f4xx_ll_usb.c **** 
 2885              		.loc 1 1194 16 is_stmt 0 view .LVU999
 2886 0004 23F00303 		bic	r3, r3, #3
 2887 0008 C0F8003E 		str	r3, [r0, #3584]
1196:Drivers/STM32F4xx_HAL_Driver/Src/stm32f4xx_ll_usb.c **** 
 2888              		.loc 1 1196 3 is_stmt 1 view .LVU1000
1196:Drivers/STM32F4xx_HAL_Driver/Src/stm32f4xx_ll_usb.c **** 
 2889              		.loc 1 1196 14 is_stmt 0 view .LVU1001
 2890 000c D0F80438 		ldr	r3, [r0, #2052]
1196:Drivers/STM32F4xx_HAL_Driver/Src/stm32f4xx_ll_usb.c **** 
 2891              		.loc 1 1196 21 view .LVU1002
 2892 0010 23F00203 		bic	r3, r3, #2
 2893 0014 C0F80438 		str	r3, [r0, #2052]
1198:Drivers/STM32F4xx_HAL_Driver/Src/stm32f4xx_ll_usb.c **** }
 2894              		.loc 1 1198 3 is_stmt 1 view .LVU1003
1199:Drivers/STM32F4xx_HAL_Driver/Src/stm32f4xx_ll_usb.c **** 
 2895              		.loc 1 1199 1 is_stmt 0 view .LVU1004
 2896 0018 0020     		movs	r0, #0
 2897              	.LVL205:
1199:Drivers/STM32F4xx_HAL_Driver/Src/stm32f4xx_ll_usb.c **** 
 2898              		.loc 1 1199 1 view .LVU1005
 2899 001a 7047     		bx	lr
 2900              		.cfi_endproc
 2901              	.LFE156:
 2903              		.section	.text.USB_DevDisconnect,"ax",%progbits
 2904              		.align	1
 2905              		.global	USB_DevDisconnect
 2906              		.syntax unified
 2907              		.thumb
 2908              		.thumb_func
 2910              	USB_DevDisconnect:
 2911              	.LVL206:
 2912              	.LFB157:
1207:Drivers/STM32F4xx_HAL_Driver/Src/stm32f4xx_ll_usb.c ****   uint32_t USBx_BASE = (uint32_t)USBx;
 2913              		.loc 1 1207 1 is_stmt 1 view -0
 2914              		.cfi_startproc
 2915              		@ args = 0, pretend = 0, frame = 0
 2916              		@ frame_needed = 0, uses_anonymous_args = 0
 2917              		@ link register save eliminated.
1208:Drivers/STM32F4xx_HAL_Driver/Src/stm32f4xx_ll_usb.c **** 
 2918              		.loc 1 1208 3 view .LVU1007
1211:Drivers/STM32F4xx_HAL_Driver/Src/stm32f4xx_ll_usb.c **** 
 2919              		.loc 1 1211 3 view .LVU1008
 2920 0000 D0F8003E 		ldr	r3, [r0, #3584]
1211:Drivers/STM32F4xx_HAL_Driver/Src/stm32f4xx_ll_usb.c **** 
 2921              		.loc 1 1211 16 is_stmt 0 view .LVU1009
 2922 0004 23F00303 		bic	r3, r3, #3
 2923 0008 C0F8003E 		str	r3, [r0, #3584]
1213:Drivers/STM32F4xx_HAL_Driver/Src/stm32f4xx_ll_usb.c **** 
 2924              		.loc 1 1213 3 is_stmt 1 view .LVU1010
1213:Drivers/STM32F4xx_HAL_Driver/Src/stm32f4xx_ll_usb.c **** 
 2925              		.loc 1 1213 14 is_stmt 0 view .LVU1011
 2926 000c D0F80438 		ldr	r3, [r0, #2052]
1213:Drivers/STM32F4xx_HAL_Driver/Src/stm32f4xx_ll_usb.c **** 
 2927              		.loc 1 1213 21 view .LVU1012
 2928 0010 43F00203 		orr	r3, r3, #2
 2929 0014 C0F80438 		str	r3, [r0, #2052]
ARM GAS  C:\Users\marci\AppData\Local\Temp\ccNtE0Aw.s 			page 94


1215:Drivers/STM32F4xx_HAL_Driver/Src/stm32f4xx_ll_usb.c **** }
 2930              		.loc 1 1215 3 is_stmt 1 view .LVU1013
1216:Drivers/STM32F4xx_HAL_Driver/Src/stm32f4xx_ll_usb.c **** 
 2931              		.loc 1 1216 1 is_stmt 0 view .LVU1014
 2932 0018 0020     		movs	r0, #0
 2933              	.LVL207:
1216:Drivers/STM32F4xx_HAL_Driver/Src/stm32f4xx_ll_usb.c **** 
 2934              		.loc 1 1216 1 view .LVU1015
 2935 001a 7047     		bx	lr
 2936              		.cfi_endproc
 2937              	.LFE157:
 2939              		.section	.text.USB_ReadInterrupts,"ax",%progbits
 2940              		.align	1
 2941              		.global	USB_ReadInterrupts
 2942              		.syntax unified
 2943              		.thumb
 2944              		.thumb_func
 2946              	USB_ReadInterrupts:
 2947              	.LVL208:
 2948              	.LFB158:
1224:Drivers/STM32F4xx_HAL_Driver/Src/stm32f4xx_ll_usb.c ****   uint32_t tmpreg;
 2949              		.loc 1 1224 1 is_stmt 1 view -0
 2950              		.cfi_startproc
 2951              		@ args = 0, pretend = 0, frame = 0
 2952              		@ frame_needed = 0, uses_anonymous_args = 0
 2953              		@ link register save eliminated.
1225:Drivers/STM32F4xx_HAL_Driver/Src/stm32f4xx_ll_usb.c **** 
 2954              		.loc 1 1225 3 view .LVU1017
1227:Drivers/STM32F4xx_HAL_Driver/Src/stm32f4xx_ll_usb.c ****   tmpreg &= USBx->GINTMSK;
 2955              		.loc 1 1227 3 view .LVU1018
1227:Drivers/STM32F4xx_HAL_Driver/Src/stm32f4xx_ll_usb.c ****   tmpreg &= USBx->GINTMSK;
 2956              		.loc 1 1227 10 is_stmt 0 view .LVU1019
 2957 0000 4269     		ldr	r2, [r0, #20]
 2958              	.LVL209:
1228:Drivers/STM32F4xx_HAL_Driver/Src/stm32f4xx_ll_usb.c **** 
 2959              		.loc 1 1228 3 is_stmt 1 view .LVU1020
1228:Drivers/STM32F4xx_HAL_Driver/Src/stm32f4xx_ll_usb.c **** 
 2960              		.loc 1 1228 17 is_stmt 0 view .LVU1021
 2961 0002 8069     		ldr	r0, [r0, #24]
 2962              	.LVL210:
1230:Drivers/STM32F4xx_HAL_Driver/Src/stm32f4xx_ll_usb.c **** }
 2963              		.loc 1 1230 3 is_stmt 1 view .LVU1022
1231:Drivers/STM32F4xx_HAL_Driver/Src/stm32f4xx_ll_usb.c **** 
 2964              		.loc 1 1231 1 is_stmt 0 view .LVU1023
 2965 0004 1040     		ands	r0, r0, r2
 2966              	.LVL211:
1231:Drivers/STM32F4xx_HAL_Driver/Src/stm32f4xx_ll_usb.c **** 
 2967              		.loc 1 1231 1 view .LVU1024
 2968 0006 7047     		bx	lr
 2969              		.cfi_endproc
 2970              	.LFE158:
 2972              		.section	.text.USB_ReadChInterrupts,"ax",%progbits
 2973              		.align	1
 2974              		.global	USB_ReadChInterrupts
 2975              		.syntax unified
 2976              		.thumb
 2977              		.thumb_func
ARM GAS  C:\Users\marci\AppData\Local\Temp\ccNtE0Aw.s 			page 95


 2979              	USB_ReadChInterrupts:
 2980              	.LVL212:
 2981              	.LFB159:
1240:Drivers/STM32F4xx_HAL_Driver/Src/stm32f4xx_ll_usb.c ****   uint32_t USBx_BASE = (uint32_t)USBx;
 2982              		.loc 1 1240 1 is_stmt 1 view -0
 2983              		.cfi_startproc
 2984              		@ args = 0, pretend = 0, frame = 0
 2985              		@ frame_needed = 0, uses_anonymous_args = 0
 2986              		@ link register save eliminated.
1241:Drivers/STM32F4xx_HAL_Driver/Src/stm32f4xx_ll_usb.c ****   uint32_t tmpreg;
 2987              		.loc 1 1241 3 view .LVU1026
1242:Drivers/STM32F4xx_HAL_Driver/Src/stm32f4xx_ll_usb.c **** 
 2988              		.loc 1 1242 3 view .LVU1027
1244:Drivers/STM32F4xx_HAL_Driver/Src/stm32f4xx_ll_usb.c ****   tmpreg &= USBx_HC(chnum)->HCINTMSK;
 2989              		.loc 1 1244 3 view .LVU1028
1244:Drivers/STM32F4xx_HAL_Driver/Src/stm32f4xx_ll_usb.c ****   tmpreg &= USBx_HC(chnum)->HCINTMSK;
 2990              		.loc 1 1244 12 is_stmt 0 view .LVU1029
 2991 0000 00EB4110 		add	r0, r0, r1, lsl #5
 2992              	.LVL213:
1244:Drivers/STM32F4xx_HAL_Driver/Src/stm32f4xx_ll_usb.c ****   tmpreg &= USBx_HC(chnum)->HCINTMSK;
 2993              		.loc 1 1244 12 view .LVU1030
 2994 0004 00F5A063 		add	r3, r0, #1280
1244:Drivers/STM32F4xx_HAL_Driver/Src/stm32f4xx_ll_usb.c ****   tmpreg &= USBx_HC(chnum)->HCINTMSK;
 2995              		.loc 1 1244 10 view .LVU1031
 2996 0008 D0F80805 		ldr	r0, [r0, #1288]
 2997              	.LVL214:
1245:Drivers/STM32F4xx_HAL_Driver/Src/stm32f4xx_ll_usb.c **** 
 2998              		.loc 1 1245 3 is_stmt 1 view .LVU1032
1245:Drivers/STM32F4xx_HAL_Driver/Src/stm32f4xx_ll_usb.c **** 
 2999              		.loc 1 1245 27 is_stmt 0 view .LVU1033
 3000 000c DB68     		ldr	r3, [r3, #12]
 3001              	.LVL215:
1247:Drivers/STM32F4xx_HAL_Driver/Src/stm32f4xx_ll_usb.c **** }
 3002              		.loc 1 1247 3 is_stmt 1 view .LVU1034
1248:Drivers/STM32F4xx_HAL_Driver/Src/stm32f4xx_ll_usb.c **** 
 3003              		.loc 1 1248 1 is_stmt 0 view .LVU1035
 3004 000e 1840     		ands	r0, r0, r3
 3005              	.LVL216:
1248:Drivers/STM32F4xx_HAL_Driver/Src/stm32f4xx_ll_usb.c **** 
 3006              		.loc 1 1248 1 view .LVU1036
 3007 0010 7047     		bx	lr
 3008              		.cfi_endproc
 3009              	.LFE159:
 3011              		.section	.text.USB_ReadDevAllOutEpInterrupt,"ax",%progbits
 3012              		.align	1
 3013              		.global	USB_ReadDevAllOutEpInterrupt
 3014              		.syntax unified
 3015              		.thumb
 3016              		.thumb_func
 3018              	USB_ReadDevAllOutEpInterrupt:
 3019              	.LVL217:
 3020              	.LFB160:
1256:Drivers/STM32F4xx_HAL_Driver/Src/stm32f4xx_ll_usb.c ****   uint32_t USBx_BASE = (uint32_t)USBx;
 3021              		.loc 1 1256 1 is_stmt 1 view -0
 3022              		.cfi_startproc
 3023              		@ args = 0, pretend = 0, frame = 0
 3024              		@ frame_needed = 0, uses_anonymous_args = 0
ARM GAS  C:\Users\marci\AppData\Local\Temp\ccNtE0Aw.s 			page 96


 3025              		@ link register save eliminated.
1257:Drivers/STM32F4xx_HAL_Driver/Src/stm32f4xx_ll_usb.c ****   uint32_t tmpreg;
 3026              		.loc 1 1257 3 view .LVU1038
1258:Drivers/STM32F4xx_HAL_Driver/Src/stm32f4xx_ll_usb.c **** 
 3027              		.loc 1 1258 3 view .LVU1039
1260:Drivers/STM32F4xx_HAL_Driver/Src/stm32f4xx_ll_usb.c ****   tmpreg &= USBx_DEVICE->DAINTMSK;
 3028              		.loc 1 1260 3 view .LVU1040
1260:Drivers/STM32F4xx_HAL_Driver/Src/stm32f4xx_ll_usb.c ****   tmpreg &= USBx_DEVICE->DAINTMSK;
 3029              		.loc 1 1260 11 is_stmt 0 view .LVU1041
 3030 0000 D0F81838 		ldr	r3, [r0, #2072]
1260:Drivers/STM32F4xx_HAL_Driver/Src/stm32f4xx_ll_usb.c ****   tmpreg &= USBx_DEVICE->DAINTMSK;
 3031              		.loc 1 1260 13 view .LVU1042
 3032 0004 00F50060 		add	r0, r0, #2048
 3033              	.LVL218:
1261:Drivers/STM32F4xx_HAL_Driver/Src/stm32f4xx_ll_usb.c **** 
 3034              		.loc 1 1261 3 is_stmt 1 view .LVU1043
1261:Drivers/STM32F4xx_HAL_Driver/Src/stm32f4xx_ll_usb.c **** 
 3035              		.loc 1 1261 24 is_stmt 0 view .LVU1044
 3036 0008 C069     		ldr	r0, [r0, #28]
 3037              	.LVL219:
1261:Drivers/STM32F4xx_HAL_Driver/Src/stm32f4xx_ll_usb.c **** 
 3038              		.loc 1 1261 10 view .LVU1045
 3039 000a 1840     		ands	r0, r0, r3
 3040              	.LVL220:
1263:Drivers/STM32F4xx_HAL_Driver/Src/stm32f4xx_ll_usb.c **** }
 3041              		.loc 1 1263 3 is_stmt 1 view .LVU1046
1264:Drivers/STM32F4xx_HAL_Driver/Src/stm32f4xx_ll_usb.c **** 
 3042              		.loc 1 1264 1 is_stmt 0 view .LVU1047
 3043 000c 000C     		lsrs	r0, r0, #16
 3044              	.LVL221:
1264:Drivers/STM32F4xx_HAL_Driver/Src/stm32f4xx_ll_usb.c **** 
 3045              		.loc 1 1264 1 view .LVU1048
 3046 000e 7047     		bx	lr
 3047              		.cfi_endproc
 3048              	.LFE160:
 3050              		.section	.text.USB_ReadDevAllInEpInterrupt,"ax",%progbits
 3051              		.align	1
 3052              		.global	USB_ReadDevAllInEpInterrupt
 3053              		.syntax unified
 3054              		.thumb
 3055              		.thumb_func
 3057              	USB_ReadDevAllInEpInterrupt:
 3058              	.LVL222:
 3059              	.LFB161:
1272:Drivers/STM32F4xx_HAL_Driver/Src/stm32f4xx_ll_usb.c ****   uint32_t USBx_BASE = (uint32_t)USBx;
 3060              		.loc 1 1272 1 is_stmt 1 view -0
 3061              		.cfi_startproc
 3062              		@ args = 0, pretend = 0, frame = 0
 3063              		@ frame_needed = 0, uses_anonymous_args = 0
 3064              		@ link register save eliminated.
1273:Drivers/STM32F4xx_HAL_Driver/Src/stm32f4xx_ll_usb.c ****   uint32_t tmpreg;
 3065              		.loc 1 1273 3 view .LVU1050
1274:Drivers/STM32F4xx_HAL_Driver/Src/stm32f4xx_ll_usb.c **** 
 3066              		.loc 1 1274 3 view .LVU1051
1276:Drivers/STM32F4xx_HAL_Driver/Src/stm32f4xx_ll_usb.c ****   tmpreg &= USBx_DEVICE->DAINTMSK;
 3067              		.loc 1 1276 3 view .LVU1052
1276:Drivers/STM32F4xx_HAL_Driver/Src/stm32f4xx_ll_usb.c ****   tmpreg &= USBx_DEVICE->DAINTMSK;
ARM GAS  C:\Users\marci\AppData\Local\Temp\ccNtE0Aw.s 			page 97


 3068              		.loc 1 1276 11 is_stmt 0 view .LVU1053
 3069 0000 D0F81838 		ldr	r3, [r0, #2072]
1276:Drivers/STM32F4xx_HAL_Driver/Src/stm32f4xx_ll_usb.c ****   tmpreg &= USBx_DEVICE->DAINTMSK;
 3070              		.loc 1 1276 13 view .LVU1054
 3071 0004 00F50060 		add	r0, r0, #2048
 3072              	.LVL223:
1277:Drivers/STM32F4xx_HAL_Driver/Src/stm32f4xx_ll_usb.c **** 
 3073              		.loc 1 1277 3 is_stmt 1 view .LVU1055
1277:Drivers/STM32F4xx_HAL_Driver/Src/stm32f4xx_ll_usb.c **** 
 3074              		.loc 1 1277 24 is_stmt 0 view .LVU1056
 3075 0008 C069     		ldr	r0, [r0, #28]
 3076              	.LVL224:
1277:Drivers/STM32F4xx_HAL_Driver/Src/stm32f4xx_ll_usb.c **** 
 3077              		.loc 1 1277 10 view .LVU1057
 3078 000a 1840     		ands	r0, r0, r3
 3079              	.LVL225:
1279:Drivers/STM32F4xx_HAL_Driver/Src/stm32f4xx_ll_usb.c **** }
 3080              		.loc 1 1279 3 is_stmt 1 view .LVU1058
1280:Drivers/STM32F4xx_HAL_Driver/Src/stm32f4xx_ll_usb.c **** 
 3081              		.loc 1 1280 1 is_stmt 0 view .LVU1059
 3082 000c 80B2     		uxth	r0, r0
 3083              	.LVL226:
1280:Drivers/STM32F4xx_HAL_Driver/Src/stm32f4xx_ll_usb.c **** 
 3084              		.loc 1 1280 1 view .LVU1060
 3085 000e 7047     		bx	lr
 3086              		.cfi_endproc
 3087              	.LFE161:
 3089              		.section	.text.USB_ReadDevOutEPInterrupt,"ax",%progbits
 3090              		.align	1
 3091              		.global	USB_ReadDevOutEPInterrupt
 3092              		.syntax unified
 3093              		.thumb
 3094              		.thumb_func
 3096              	USB_ReadDevOutEPInterrupt:
 3097              	.LVL227:
 3098              	.LFB162:
1290:Drivers/STM32F4xx_HAL_Driver/Src/stm32f4xx_ll_usb.c ****   uint32_t USBx_BASE = (uint32_t)USBx;
 3099              		.loc 1 1290 1 is_stmt 1 view -0
 3100              		.cfi_startproc
 3101              		@ args = 0, pretend = 0, frame = 0
 3102              		@ frame_needed = 0, uses_anonymous_args = 0
 3103              		@ link register save eliminated.
1291:Drivers/STM32F4xx_HAL_Driver/Src/stm32f4xx_ll_usb.c ****   uint32_t tmpreg;
 3104              		.loc 1 1291 3 view .LVU1062
1292:Drivers/STM32F4xx_HAL_Driver/Src/stm32f4xx_ll_usb.c **** 
 3105              		.loc 1 1292 3 view .LVU1063
1294:Drivers/STM32F4xx_HAL_Driver/Src/stm32f4xx_ll_usb.c ****   tmpreg &= USBx_DEVICE->DOEPMSK;
 3106              		.loc 1 1294 3 view .LVU1064
1294:Drivers/STM32F4xx_HAL_Driver/Src/stm32f4xx_ll_usb.c ****   tmpreg &= USBx_DEVICE->DOEPMSK;
 3107              		.loc 1 1294 13 is_stmt 0 view .LVU1065
 3108 0000 00EB4111 		add	r1, r0, r1, lsl #5
 3109              	.LVL228:
1294:Drivers/STM32F4xx_HAL_Driver/Src/stm32f4xx_ll_usb.c ****   tmpreg &= USBx_DEVICE->DOEPMSK;
 3110              		.loc 1 1294 11 view .LVU1066
 3111 0004 D1F8082B 		ldr	r2, [r1, #2824]
 3112              	.LVL229:
1295:Drivers/STM32F4xx_HAL_Driver/Src/stm32f4xx_ll_usb.c **** 
ARM GAS  C:\Users\marci\AppData\Local\Temp\ccNtE0Aw.s 			page 98


 3113              		.loc 1 1295 3 is_stmt 1 view .LVU1067
1295:Drivers/STM32F4xx_HAL_Driver/Src/stm32f4xx_ll_usb.c **** 
 3114              		.loc 1 1295 13 is_stmt 0 view .LVU1068
 3115 0008 00F50060 		add	r0, r0, #2048
 3116              	.LVL230:
1295:Drivers/STM32F4xx_HAL_Driver/Src/stm32f4xx_ll_usb.c **** 
 3117              		.loc 1 1295 24 view .LVU1069
 3118 000c 4069     		ldr	r0, [r0, #20]
 3119              	.LVL231:
1297:Drivers/STM32F4xx_HAL_Driver/Src/stm32f4xx_ll_usb.c **** }
 3120              		.loc 1 1297 3 is_stmt 1 view .LVU1070
1298:Drivers/STM32F4xx_HAL_Driver/Src/stm32f4xx_ll_usb.c **** 
 3121              		.loc 1 1298 1 is_stmt 0 view .LVU1071
 3122 000e 1040     		ands	r0, r0, r2
 3123              	.LVL232:
1298:Drivers/STM32F4xx_HAL_Driver/Src/stm32f4xx_ll_usb.c **** 
 3124              		.loc 1 1298 1 view .LVU1072
 3125 0010 7047     		bx	lr
 3126              		.cfi_endproc
 3127              	.LFE162:
 3129              		.section	.text.USB_ReadDevInEPInterrupt,"ax",%progbits
 3130              		.align	1
 3131              		.global	USB_ReadDevInEPInterrupt
 3132              		.syntax unified
 3133              		.thumb
 3134              		.thumb_func
 3136              	USB_ReadDevInEPInterrupt:
 3137              	.LVL233:
 3138              	.LFB163:
1308:Drivers/STM32F4xx_HAL_Driver/Src/stm32f4xx_ll_usb.c ****   uint32_t USBx_BASE = (uint32_t)USBx;
 3139              		.loc 1 1308 1 is_stmt 1 view -0
 3140              		.cfi_startproc
 3141              		@ args = 0, pretend = 0, frame = 0
 3142              		@ frame_needed = 0, uses_anonymous_args = 0
 3143              		@ link register save eliminated.
1309:Drivers/STM32F4xx_HAL_Driver/Src/stm32f4xx_ll_usb.c ****   uint32_t tmpreg;
 3144              		.loc 1 1309 3 view .LVU1074
1310:Drivers/STM32F4xx_HAL_Driver/Src/stm32f4xx_ll_usb.c ****   uint32_t msk;
 3145              		.loc 1 1310 3 view .LVU1075
1311:Drivers/STM32F4xx_HAL_Driver/Src/stm32f4xx_ll_usb.c ****   uint32_t emp;
 3146              		.loc 1 1311 3 view .LVU1076
1312:Drivers/STM32F4xx_HAL_Driver/Src/stm32f4xx_ll_usb.c **** 
 3147              		.loc 1 1312 3 view .LVU1077
1314:Drivers/STM32F4xx_HAL_Driver/Src/stm32f4xx_ll_usb.c ****   emp = USBx_DEVICE->DIEPEMPMSK;
 3148              		.loc 1 1314 3 view .LVU1078
1314:Drivers/STM32F4xx_HAL_Driver/Src/stm32f4xx_ll_usb.c ****   emp = USBx_DEVICE->DIEPEMPMSK;
 3149              		.loc 1 1314 7 is_stmt 0 view .LVU1079
 3150 0000 D0F81028 		ldr	r2, [r0, #2064]
 3151              	.LVL234:
1315:Drivers/STM32F4xx_HAL_Driver/Src/stm32f4xx_ll_usb.c ****   msk |= ((emp >> (epnum & EP_ADDR_MSK)) & 0x1U) << 7;
 3152              		.loc 1 1315 3 is_stmt 1 view .LVU1080
1315:Drivers/STM32F4xx_HAL_Driver/Src/stm32f4xx_ll_usb.c ****   msk |= ((emp >> (epnum & EP_ADDR_MSK)) & 0x1U) << 7;
 3153              		.loc 1 1315 7 is_stmt 0 view .LVU1081
 3154 0004 D0F83438 		ldr	r3, [r0, #2100]
 3155              	.LVL235:
1316:Drivers/STM32F4xx_HAL_Driver/Src/stm32f4xx_ll_usb.c ****   tmpreg = USBx_INEP((uint32_t)epnum)->DIEPINT & msk;
 3156              		.loc 1 1316 3 is_stmt 1 view .LVU1082
ARM GAS  C:\Users\marci\AppData\Local\Temp\ccNtE0Aw.s 			page 99


1316:Drivers/STM32F4xx_HAL_Driver/Src/stm32f4xx_ll_usb.c ****   tmpreg = USBx_INEP((uint32_t)epnum)->DIEPINT & msk;
 3157              		.loc 1 1316 26 is_stmt 0 view .LVU1083
 3158 0008 01F00F0C 		and	ip, r1, #15
1316:Drivers/STM32F4xx_HAL_Driver/Src/stm32f4xx_ll_usb.c ****   tmpreg = USBx_INEP((uint32_t)epnum)->DIEPINT & msk;
 3159              		.loc 1 1316 16 view .LVU1084
 3160 000c 23FA0CF3 		lsr	r3, r3, ip
 3161              	.LVL236:
1316:Drivers/STM32F4xx_HAL_Driver/Src/stm32f4xx_ll_usb.c ****   tmpreg = USBx_INEP((uint32_t)epnum)->DIEPINT & msk;
 3162              		.loc 1 1316 50 view .LVU1085
 3163 0010 DB01     		lsls	r3, r3, #7
 3164 0012 DBB2     		uxtb	r3, r3
1316:Drivers/STM32F4xx_HAL_Driver/Src/stm32f4xx_ll_usb.c ****   tmpreg = USBx_INEP((uint32_t)epnum)->DIEPINT & msk;
 3165              		.loc 1 1316 7 view .LVU1086
 3166 0014 1343     		orrs	r3, r3, r2
 3167              	.LVL237:
1317:Drivers/STM32F4xx_HAL_Driver/Src/stm32f4xx_ll_usb.c **** 
 3168              		.loc 1 1317 3 is_stmt 1 view .LVU1087
1317:Drivers/STM32F4xx_HAL_Driver/Src/stm32f4xx_ll_usb.c **** 
 3169              		.loc 1 1317 12 is_stmt 0 view .LVU1088
 3170 0016 00EB4110 		add	r0, r0, r1, lsl #5
 3171              	.LVL238:
1317:Drivers/STM32F4xx_HAL_Driver/Src/stm32f4xx_ll_usb.c **** 
 3172              		.loc 1 1317 12 view .LVU1089
 3173 001a 00F51060 		add	r0, r0, #2304
1317:Drivers/STM32F4xx_HAL_Driver/Src/stm32f4xx_ll_usb.c **** 
 3174              		.loc 1 1317 38 view .LVU1090
 3175 001e 8068     		ldr	r0, [r0, #8]
 3176              	.LVL239:
1319:Drivers/STM32F4xx_HAL_Driver/Src/stm32f4xx_ll_usb.c **** }
 3177              		.loc 1 1319 3 is_stmt 1 view .LVU1091
1320:Drivers/STM32F4xx_HAL_Driver/Src/stm32f4xx_ll_usb.c **** 
 3178              		.loc 1 1320 1 is_stmt 0 view .LVU1092
 3179 0020 1840     		ands	r0, r0, r3
 3180              	.LVL240:
1320:Drivers/STM32F4xx_HAL_Driver/Src/stm32f4xx_ll_usb.c **** 
 3181              		.loc 1 1320 1 view .LVU1093
 3182 0022 7047     		bx	lr
 3183              		.cfi_endproc
 3184              	.LFE163:
 3186              		.section	.text.USB_ClearInterrupts,"ax",%progbits
 3187              		.align	1
 3188              		.global	USB_ClearInterrupts
 3189              		.syntax unified
 3190              		.thumb
 3191              		.thumb_func
 3193              	USB_ClearInterrupts:
 3194              	.LVL241:
 3195              	.LFB164:
1329:Drivers/STM32F4xx_HAL_Driver/Src/stm32f4xx_ll_usb.c ****   USBx->GINTSTS &= interrupt;
 3196              		.loc 1 1329 1 is_stmt 1 view -0
 3197              		.cfi_startproc
 3198              		@ args = 0, pretend = 0, frame = 0
 3199              		@ frame_needed = 0, uses_anonymous_args = 0
 3200              		@ link register save eliminated.
1330:Drivers/STM32F4xx_HAL_Driver/Src/stm32f4xx_ll_usb.c **** }
 3201              		.loc 1 1330 3 view .LVU1095
1330:Drivers/STM32F4xx_HAL_Driver/Src/stm32f4xx_ll_usb.c **** }
ARM GAS  C:\Users\marci\AppData\Local\Temp\ccNtE0Aw.s 			page 100


 3202              		.loc 1 1330 7 is_stmt 0 view .LVU1096
 3203 0000 4369     		ldr	r3, [r0, #20]
1330:Drivers/STM32F4xx_HAL_Driver/Src/stm32f4xx_ll_usb.c **** }
 3204              		.loc 1 1330 17 view .LVU1097
 3205 0002 0B40     		ands	r3, r3, r1
 3206 0004 4361     		str	r3, [r0, #20]
1331:Drivers/STM32F4xx_HAL_Driver/Src/stm32f4xx_ll_usb.c **** 
 3207              		.loc 1 1331 1 view .LVU1098
 3208 0006 7047     		bx	lr
 3209              		.cfi_endproc
 3210              	.LFE164:
 3212              		.section	.text.USB_GetMode,"ax",%progbits
 3213              		.align	1
 3214              		.global	USB_GetMode
 3215              		.syntax unified
 3216              		.thumb
 3217              		.thumb_func
 3219              	USB_GetMode:
 3220              	.LVL242:
 3221              	.LFB165:
1342:Drivers/STM32F4xx_HAL_Driver/Src/stm32f4xx_ll_usb.c ****   return ((USBx->GINTSTS) & 0x1U);
 3222              		.loc 1 1342 1 is_stmt 1 view -0
 3223              		.cfi_startproc
 3224              		@ args = 0, pretend = 0, frame = 0
 3225              		@ frame_needed = 0, uses_anonymous_args = 0
 3226              		@ link register save eliminated.
1343:Drivers/STM32F4xx_HAL_Driver/Src/stm32f4xx_ll_usb.c **** }
 3227              		.loc 1 1343 3 view .LVU1100
1343:Drivers/STM32F4xx_HAL_Driver/Src/stm32f4xx_ll_usb.c **** }
 3228              		.loc 1 1343 16 is_stmt 0 view .LVU1101
 3229 0000 4069     		ldr	r0, [r0, #20]
 3230              	.LVL243:
1344:Drivers/STM32F4xx_HAL_Driver/Src/stm32f4xx_ll_usb.c **** 
 3231              		.loc 1 1344 1 view .LVU1102
 3232 0002 00F00100 		and	r0, r0, #1
 3233 0006 7047     		bx	lr
 3234              		.cfi_endproc
 3235              	.LFE165:
 3237              		.section	.text.USB_SetCurrentMode,"ax",%progbits
 3238              		.align	1
 3239              		.global	USB_SetCurrentMode
 3240              		.syntax unified
 3241              		.thumb
 3242              		.thumb_func
 3244              	USB_SetCurrentMode:
 3245              	.LVL244:
 3246              	.LFB138:
 250:Drivers/STM32F4xx_HAL_Driver/Src/stm32f4xx_ll_usb.c ****   uint32_t ms = 0U;
 3247              		.loc 1 250 1 is_stmt 1 view -0
 3248              		.cfi_startproc
 3249              		@ args = 0, pretend = 0, frame = 0
 3250              		@ frame_needed = 0, uses_anonymous_args = 0
 250:Drivers/STM32F4xx_HAL_Driver/Src/stm32f4xx_ll_usb.c ****   uint32_t ms = 0U;
 3251              		.loc 1 250 1 is_stmt 0 view .LVU1104
 3252 0000 38B5     		push	{r3, r4, r5, lr}
 3253              	.LCFI36:
 3254              		.cfi_def_cfa_offset 16
ARM GAS  C:\Users\marci\AppData\Local\Temp\ccNtE0Aw.s 			page 101


 3255              		.cfi_offset 3, -16
 3256              		.cfi_offset 4, -12
 3257              		.cfi_offset 5, -8
 3258              		.cfi_offset 14, -4
 3259 0002 0546     		mov	r5, r0
 251:Drivers/STM32F4xx_HAL_Driver/Src/stm32f4xx_ll_usb.c **** 
 3260              		.loc 1 251 3 is_stmt 1 view .LVU1105
 3261              	.LVL245:
 253:Drivers/STM32F4xx_HAL_Driver/Src/stm32f4xx_ll_usb.c **** 
 3262              		.loc 1 253 3 view .LVU1106
 253:Drivers/STM32F4xx_HAL_Driver/Src/stm32f4xx_ll_usb.c **** 
 3263              		.loc 1 253 7 is_stmt 0 view .LVU1107
 3264 0004 C368     		ldr	r3, [r0, #12]
 253:Drivers/STM32F4xx_HAL_Driver/Src/stm32f4xx_ll_usb.c **** 
 3265              		.loc 1 253 17 view .LVU1108
 3266 0006 23F0C043 		bic	r3, r3, #1610612736
 3267 000a C360     		str	r3, [r0, #12]
 255:Drivers/STM32F4xx_HAL_Driver/Src/stm32f4xx_ll_usb.c ****   {
 3268              		.loc 1 255 3 is_stmt 1 view .LVU1109
 255:Drivers/STM32F4xx_HAL_Driver/Src/stm32f4xx_ll_usb.c ****   {
 3269              		.loc 1 255 6 is_stmt 0 view .LVU1110
 3270 000c 0129     		cmp	r1, #1
 3271 000e 13D0     		beq	.L209
 265:Drivers/STM32F4xx_HAL_Driver/Src/stm32f4xx_ll_usb.c ****   {
 3272              		.loc 1 265 8 is_stmt 1 view .LVU1111
 265:Drivers/STM32F4xx_HAL_Driver/Src/stm32f4xx_ll_usb.c ****   {
 3273              		.loc 1 265 11 is_stmt 0 view .LVU1112
 3274 0010 19BB     		cbnz	r1, .L206
 267:Drivers/STM32F4xx_HAL_Driver/Src/stm32f4xx_ll_usb.c **** 
 3275              		.loc 1 267 5 is_stmt 1 view .LVU1113
 267:Drivers/STM32F4xx_HAL_Driver/Src/stm32f4xx_ll_usb.c **** 
 3276              		.loc 1 267 9 is_stmt 0 view .LVU1114
 3277 0012 C368     		ldr	r3, [r0, #12]
 267:Drivers/STM32F4xx_HAL_Driver/Src/stm32f4xx_ll_usb.c **** 
 3278              		.loc 1 267 19 view .LVU1115
 3279 0014 43F08043 		orr	r3, r3, #1073741824
 3280 0018 C360     		str	r3, [r0, #12]
 251:Drivers/STM32F4xx_HAL_Driver/Src/stm32f4xx_ll_usb.c **** 
 3281              		.loc 1 251 12 view .LVU1116
 3282 001a 0024     		movs	r4, #0
 3283              	.LVL246:
 3284              	.L205:
 269:Drivers/STM32F4xx_HAL_Driver/Src/stm32f4xx_ll_usb.c ****     {
 3285              		.loc 1 269 5 is_stmt 1 view .LVU1117
 271:Drivers/STM32F4xx_HAL_Driver/Src/stm32f4xx_ll_usb.c ****       ms += 10U;
 3286              		.loc 1 271 7 view .LVU1118
 3287 001c 0A20     		movs	r0, #10
 3288 001e FFF7FEFF 		bl	HAL_Delay
 3289              	.LVL247:
 272:Drivers/STM32F4xx_HAL_Driver/Src/stm32f4xx_ll_usb.c ****     } while ((USB_GetMode(USBx) != (uint32_t)USB_DEVICE_MODE) && (ms < HAL_USB_CURRENT_MODE_MAX_DEL
 3290              		.loc 1 272 7 view .LVU1119
 272:Drivers/STM32F4xx_HAL_Driver/Src/stm32f4xx_ll_usb.c ****     } while ((USB_GetMode(USBx) != (uint32_t)USB_DEVICE_MODE) && (ms < HAL_USB_CURRENT_MODE_MAX_DEL
 3291              		.loc 1 272 10 is_stmt 0 view .LVU1120
 3292 0022 0A34     		adds	r4, r4, #10
 3293              	.LVL248:
 273:Drivers/STM32F4xx_HAL_Driver/Src/stm32f4xx_ll_usb.c ****   }
 3294              		.loc 1 273 63 is_stmt 1 discriminator 2 view .LVU1121
ARM GAS  C:\Users\marci\AppData\Local\Temp\ccNtE0Aw.s 			page 102


 273:Drivers/STM32F4xx_HAL_Driver/Src/stm32f4xx_ll_usb.c ****   }
 3295              		.loc 1 273 15 is_stmt 0 discriminator 2 view .LVU1122
 3296 0024 2846     		mov	r0, r5
 3297 0026 FFF7FEFF 		bl	USB_GetMode
 3298              	.LVL249:
 273:Drivers/STM32F4xx_HAL_Driver/Src/stm32f4xx_ll_usb.c ****   }
 3299              		.loc 1 273 63 discriminator 2 view .LVU1123
 3300 002a 08B1     		cbz	r0, .L202
 273:Drivers/STM32F4xx_HAL_Driver/Src/stm32f4xx_ll_usb.c ****   }
 3301              		.loc 1 273 63 discriminator 1 view .LVU1124
 3302 002c C72C     		cmp	r4, #199
 3303 002e F5D9     		bls	.L205
 3304              	.L202:
 280:Drivers/STM32F4xx_HAL_Driver/Src/stm32f4xx_ll_usb.c ****   {
 3305              		.loc 1 280 3 is_stmt 1 view .LVU1125
 280:Drivers/STM32F4xx_HAL_Driver/Src/stm32f4xx_ll_usb.c ****   {
 3306              		.loc 1 280 6 is_stmt 0 view .LVU1126
 3307 0030 C82C     		cmp	r4, #200
 3308 0032 14D0     		beq	.L207
 285:Drivers/STM32F4xx_HAL_Driver/Src/stm32f4xx_ll_usb.c **** }
 3309              		.loc 1 285 10 view .LVU1127
 3310 0034 0020     		movs	r0, #0
 3311              	.LVL250:
 3312              	.L204:
 286:Drivers/STM32F4xx_HAL_Driver/Src/stm32f4xx_ll_usb.c **** 
 3313              		.loc 1 286 1 view .LVU1128
 3314 0036 38BD     		pop	{r3, r4, r5, pc}
 3315              	.LVL251:
 3316              	.L209:
 257:Drivers/STM32F4xx_HAL_Driver/Src/stm32f4xx_ll_usb.c **** 
 3317              		.loc 1 257 5 is_stmt 1 view .LVU1129
 257:Drivers/STM32F4xx_HAL_Driver/Src/stm32f4xx_ll_usb.c **** 
 3318              		.loc 1 257 9 is_stmt 0 view .LVU1130
 3319 0038 C368     		ldr	r3, [r0, #12]
 257:Drivers/STM32F4xx_HAL_Driver/Src/stm32f4xx_ll_usb.c **** 
 3320              		.loc 1 257 19 view .LVU1131
 3321 003a 43F00053 		orr	r3, r3, #536870912
 3322 003e C360     		str	r3, [r0, #12]
 251:Drivers/STM32F4xx_HAL_Driver/Src/stm32f4xx_ll_usb.c **** 
 3323              		.loc 1 251 12 view .LVU1132
 3324 0040 0024     		movs	r4, #0
 3325              	.LVL252:
 3326              	.L203:
 259:Drivers/STM32F4xx_HAL_Driver/Src/stm32f4xx_ll_usb.c ****     {
 3327              		.loc 1 259 5 is_stmt 1 view .LVU1133
 261:Drivers/STM32F4xx_HAL_Driver/Src/stm32f4xx_ll_usb.c ****       ms += 10U;
 3328              		.loc 1 261 7 view .LVU1134
 3329 0042 0A20     		movs	r0, #10
 3330 0044 FFF7FEFF 		bl	HAL_Delay
 3331              	.LVL253:
 262:Drivers/STM32F4xx_HAL_Driver/Src/stm32f4xx_ll_usb.c ****     } while ((USB_GetMode(USBx) != (uint32_t)USB_HOST_MODE) && (ms < HAL_USB_CURRENT_MODE_MAX_DELAY
 3332              		.loc 1 262 7 view .LVU1135
 262:Drivers/STM32F4xx_HAL_Driver/Src/stm32f4xx_ll_usb.c ****     } while ((USB_GetMode(USBx) != (uint32_t)USB_HOST_MODE) && (ms < HAL_USB_CURRENT_MODE_MAX_DELAY
 3333              		.loc 1 262 10 is_stmt 0 view .LVU1136
 3334 0048 0A34     		adds	r4, r4, #10
 3335              	.LVL254:
 263:Drivers/STM32F4xx_HAL_Driver/Src/stm32f4xx_ll_usb.c ****   }
ARM GAS  C:\Users\marci\AppData\Local\Temp\ccNtE0Aw.s 			page 103


 3336              		.loc 1 263 61 is_stmt 1 discriminator 2 view .LVU1137
 263:Drivers/STM32F4xx_HAL_Driver/Src/stm32f4xx_ll_usb.c ****   }
 3337              		.loc 1 263 15 is_stmt 0 discriminator 2 view .LVU1138
 3338 004a 2846     		mov	r0, r5
 3339 004c FFF7FEFF 		bl	USB_GetMode
 3340              	.LVL255:
 263:Drivers/STM32F4xx_HAL_Driver/Src/stm32f4xx_ll_usb.c ****   }
 3341              		.loc 1 263 61 discriminator 2 view .LVU1139
 3342 0050 0128     		cmp	r0, #1
 3343 0052 EDD0     		beq	.L202
 263:Drivers/STM32F4xx_HAL_Driver/Src/stm32f4xx_ll_usb.c ****   }
 3344              		.loc 1 263 61 discriminator 1 view .LVU1140
 3345 0054 C72C     		cmp	r4, #199
 3346 0056 F4D9     		bls	.L203
 3347 0058 EAE7     		b	.L202
 3348              	.LVL256:
 3349              	.L206:
 277:Drivers/STM32F4xx_HAL_Driver/Src/stm32f4xx_ll_usb.c ****   }
 3350              		.loc 1 277 12 view .LVU1141
 3351 005a 0120     		movs	r0, #1
 3352              	.LVL257:
 277:Drivers/STM32F4xx_HAL_Driver/Src/stm32f4xx_ll_usb.c ****   }
 3353              		.loc 1 277 12 view .LVU1142
 3354 005c EBE7     		b	.L204
 3355              	.LVL258:
 3356              	.L207:
 282:Drivers/STM32F4xx_HAL_Driver/Src/stm32f4xx_ll_usb.c ****   }
 3357              		.loc 1 282 12 view .LVU1143
 3358 005e 0120     		movs	r0, #1
 3359 0060 E9E7     		b	.L204
 3360              		.cfi_endproc
 3361              	.LFE138:
 3363              		.section	.text.USB_ActivateSetup,"ax",%progbits
 3364              		.align	1
 3365              		.global	USB_ActivateSetup
 3366              		.syntax unified
 3367              		.thumb
 3368              		.thumb_func
 3370              	USB_ActivateSetup:
 3371              	.LVL259:
 3372              	.LFB166:
1352:Drivers/STM32F4xx_HAL_Driver/Src/stm32f4xx_ll_usb.c ****   uint32_t USBx_BASE = (uint32_t)USBx;
 3373              		.loc 1 1352 1 is_stmt 1 view -0
 3374              		.cfi_startproc
 3375              		@ args = 0, pretend = 0, frame = 0
 3376              		@ frame_needed = 0, uses_anonymous_args = 0
 3377              		@ link register save eliminated.
1353:Drivers/STM32F4xx_HAL_Driver/Src/stm32f4xx_ll_usb.c **** 
 3378              		.loc 1 1353 3 view .LVU1145
1356:Drivers/STM32F4xx_HAL_Driver/Src/stm32f4xx_ll_usb.c **** 
 3379              		.loc 1 1356 3 view .LVU1146
1356:Drivers/STM32F4xx_HAL_Driver/Src/stm32f4xx_ll_usb.c **** 
 3380              		.loc 1 1356 16 is_stmt 0 view .LVU1147
 3381 0000 D0F80039 		ldr	r3, [r0, #2304]
1356:Drivers/STM32F4xx_HAL_Driver/Src/stm32f4xx_ll_usb.c **** 
 3382              		.loc 1 1356 26 view .LVU1148
 3383 0004 6FF30A03 		bfc	r3, #0, #11
ARM GAS  C:\Users\marci\AppData\Local\Temp\ccNtE0Aw.s 			page 104


 3384 0008 C0F80039 		str	r3, [r0, #2304]
1358:Drivers/STM32F4xx_HAL_Driver/Src/stm32f4xx_ll_usb.c **** 
 3385              		.loc 1 1358 3 is_stmt 1 view .LVU1149
1358:Drivers/STM32F4xx_HAL_Driver/Src/stm32f4xx_ll_usb.c **** 
 3386              		.loc 1 1358 14 is_stmt 0 view .LVU1150
 3387 000c D0F80438 		ldr	r3, [r0, #2052]
1358:Drivers/STM32F4xx_HAL_Driver/Src/stm32f4xx_ll_usb.c **** 
 3388              		.loc 1 1358 21 view .LVU1151
 3389 0010 43F48073 		orr	r3, r3, #256
 3390 0014 C0F80438 		str	r3, [r0, #2052]
1360:Drivers/STM32F4xx_HAL_Driver/Src/stm32f4xx_ll_usb.c **** }
 3391              		.loc 1 1360 3 is_stmt 1 view .LVU1152
1361:Drivers/STM32F4xx_HAL_Driver/Src/stm32f4xx_ll_usb.c **** 
 3392              		.loc 1 1361 1 is_stmt 0 view .LVU1153
 3393 0018 0020     		movs	r0, #0
 3394              	.LVL260:
1361:Drivers/STM32F4xx_HAL_Driver/Src/stm32f4xx_ll_usb.c **** 
 3395              		.loc 1 1361 1 view .LVU1154
 3396 001a 7047     		bx	lr
 3397              		.cfi_endproc
 3398              	.LFE166:
 3400              		.section	.text.USB_EP0_OutStart,"ax",%progbits
 3401              		.align	1
 3402              		.global	USB_EP0_OutStart
 3403              		.syntax unified
 3404              		.thumb
 3405              		.thumb_func
 3407              	USB_EP0_OutStart:
 3408              	.LVL261:
 3409              	.LFB167:
1374:Drivers/STM32F4xx_HAL_Driver/Src/stm32f4xx_ll_usb.c ****   uint32_t USBx_BASE = (uint32_t)USBx;
 3410              		.loc 1 1374 1 is_stmt 1 view -0
 3411              		.cfi_startproc
 3412              		@ args = 0, pretend = 0, frame = 0
 3413              		@ frame_needed = 0, uses_anonymous_args = 0
 3414              		@ link register save eliminated.
1374:Drivers/STM32F4xx_HAL_Driver/Src/stm32f4xx_ll_usb.c ****   uint32_t USBx_BASE = (uint32_t)USBx;
 3415              		.loc 1 1374 1 is_stmt 0 view .LVU1156
 3416 0000 10B4     		push	{r4}
 3417              	.LCFI37:
 3418              		.cfi_def_cfa_offset 4
 3419              		.cfi_offset 4, -4
1375:Drivers/STM32F4xx_HAL_Driver/Src/stm32f4xx_ll_usb.c ****   uint32_t gSNPSiD = *(__IO const uint32_t *)(&USBx->CID + 0x1U);
 3420              		.loc 1 1375 3 is_stmt 1 view .LVU1157
 3421              	.LVL262:
1376:Drivers/STM32F4xx_HAL_Driver/Src/stm32f4xx_ll_usb.c **** 
 3422              		.loc 1 1376 3 view .LVU1158
1376:Drivers/STM32F4xx_HAL_Driver/Src/stm32f4xx_ll_usb.c **** 
 3423              		.loc 1 1376 12 is_stmt 0 view .LVU1159
 3424 0002 046C     		ldr	r4, [r0, #64]
 3425              	.LVL263:
1378:Drivers/STM32F4xx_HAL_Driver/Src/stm32f4xx_ll_usb.c ****   {
 3426              		.loc 1 1378 3 is_stmt 1 view .LVU1160
1378:Drivers/STM32F4xx_HAL_Driver/Src/stm32f4xx_ll_usb.c ****   {
 3427              		.loc 1 1378 6 is_stmt 0 view .LVU1161
 3428 0004 154B     		ldr	r3, .L216
 3429 0006 9C42     		cmp	r4, r3
ARM GAS  C:\Users\marci\AppData\Local\Temp\ccNtE0Aw.s 			page 105


 3430 0008 03D9     		bls	.L212
1380:Drivers/STM32F4xx_HAL_Driver/Src/stm32f4xx_ll_usb.c ****     {
 3431              		.loc 1 1380 5 is_stmt 1 view .LVU1162
1380:Drivers/STM32F4xx_HAL_Driver/Src/stm32f4xx_ll_usb.c ****     {
 3432              		.loc 1 1380 24 is_stmt 0 view .LVU1163
 3433 000a D0F8003B 		ldr	r3, [r0, #2816]
1380:Drivers/STM32F4xx_HAL_Driver/Src/stm32f4xx_ll_usb.c ****     {
 3434              		.loc 1 1380 8 view .LVU1164
 3435 000e 002B     		cmp	r3, #0
 3436 0010 16DB     		blt	.L213
 3437              	.L212:
1386:Drivers/STM32F4xx_HAL_Driver/Src/stm32f4xx_ll_usb.c ****   USBx_OUTEP(0U)->DOEPTSIZ |= (USB_OTG_DOEPTSIZ_PKTCNT & (1U << 19));
 3438              		.loc 1 1386 3 is_stmt 1 view .LVU1165
1386:Drivers/STM32F4xx_HAL_Driver/Src/stm32f4xx_ll_usb.c ****   USBx_OUTEP(0U)->DOEPTSIZ |= (USB_OTG_DOEPTSIZ_PKTCNT & (1U << 19));
 3439              		.loc 1 1386 28 is_stmt 0 view .LVU1166
 3440 0012 0024     		movs	r4, #0
 3441              	.LVL264:
1386:Drivers/STM32F4xx_HAL_Driver/Src/stm32f4xx_ll_usb.c ****   USBx_OUTEP(0U)->DOEPTSIZ |= (USB_OTG_DOEPTSIZ_PKTCNT & (1U << 19));
 3442              		.loc 1 1386 28 view .LVU1167
 3443 0014 C0F8104B 		str	r4, [r0, #2832]
1387:Drivers/STM32F4xx_HAL_Driver/Src/stm32f4xx_ll_usb.c ****   USBx_OUTEP(0U)->DOEPTSIZ |= (3U * 8U);
 3444              		.loc 1 1387 3 is_stmt 1 view .LVU1168
1387:Drivers/STM32F4xx_HAL_Driver/Src/stm32f4xx_ll_usb.c ****   USBx_OUTEP(0U)->DOEPTSIZ |= (3U * 8U);
 3445              		.loc 1 1387 17 is_stmt 0 view .LVU1169
 3446 0018 D0F8104B 		ldr	r4, [r0, #2832]
1387:Drivers/STM32F4xx_HAL_Driver/Src/stm32f4xx_ll_usb.c ****   USBx_OUTEP(0U)->DOEPTSIZ |= (3U * 8U);
 3447              		.loc 1 1387 28 view .LVU1170
 3448 001c 44F40024 		orr	r4, r4, #524288
 3449 0020 C0F8104B 		str	r4, [r0, #2832]
1388:Drivers/STM32F4xx_HAL_Driver/Src/stm32f4xx_ll_usb.c ****   USBx_OUTEP(0U)->DOEPTSIZ |=  USB_OTG_DOEPTSIZ_STUPCNT;
 3450              		.loc 1 1388 3 is_stmt 1 view .LVU1171
1388:Drivers/STM32F4xx_HAL_Driver/Src/stm32f4xx_ll_usb.c ****   USBx_OUTEP(0U)->DOEPTSIZ |=  USB_OTG_DOEPTSIZ_STUPCNT;
 3451              		.loc 1 1388 17 is_stmt 0 view .LVU1172
 3452 0024 D0F8104B 		ldr	r4, [r0, #2832]
1388:Drivers/STM32F4xx_HAL_Driver/Src/stm32f4xx_ll_usb.c ****   USBx_OUTEP(0U)->DOEPTSIZ |=  USB_OTG_DOEPTSIZ_STUPCNT;
 3453              		.loc 1 1388 28 view .LVU1173
 3454 0028 44F01804 		orr	r4, r4, #24
 3455 002c C0F8104B 		str	r4, [r0, #2832]
1389:Drivers/STM32F4xx_HAL_Driver/Src/stm32f4xx_ll_usb.c **** 
 3456              		.loc 1 1389 3 is_stmt 1 view .LVU1174
1389:Drivers/STM32F4xx_HAL_Driver/Src/stm32f4xx_ll_usb.c **** 
 3457              		.loc 1 1389 17 is_stmt 0 view .LVU1175
 3458 0030 D0F8104B 		ldr	r4, [r0, #2832]
1389:Drivers/STM32F4xx_HAL_Driver/Src/stm32f4xx_ll_usb.c **** 
 3459              		.loc 1 1389 28 view .LVU1176
 3460 0034 44F0C044 		orr	r4, r4, #1610612736
 3461 0038 C0F8104B 		str	r4, [r0, #2832]
1391:Drivers/STM32F4xx_HAL_Driver/Src/stm32f4xx_ll_usb.c ****   {
 3462              		.loc 1 1391 3 is_stmt 1 view .LVU1177
1391:Drivers/STM32F4xx_HAL_Driver/Src/stm32f4xx_ll_usb.c ****   {
 3463              		.loc 1 1391 6 is_stmt 0 view .LVU1178
 3464 003c 0129     		cmp	r1, #1
 3465 003e 03D0     		beq	.L215
 3466              	.L213:
1399:Drivers/STM32F4xx_HAL_Driver/Src/stm32f4xx_ll_usb.c **** 
 3467              		.loc 1 1399 1 view .LVU1179
 3468 0040 0020     		movs	r0, #0
ARM GAS  C:\Users\marci\AppData\Local\Temp\ccNtE0Aw.s 			page 106


 3469              	.LVL265:
1399:Drivers/STM32F4xx_HAL_Driver/Src/stm32f4xx_ll_usb.c **** 
 3470              		.loc 1 1399 1 view .LVU1180
 3471 0042 5DF8044B 		ldr	r4, [sp], #4
 3472              	.LCFI38:
 3473              		.cfi_remember_state
 3474              		.cfi_restore 4
 3475              		.cfi_def_cfa_offset 0
 3476 0046 7047     		bx	lr
 3477              	.LVL266:
 3478              	.L215:
 3479              	.LCFI39:
 3480              		.cfi_restore_state
1393:Drivers/STM32F4xx_HAL_Driver/Src/stm32f4xx_ll_usb.c ****     /* EP enable */
 3481              		.loc 1 1393 5 is_stmt 1 view .LVU1181
1393:Drivers/STM32F4xx_HAL_Driver/Src/stm32f4xx_ll_usb.c ****     /* EP enable */
 3482              		.loc 1 1393 29 is_stmt 0 view .LVU1182
 3483 0048 C0F8142B 		str	r2, [r0, #2836]
1395:Drivers/STM32F4xx_HAL_Driver/Src/stm32f4xx_ll_usb.c ****   }
 3484              		.loc 1 1395 5 is_stmt 1 view .LVU1183
1395:Drivers/STM32F4xx_HAL_Driver/Src/stm32f4xx_ll_usb.c ****   }
 3485              		.loc 1 1395 19 is_stmt 0 view .LVU1184
 3486 004c D0F8003B 		ldr	r3, [r0, #2816]
1395:Drivers/STM32F4xx_HAL_Driver/Src/stm32f4xx_ll_usb.c ****   }
 3487              		.loc 1 1395 29 view .LVU1185
 3488 0050 43F08023 		orr	r3, r3, #-2147450880
 3489 0054 C0F8003B 		str	r3, [r0, #2816]
 3490 0058 F2E7     		b	.L213
 3491              	.L217:
 3492 005a 00BF     		.align	2
 3493              	.L216:
 3494 005c 0A30544F 		.word	1330917386
 3495              		.cfi_endproc
 3496              	.LFE167:
 3498              		.section	.text.USB_HostInit,"ax",%progbits
 3499              		.align	1
 3500              		.global	USB_HostInit
 3501              		.syntax unified
 3502              		.thumb
 3503              		.thumb_func
 3505              	USB_HostInit:
 3506              	.LVL267:
 3507              	.LFB169:
1437:Drivers/STM32F4xx_HAL_Driver/Src/stm32f4xx_ll_usb.c **** 
1438:Drivers/STM32F4xx_HAL_Driver/Src/stm32f4xx_ll_usb.c **** /**
1439:Drivers/STM32F4xx_HAL_Driver/Src/stm32f4xx_ll_usb.c ****   * @brief  USB_HostInit : Initializes the USB OTG controller registers
1440:Drivers/STM32F4xx_HAL_Driver/Src/stm32f4xx_ll_usb.c ****   *         for Host mode
1441:Drivers/STM32F4xx_HAL_Driver/Src/stm32f4xx_ll_usb.c ****   * @param  USBx  Selected device
1442:Drivers/STM32F4xx_HAL_Driver/Src/stm32f4xx_ll_usb.c ****   * @param  cfg   pointer to a USB_OTG_CfgTypeDef structure that contains
1443:Drivers/STM32F4xx_HAL_Driver/Src/stm32f4xx_ll_usb.c ****   *         the configuration information for the specified USBx peripheral.
1444:Drivers/STM32F4xx_HAL_Driver/Src/stm32f4xx_ll_usb.c ****   * @retval HAL status
1445:Drivers/STM32F4xx_HAL_Driver/Src/stm32f4xx_ll_usb.c ****   */
1446:Drivers/STM32F4xx_HAL_Driver/Src/stm32f4xx_ll_usb.c **** HAL_StatusTypeDef USB_HostInit(USB_OTG_GlobalTypeDef *USBx, USB_OTG_CfgTypeDef cfg)
1447:Drivers/STM32F4xx_HAL_Driver/Src/stm32f4xx_ll_usb.c **** {
 3508              		.loc 1 1447 1 is_stmt 1 view -0
 3509              		.cfi_startproc
 3510              		@ args = 20, pretend = 16, frame = 0
ARM GAS  C:\Users\marci\AppData\Local\Temp\ccNtE0Aw.s 			page 107


 3511              		@ frame_needed = 0, uses_anonymous_args = 0
 3512              		.loc 1 1447 1 is_stmt 0 view .LVU1187
 3513 0000 84B0     		sub	sp, sp, #16
 3514              	.LCFI40:
 3515              		.cfi_def_cfa_offset 16
 3516 0002 38B5     		push	{r3, r4, r5, lr}
 3517              	.LCFI41:
 3518              		.cfi_def_cfa_offset 32
 3519              		.cfi_offset 3, -32
 3520              		.cfi_offset 4, -28
 3521              		.cfi_offset 5, -24
 3522              		.cfi_offset 14, -20
 3523 0004 0446     		mov	r4, r0
 3524 0006 05A8     		add	r0, sp, #20
 3525              	.LVL268:
 3526              		.loc 1 1447 1 view .LVU1188
 3527 0008 80E80E00 		stm	r0, {r1, r2, r3}
1448:Drivers/STM32F4xx_HAL_Driver/Src/stm32f4xx_ll_usb.c ****   HAL_StatusTypeDef ret = HAL_OK;
 3528              		.loc 1 1448 3 is_stmt 1 view .LVU1189
 3529              	.LVL269:
1449:Drivers/STM32F4xx_HAL_Driver/Src/stm32f4xx_ll_usb.c ****   uint32_t USBx_BASE = (uint32_t)USBx;
 3530              		.loc 1 1449 3 view .LVU1190
1450:Drivers/STM32F4xx_HAL_Driver/Src/stm32f4xx_ll_usb.c ****   uint32_t i;
 3531              		.loc 1 1450 3 view .LVU1191
1451:Drivers/STM32F4xx_HAL_Driver/Src/stm32f4xx_ll_usb.c **** 
1452:Drivers/STM32F4xx_HAL_Driver/Src/stm32f4xx_ll_usb.c ****   /* Restart the Phy Clock */
1453:Drivers/STM32F4xx_HAL_Driver/Src/stm32f4xx_ll_usb.c ****   USBx_PCGCCTL = 0U;
 3532              		.loc 1 1453 3 view .LVU1192
 3533              		.loc 1 1453 16 is_stmt 0 view .LVU1193
 3534 000c 0023     		movs	r3, #0
 3535 000e C4F8003E 		str	r3, [r4, #3584]
1454:Drivers/STM32F4xx_HAL_Driver/Src/stm32f4xx_ll_usb.c **** 
1455:Drivers/STM32F4xx_HAL_Driver/Src/stm32f4xx_ll_usb.c **** #if defined(STM32F446xx) || defined(STM32F469xx) || defined(STM32F479xx) || defined(STM32F412Zx) \
1456:Drivers/STM32F4xx_HAL_Driver/Src/stm32f4xx_ll_usb.c ****  || defined(STM32F412Vx) || defined(STM32F412Rx) || defined(STM32F412Cx) || defined(STM32F413xx) \
1457:Drivers/STM32F4xx_HAL_Driver/Src/stm32f4xx_ll_usb.c ****  || defined(STM32F423xx)
1458:Drivers/STM32F4xx_HAL_Driver/Src/stm32f4xx_ll_usb.c ****   /* Disable HW VBUS sensing */
1459:Drivers/STM32F4xx_HAL_Driver/Src/stm32f4xx_ll_usb.c ****   USBx->GCCFG &= ~(USB_OTG_GCCFG_VBDEN);
 3536              		.loc 1 1459 3 is_stmt 1 view .LVU1194
 3537              		.loc 1 1459 7 is_stmt 0 view .LVU1195
 3538 0012 A36B     		ldr	r3, [r4, #56]
 3539              		.loc 1 1459 15 view .LVU1196
 3540 0014 23F40013 		bic	r3, r3, #2097152
 3541 0018 A363     		str	r3, [r4, #56]
1460:Drivers/STM32F4xx_HAL_Driver/Src/stm32f4xx_ll_usb.c **** #else
1461:Drivers/STM32F4xx_HAL_Driver/Src/stm32f4xx_ll_usb.c ****   /*
1462:Drivers/STM32F4xx_HAL_Driver/Src/stm32f4xx_ll_usb.c ****   * Disable HW VBUS sensing. VBUS is internally considered to be always
1463:Drivers/STM32F4xx_HAL_Driver/Src/stm32f4xx_ll_usb.c ****   * at VBUS-Valid level (5V).
1464:Drivers/STM32F4xx_HAL_Driver/Src/stm32f4xx_ll_usb.c ****   */
1465:Drivers/STM32F4xx_HAL_Driver/Src/stm32f4xx_ll_usb.c ****   USBx->GCCFG |= USB_OTG_GCCFG_NOVBUSSENS;
1466:Drivers/STM32F4xx_HAL_Driver/Src/stm32f4xx_ll_usb.c ****   USBx->GCCFG &= ~USB_OTG_GCCFG_VBUSBSEN;
1467:Drivers/STM32F4xx_HAL_Driver/Src/stm32f4xx_ll_usb.c ****   USBx->GCCFG &= ~USB_OTG_GCCFG_VBUSASEN;
1468:Drivers/STM32F4xx_HAL_Driver/Src/stm32f4xx_ll_usb.c **** #endif /* defined(STM32F446xx) || defined(STM32F469xx) || defined(STM32F479xx) || defined(STM32F412
1469:Drivers/STM32F4xx_HAL_Driver/Src/stm32f4xx_ll_usb.c ****           defined(STM32F412Vx) || defined(STM32F412Rx) || defined(STM32F412Cx) || defined(STM32F413
1470:Drivers/STM32F4xx_HAL_Driver/Src/stm32f4xx_ll_usb.c ****           defined(STM32F423xx) */
1471:Drivers/STM32F4xx_HAL_Driver/Src/stm32f4xx_ll_usb.c **** #if defined(STM32F412Zx) || defined(STM32F412Vx) || defined(STM32F412Rx) \
1472:Drivers/STM32F4xx_HAL_Driver/Src/stm32f4xx_ll_usb.c ****  || defined(STM32F412Cx) || defined(STM32F413xx) || defined(STM32F423xx)
1473:Drivers/STM32F4xx_HAL_Driver/Src/stm32f4xx_ll_usb.c ****   /* Disable Battery chargin detector */
ARM GAS  C:\Users\marci\AppData\Local\Temp\ccNtE0Aw.s 			page 108


1474:Drivers/STM32F4xx_HAL_Driver/Src/stm32f4xx_ll_usb.c ****   USBx->GCCFG &= ~(USB_OTG_GCCFG_BCDEN);
 3542              		.loc 1 1474 3 is_stmt 1 view .LVU1197
 3543              		.loc 1 1474 7 is_stmt 0 view .LVU1198
 3544 001a A36B     		ldr	r3, [r4, #56]
 3545              		.loc 1 1474 15 view .LVU1199
 3546 001c 23F40033 		bic	r3, r3, #131072
 3547 0020 A363     		str	r3, [r4, #56]
1475:Drivers/STM32F4xx_HAL_Driver/Src/stm32f4xx_ll_usb.c **** #endif /* defined(STM32F412Zx) || defined(STM32F412Vx) || defined(STM32F412Rx) ||
1476:Drivers/STM32F4xx_HAL_Driver/Src/stm32f4xx_ll_usb.c ****           defined(STM32F412Cx) || defined(STM32F413xx) || defined(STM32F423xx) */
1477:Drivers/STM32F4xx_HAL_Driver/Src/stm32f4xx_ll_usb.c **** 
1478:Drivers/STM32F4xx_HAL_Driver/Src/stm32f4xx_ll_usb.c ****   if ((USBx->GUSBCFG & USB_OTG_GUSBCFG_PHYSEL) == 0U)
 3548              		.loc 1 1478 3 is_stmt 1 view .LVU1200
 3549              		.loc 1 1478 12 is_stmt 0 view .LVU1201
 3550 0022 E368     		ldr	r3, [r4, #12]
 3551              		.loc 1 1478 6 view .LVU1202
 3552 0024 13F0400F 		tst	r3, #64
 3553 0028 11D1     		bne	.L219
1479:Drivers/STM32F4xx_HAL_Driver/Src/stm32f4xx_ll_usb.c ****   {
1480:Drivers/STM32F4xx_HAL_Driver/Src/stm32f4xx_ll_usb.c ****     if (cfg.speed == USBH_FSLS_SPEED)
 3554              		.loc 1 1480 5 is_stmt 1 view .LVU1203
 3555              		.loc 1 1480 12 is_stmt 0 view .LVU1204
 3556 002a 9DF81730 		ldrb	r3, [sp, #23]	@ zero_extendqisi2
 3557              		.loc 1 1480 8 view .LVU1205
 3558 002e 012B     		cmp	r3, #1
 3559 0030 06D0     		beq	.L230
1481:Drivers/STM32F4xx_HAL_Driver/Src/stm32f4xx_ll_usb.c ****     {
1482:Drivers/STM32F4xx_HAL_Driver/Src/stm32f4xx_ll_usb.c ****       /* Force Device Enumeration to FS/LS mode only */
1483:Drivers/STM32F4xx_HAL_Driver/Src/stm32f4xx_ll_usb.c ****       USBx_HOST->HCFG |= USB_OTG_HCFG_FSLSS;
1484:Drivers/STM32F4xx_HAL_Driver/Src/stm32f4xx_ll_usb.c ****     }
1485:Drivers/STM32F4xx_HAL_Driver/Src/stm32f4xx_ll_usb.c ****     else
1486:Drivers/STM32F4xx_HAL_Driver/Src/stm32f4xx_ll_usb.c ****     {
1487:Drivers/STM32F4xx_HAL_Driver/Src/stm32f4xx_ll_usb.c ****       /* Set default Max speed support */
1488:Drivers/STM32F4xx_HAL_Driver/Src/stm32f4xx_ll_usb.c ****       USBx_HOST->HCFG &= ~(USB_OTG_HCFG_FSLSS);
 3560              		.loc 1 1488 7 is_stmt 1 view .LVU1206
 3561              		.loc 1 1488 16 is_stmt 0 view .LVU1207
 3562 0032 D4F80034 		ldr	r3, [r4, #1024]
 3563              		.loc 1 1488 23 view .LVU1208
 3564 0036 23F00403 		bic	r3, r3, #4
 3565 003a C4F80034 		str	r3, [r4, #1024]
 3566 003e 0CE0     		b	.L221
 3567              	.L230:
1483:Drivers/STM32F4xx_HAL_Driver/Src/stm32f4xx_ll_usb.c ****     }
 3568              		.loc 1 1483 7 is_stmt 1 view .LVU1209
1483:Drivers/STM32F4xx_HAL_Driver/Src/stm32f4xx_ll_usb.c ****     }
 3569              		.loc 1 1483 16 is_stmt 0 view .LVU1210
 3570 0040 D4F80034 		ldr	r3, [r4, #1024]
1483:Drivers/STM32F4xx_HAL_Driver/Src/stm32f4xx_ll_usb.c ****     }
 3571              		.loc 1 1483 23 view .LVU1211
 3572 0044 43F00403 		orr	r3, r3, #4
 3573 0048 C4F80034 		str	r3, [r4, #1024]
 3574 004c 05E0     		b	.L221
 3575              	.L219:
1489:Drivers/STM32F4xx_HAL_Driver/Src/stm32f4xx_ll_usb.c ****     }
1490:Drivers/STM32F4xx_HAL_Driver/Src/stm32f4xx_ll_usb.c ****   }
1491:Drivers/STM32F4xx_HAL_Driver/Src/stm32f4xx_ll_usb.c ****   else
1492:Drivers/STM32F4xx_HAL_Driver/Src/stm32f4xx_ll_usb.c ****   {
1493:Drivers/STM32F4xx_HAL_Driver/Src/stm32f4xx_ll_usb.c ****     /* Set default Max speed support */
ARM GAS  C:\Users\marci\AppData\Local\Temp\ccNtE0Aw.s 			page 109


1494:Drivers/STM32F4xx_HAL_Driver/Src/stm32f4xx_ll_usb.c ****     USBx_HOST->HCFG &= ~(USB_OTG_HCFG_FSLSS);
 3576              		.loc 1 1494 5 is_stmt 1 view .LVU1212
 3577              		.loc 1 1494 14 is_stmt 0 view .LVU1213
 3578 004e D4F80034 		ldr	r3, [r4, #1024]
 3579              		.loc 1 1494 21 view .LVU1214
 3580 0052 23F00403 		bic	r3, r3, #4
 3581 0056 C4F80034 		str	r3, [r4, #1024]
 3582              	.L221:
1495:Drivers/STM32F4xx_HAL_Driver/Src/stm32f4xx_ll_usb.c ****   }
1496:Drivers/STM32F4xx_HAL_Driver/Src/stm32f4xx_ll_usb.c **** 
1497:Drivers/STM32F4xx_HAL_Driver/Src/stm32f4xx_ll_usb.c ****   /* Make sure the FIFOs are flushed. */
1498:Drivers/STM32F4xx_HAL_Driver/Src/stm32f4xx_ll_usb.c ****   if (USB_FlushTxFifo(USBx, 0x10U) != HAL_OK) /* all Tx FIFOs */
 3583              		.loc 1 1498 3 is_stmt 1 view .LVU1215
 3584              		.loc 1 1498 7 is_stmt 0 view .LVU1216
 3585 005a 1021     		movs	r1, #16
 3586 005c 2046     		mov	r0, r4
 3587 005e FFF7FEFF 		bl	USB_FlushTxFifo
 3588              	.LVL270:
 3589              		.loc 1 1498 6 discriminator 1 view .LVU1217
 3590 0062 0546     		mov	r5, r0
 3591 0064 00B1     		cbz	r0, .L222
1499:Drivers/STM32F4xx_HAL_Driver/Src/stm32f4xx_ll_usb.c ****   {
1500:Drivers/STM32F4xx_HAL_Driver/Src/stm32f4xx_ll_usb.c ****     ret = HAL_ERROR;
 3592              		.loc 1 1500 9 view .LVU1218
 3593 0066 0125     		movs	r5, #1
 3594              	.L222:
 3595              	.LVL271:
1501:Drivers/STM32F4xx_HAL_Driver/Src/stm32f4xx_ll_usb.c ****   }
1502:Drivers/STM32F4xx_HAL_Driver/Src/stm32f4xx_ll_usb.c **** 
1503:Drivers/STM32F4xx_HAL_Driver/Src/stm32f4xx_ll_usb.c ****   if (USB_FlushRxFifo(USBx) != HAL_OK)
 3596              		.loc 1 1503 3 is_stmt 1 view .LVU1219
 3597              		.loc 1 1503 7 is_stmt 0 view .LVU1220
 3598 0068 2046     		mov	r0, r4
 3599 006a FFF7FEFF 		bl	USB_FlushRxFifo
 3600              	.LVL272:
 3601              		.loc 1 1503 6 discriminator 1 view .LVU1221
 3602 006e 00B1     		cbz	r0, .L223
1504:Drivers/STM32F4xx_HAL_Driver/Src/stm32f4xx_ll_usb.c ****   {
1505:Drivers/STM32F4xx_HAL_Driver/Src/stm32f4xx_ll_usb.c ****     ret = HAL_ERROR;
 3603              		.loc 1 1505 9 view .LVU1222
 3604 0070 0125     		movs	r5, #1
 3605              	.LVL273:
 3606              	.L223:
1506:Drivers/STM32F4xx_HAL_Driver/Src/stm32f4xx_ll_usb.c ****   }
1507:Drivers/STM32F4xx_HAL_Driver/Src/stm32f4xx_ll_usb.c **** 
1508:Drivers/STM32F4xx_HAL_Driver/Src/stm32f4xx_ll_usb.c ****   /* Clear all pending HC Interrupts */
1509:Drivers/STM32F4xx_HAL_Driver/Src/stm32f4xx_ll_usb.c ****   for (i = 0U; i < cfg.Host_channels; i++)
 3607              		.loc 1 1509 3 is_stmt 1 view .LVU1223
 3608              		.loc 1 1509 10 is_stmt 0 view .LVU1224
 3609 0072 0022     		movs	r2, #0
 3610              		.loc 1 1509 3 view .LVU1225
 3611 0074 09E0     		b	.L224
 3612              	.LVL274:
 3613              	.L225:
1510:Drivers/STM32F4xx_HAL_Driver/Src/stm32f4xx_ll_usb.c ****   {
1511:Drivers/STM32F4xx_HAL_Driver/Src/stm32f4xx_ll_usb.c ****     USBx_HC(i)->HCINT = CLEAR_INTERRUPT_MASK;
 3614              		.loc 1 1511 5 is_stmt 1 view .LVU1226
ARM GAS  C:\Users\marci\AppData\Local\Temp\ccNtE0Aw.s 			page 110


 3615 0076 04EB4213 		add	r3, r4, r2, lsl #5
 3616              		.loc 1 1511 23 is_stmt 0 view .LVU1227
 3617 007a 4FF0FF31 		mov	r1, #-1
 3618 007e C3F80815 		str	r1, [r3, #1288]
1512:Drivers/STM32F4xx_HAL_Driver/Src/stm32f4xx_ll_usb.c ****     USBx_HC(i)->HCINTMSK = 0U;
 3619              		.loc 1 1512 5 is_stmt 1 view .LVU1228
 3620              		.loc 1 1512 26 is_stmt 0 view .LVU1229
 3621 0082 0021     		movs	r1, #0
 3622 0084 C3F80C15 		str	r1, [r3, #1292]
1509:Drivers/STM32F4xx_HAL_Driver/Src/stm32f4xx_ll_usb.c ****   {
 3623              		.loc 1 1509 40 is_stmt 1 discriminator 3 view .LVU1230
 3624 0088 0132     		adds	r2, r2, #1
 3625              	.LVL275:
 3626              	.L224:
1509:Drivers/STM32F4xx_HAL_Driver/Src/stm32f4xx_ll_usb.c ****   {
 3627              		.loc 1 1509 18 discriminator 1 view .LVU1231
1509:Drivers/STM32F4xx_HAL_Driver/Src/stm32f4xx_ll_usb.c ****   {
 3628              		.loc 1 1509 23 is_stmt 0 discriminator 1 view .LVU1232
 3629 008a 9DF81530 		ldrb	r3, [sp, #21]	@ zero_extendqisi2
1509:Drivers/STM32F4xx_HAL_Driver/Src/stm32f4xx_ll_usb.c ****   {
 3630              		.loc 1 1509 18 discriminator 1 view .LVU1233
 3631 008e 9342     		cmp	r3, r2
 3632 0090 F1D8     		bhi	.L225
1513:Drivers/STM32F4xx_HAL_Driver/Src/stm32f4xx_ll_usb.c ****   }
1514:Drivers/STM32F4xx_HAL_Driver/Src/stm32f4xx_ll_usb.c **** 
1515:Drivers/STM32F4xx_HAL_Driver/Src/stm32f4xx_ll_usb.c ****   /* Disable all interrupts. */
1516:Drivers/STM32F4xx_HAL_Driver/Src/stm32f4xx_ll_usb.c ****   USBx->GINTMSK = 0U;
 3633              		.loc 1 1516 3 is_stmt 1 view .LVU1234
 3634              		.loc 1 1516 17 is_stmt 0 view .LVU1235
 3635 0092 0023     		movs	r3, #0
 3636 0094 A361     		str	r3, [r4, #24]
1517:Drivers/STM32F4xx_HAL_Driver/Src/stm32f4xx_ll_usb.c **** 
1518:Drivers/STM32F4xx_HAL_Driver/Src/stm32f4xx_ll_usb.c ****   /* Clear any pending interrupts */
1519:Drivers/STM32F4xx_HAL_Driver/Src/stm32f4xx_ll_usb.c ****   USBx->GINTSTS = CLEAR_INTERRUPT_MASK;
 3637              		.loc 1 1519 3 is_stmt 1 view .LVU1236
 3638              		.loc 1 1519 17 is_stmt 0 view .LVU1237
 3639 0096 4FF0FF33 		mov	r3, #-1
 3640 009a 6361     		str	r3, [r4, #20]
1520:Drivers/STM32F4xx_HAL_Driver/Src/stm32f4xx_ll_usb.c **** #if defined (USB_OTG_HS)
1521:Drivers/STM32F4xx_HAL_Driver/Src/stm32f4xx_ll_usb.c ****   if (USBx == USB_OTG_HS)
1522:Drivers/STM32F4xx_HAL_Driver/Src/stm32f4xx_ll_usb.c ****   {
1523:Drivers/STM32F4xx_HAL_Driver/Src/stm32f4xx_ll_usb.c ****     /* set Rx FIFO size */
1524:Drivers/STM32F4xx_HAL_Driver/Src/stm32f4xx_ll_usb.c ****     USBx->GRXFSIZ  = 0x200U;
1525:Drivers/STM32F4xx_HAL_Driver/Src/stm32f4xx_ll_usb.c ****     USBx->DIEPTXF0_HNPTXFSIZ = (uint32_t)(((0x100U << 16) & USB_OTG_NPTXFD) | 0x200U);
1526:Drivers/STM32F4xx_HAL_Driver/Src/stm32f4xx_ll_usb.c ****     USBx->HPTXFSIZ = (uint32_t)(((0xE0U << 16) & USB_OTG_HPTXFSIZ_PTXFD) | 0x300U);
1527:Drivers/STM32F4xx_HAL_Driver/Src/stm32f4xx_ll_usb.c ****   }
1528:Drivers/STM32F4xx_HAL_Driver/Src/stm32f4xx_ll_usb.c ****   else
1529:Drivers/STM32F4xx_HAL_Driver/Src/stm32f4xx_ll_usb.c **** #endif /* defined (USB_OTG_HS) */
1530:Drivers/STM32F4xx_HAL_Driver/Src/stm32f4xx_ll_usb.c ****   {
1531:Drivers/STM32F4xx_HAL_Driver/Src/stm32f4xx_ll_usb.c ****     /* set Rx FIFO size */
1532:Drivers/STM32F4xx_HAL_Driver/Src/stm32f4xx_ll_usb.c ****     USBx->GRXFSIZ  = 0x80U;
 3641              		.loc 1 1532 5 is_stmt 1 view .LVU1238
 3642              		.loc 1 1532 20 is_stmt 0 view .LVU1239
 3643 009c 8023     		movs	r3, #128
 3644 009e 6362     		str	r3, [r4, #36]
1533:Drivers/STM32F4xx_HAL_Driver/Src/stm32f4xx_ll_usb.c ****     USBx->DIEPTXF0_HNPTXFSIZ = (uint32_t)(((0x60U << 16) & USB_OTG_NPTXFD) | 0x80U);
 3645              		.loc 1 1533 5 is_stmt 1 view .LVU1240
ARM GAS  C:\Users\marci\AppData\Local\Temp\ccNtE0Aw.s 			page 111


 3646              		.loc 1 1533 30 is_stmt 0 view .LVU1241
 3647 00a0 03F5C003 		add	r3, r3, #6291456
 3648 00a4 A362     		str	r3, [r4, #40]
1534:Drivers/STM32F4xx_HAL_Driver/Src/stm32f4xx_ll_usb.c ****     USBx->HPTXFSIZ = (uint32_t)(((0x40U << 16)& USB_OTG_HPTXFSIZ_PTXFD) | 0xE0U);
 3649              		.loc 1 1534 5 is_stmt 1 view .LVU1242
 3650              		.loc 1 1534 20 is_stmt 0 view .LVU1243
 3651 00a6 094B     		ldr	r3, .L231
 3652 00a8 C4F80031 		str	r3, [r4, #256]
1535:Drivers/STM32F4xx_HAL_Driver/Src/stm32f4xx_ll_usb.c ****   }
1536:Drivers/STM32F4xx_HAL_Driver/Src/stm32f4xx_ll_usb.c **** 
1537:Drivers/STM32F4xx_HAL_Driver/Src/stm32f4xx_ll_usb.c ****   /* Enable the common interrupts */
1538:Drivers/STM32F4xx_HAL_Driver/Src/stm32f4xx_ll_usb.c ****   if (cfg.dma_enable == 0U)
 3653              		.loc 1 1538 3 is_stmt 1 view .LVU1244
 3654              		.loc 1 1538 10 is_stmt 0 view .LVU1245
 3655 00ac 9DF81630 		ldrb	r3, [sp, #22]	@ zero_extendqisi2
 3656              		.loc 1 1538 6 view .LVU1246
 3657 00b0 1BB9     		cbnz	r3, .L226
1539:Drivers/STM32F4xx_HAL_Driver/Src/stm32f4xx_ll_usb.c ****   {
1540:Drivers/STM32F4xx_HAL_Driver/Src/stm32f4xx_ll_usb.c ****     USBx->GINTMSK |= USB_OTG_GINTMSK_RXFLVLM;
 3658              		.loc 1 1540 5 is_stmt 1 view .LVU1247
 3659              		.loc 1 1540 9 is_stmt 0 view .LVU1248
 3660 00b2 A369     		ldr	r3, [r4, #24]
 3661              		.loc 1 1540 19 view .LVU1249
 3662 00b4 43F01003 		orr	r3, r3, #16
 3663 00b8 A361     		str	r3, [r4, #24]
 3664              	.L226:
1541:Drivers/STM32F4xx_HAL_Driver/Src/stm32f4xx_ll_usb.c ****   }
1542:Drivers/STM32F4xx_HAL_Driver/Src/stm32f4xx_ll_usb.c **** 
1543:Drivers/STM32F4xx_HAL_Driver/Src/stm32f4xx_ll_usb.c ****   /* Enable interrupts matching to the Host mode ONLY */
1544:Drivers/STM32F4xx_HAL_Driver/Src/stm32f4xx_ll_usb.c ****   USBx->GINTMSK |= (USB_OTG_GINTMSK_PRTIM            | USB_OTG_GINTMSK_HCIM | \
 3665              		.loc 1 1544 3 is_stmt 1 view .LVU1250
 3666              		.loc 1 1544 7 is_stmt 0 view .LVU1251
 3667 00ba A269     		ldr	r2, [r4, #24]
 3668              	.LVL276:
 3669              		.loc 1 1544 17 view .LVU1252
 3670 00bc 044B     		ldr	r3, .L231+4
 3671 00be 1343     		orrs	r3, r3, r2
 3672 00c0 A361     		str	r3, [r4, #24]
1545:Drivers/STM32F4xx_HAL_Driver/Src/stm32f4xx_ll_usb.c ****                     USB_OTG_GINTMSK_SOFM             | USB_OTG_GINTSTS_DISCINT | \
1546:Drivers/STM32F4xx_HAL_Driver/Src/stm32f4xx_ll_usb.c ****                     USB_OTG_GINTMSK_PXFRM_IISOOXFRM  | USB_OTG_GINTMSK_WUIM);
1547:Drivers/STM32F4xx_HAL_Driver/Src/stm32f4xx_ll_usb.c **** 
1548:Drivers/STM32F4xx_HAL_Driver/Src/stm32f4xx_ll_usb.c ****   return ret;
 3673              		.loc 1 1548 3 is_stmt 1 view .LVU1253
1549:Drivers/STM32F4xx_HAL_Driver/Src/stm32f4xx_ll_usb.c **** }
 3674              		.loc 1 1549 1 is_stmt 0 view .LVU1254
 3675 00c2 2846     		mov	r0, r5
 3676 00c4 BDE83840 		pop	{r3, r4, r5, lr}
 3677              	.LCFI42:
 3678              		.cfi_restore 14
 3679              		.cfi_restore 5
 3680              		.cfi_restore 4
 3681              		.cfi_restore 3
 3682              		.cfi_def_cfa_offset 16
 3683              	.LVL277:
 3684              		.loc 1 1549 1 view .LVU1255
 3685 00c8 04B0     		add	sp, sp, #16
 3686              	.LCFI43:
ARM GAS  C:\Users\marci\AppData\Local\Temp\ccNtE0Aw.s 			page 112


 3687              		.cfi_def_cfa_offset 0
 3688 00ca 7047     		bx	lr
 3689              	.L232:
 3690              		.align	2
 3691              	.L231:
 3692 00cc E0004000 		.word	4194528
 3693 00d0 080020A3 		.word	-1558183928
 3694              		.cfi_endproc
 3695              	.LFE169:
 3697              		.section	.text.USB_InitFSLSPClkSel,"ax",%progbits
 3698              		.align	1
 3699              		.global	USB_InitFSLSPClkSel
 3700              		.syntax unified
 3701              		.thumb
 3702              		.thumb_func
 3704              	USB_InitFSLSPClkSel:
 3705              	.LVL278:
 3706              	.LFB170:
1550:Drivers/STM32F4xx_HAL_Driver/Src/stm32f4xx_ll_usb.c **** 
1551:Drivers/STM32F4xx_HAL_Driver/Src/stm32f4xx_ll_usb.c **** /**
1552:Drivers/STM32F4xx_HAL_Driver/Src/stm32f4xx_ll_usb.c ****   * @brief  USB_InitFSLSPClkSel : Initializes the FSLSPClkSel field of the
1553:Drivers/STM32F4xx_HAL_Driver/Src/stm32f4xx_ll_usb.c ****   *         HCFG register on the PHY type and set the right frame interval
1554:Drivers/STM32F4xx_HAL_Driver/Src/stm32f4xx_ll_usb.c ****   * @param  USBx  Selected device
1555:Drivers/STM32F4xx_HAL_Driver/Src/stm32f4xx_ll_usb.c ****   * @param  freq  clock frequency
1556:Drivers/STM32F4xx_HAL_Driver/Src/stm32f4xx_ll_usb.c ****   *          This parameter can be one of these values:
1557:Drivers/STM32F4xx_HAL_Driver/Src/stm32f4xx_ll_usb.c ****   *           HCFG_48_MHZ : Full Speed 48 MHz Clock
1558:Drivers/STM32F4xx_HAL_Driver/Src/stm32f4xx_ll_usb.c ****   *           HCFG_6_MHZ : Low Speed 6 MHz Clock
1559:Drivers/STM32F4xx_HAL_Driver/Src/stm32f4xx_ll_usb.c ****   * @retval HAL status
1560:Drivers/STM32F4xx_HAL_Driver/Src/stm32f4xx_ll_usb.c ****   */
1561:Drivers/STM32F4xx_HAL_Driver/Src/stm32f4xx_ll_usb.c **** HAL_StatusTypeDef USB_InitFSLSPClkSel(const USB_OTG_GlobalTypeDef *USBx, uint8_t freq)
1562:Drivers/STM32F4xx_HAL_Driver/Src/stm32f4xx_ll_usb.c **** {
 3707              		.loc 1 1562 1 is_stmt 1 view -0
 3708              		.cfi_startproc
 3709              		@ args = 0, pretend = 0, frame = 0
 3710              		@ frame_needed = 0, uses_anonymous_args = 0
 3711              		@ link register save eliminated.
1563:Drivers/STM32F4xx_HAL_Driver/Src/stm32f4xx_ll_usb.c ****   uint32_t USBx_BASE = (uint32_t)USBx;
 3712              		.loc 1 1563 3 view .LVU1257
1564:Drivers/STM32F4xx_HAL_Driver/Src/stm32f4xx_ll_usb.c **** 
1565:Drivers/STM32F4xx_HAL_Driver/Src/stm32f4xx_ll_usb.c ****   USBx_HOST->HCFG &= ~(USB_OTG_HCFG_FSLSPCS);
 3713              		.loc 1 1565 3 view .LVU1258
 3714              		.loc 1 1565 12 is_stmt 0 view .LVU1259
 3715 0000 00F5806C 		add	ip, r0, #1024
 3716 0004 D0F80034 		ldr	r3, [r0, #1024]
 3717              		.loc 1 1565 19 view .LVU1260
 3718 0008 23F00303 		bic	r3, r3, #3
 3719 000c C0F80034 		str	r3, [r0, #1024]
1566:Drivers/STM32F4xx_HAL_Driver/Src/stm32f4xx_ll_usb.c ****   USBx_HOST->HCFG |= (uint32_t)freq & USB_OTG_HCFG_FSLSPCS;
 3720              		.loc 1 1566 3 is_stmt 1 view .LVU1261
 3721              		.loc 1 1566 12 is_stmt 0 view .LVU1262
 3722 0010 D0F80034 		ldr	r3, [r0, #1024]
 3723              		.loc 1 1566 37 view .LVU1263
 3724 0014 01F00302 		and	r2, r1, #3
 3725              		.loc 1 1566 19 view .LVU1264
 3726 0018 1343     		orrs	r3, r3, r2
 3727 001a C0F80034 		str	r3, [r0, #1024]
1567:Drivers/STM32F4xx_HAL_Driver/Src/stm32f4xx_ll_usb.c **** 
ARM GAS  C:\Users\marci\AppData\Local\Temp\ccNtE0Aw.s 			page 113


1568:Drivers/STM32F4xx_HAL_Driver/Src/stm32f4xx_ll_usb.c ****   if (freq == HCFG_48_MHZ)
 3728              		.loc 1 1568 3 is_stmt 1 view .LVU1265
 3729              		.loc 1 1568 6 is_stmt 0 view .LVU1266
 3730 001e 0129     		cmp	r1, #1
 3731 0020 07D0     		beq	.L237
1569:Drivers/STM32F4xx_HAL_Driver/Src/stm32f4xx_ll_usb.c ****   {
1570:Drivers/STM32F4xx_HAL_Driver/Src/stm32f4xx_ll_usb.c ****     USBx_HOST->HFIR = HFIR_48_MHZ;
1571:Drivers/STM32F4xx_HAL_Driver/Src/stm32f4xx_ll_usb.c ****   }
1572:Drivers/STM32F4xx_HAL_Driver/Src/stm32f4xx_ll_usb.c ****   else if (freq == HCFG_6_MHZ)
 3732              		.loc 1 1572 8 is_stmt 1 view .LVU1267
 3733              		.loc 1 1572 11 is_stmt 0 view .LVU1268
 3734 0022 0229     		cmp	r1, #2
 3735 0024 0BD1     		bne	.L236
1573:Drivers/STM32F4xx_HAL_Driver/Src/stm32f4xx_ll_usb.c ****   {
1574:Drivers/STM32F4xx_HAL_Driver/Src/stm32f4xx_ll_usb.c ****     USBx_HOST->HFIR = HFIR_6_MHZ;
 3736              		.loc 1 1574 5 is_stmt 1 view .LVU1269
 3737              		.loc 1 1574 21 is_stmt 0 view .LVU1270
 3738 0026 41F27073 		movw	r3, #6000
 3739 002a CCF80430 		str	r3, [ip, #4]
1575:Drivers/STM32F4xx_HAL_Driver/Src/stm32f4xx_ll_usb.c ****   }
1576:Drivers/STM32F4xx_HAL_Driver/Src/stm32f4xx_ll_usb.c ****   else
1577:Drivers/STM32F4xx_HAL_Driver/Src/stm32f4xx_ll_usb.c ****   {
1578:Drivers/STM32F4xx_HAL_Driver/Src/stm32f4xx_ll_usb.c ****     return HAL_ERROR;
1579:Drivers/STM32F4xx_HAL_Driver/Src/stm32f4xx_ll_usb.c ****   }
1580:Drivers/STM32F4xx_HAL_Driver/Src/stm32f4xx_ll_usb.c **** 
1581:Drivers/STM32F4xx_HAL_Driver/Src/stm32f4xx_ll_usb.c ****   return HAL_OK;
 3740              		.loc 1 1581 10 view .LVU1271
 3741 002e 0020     		movs	r0, #0
 3742              	.LVL279:
 3743              		.loc 1 1581 10 view .LVU1272
 3744 0030 7047     		bx	lr
 3745              	.LVL280:
 3746              	.L237:
1570:Drivers/STM32F4xx_HAL_Driver/Src/stm32f4xx_ll_usb.c ****   }
 3747              		.loc 1 1570 5 is_stmt 1 view .LVU1273
1570:Drivers/STM32F4xx_HAL_Driver/Src/stm32f4xx_ll_usb.c ****   }
 3748              		.loc 1 1570 21 is_stmt 0 view .LVU1274
 3749 0032 4BF68033 		movw	r3, #48000
 3750 0036 CCF80430 		str	r3, [ip, #4]
 3751              		.loc 1 1581 10 view .LVU1275
 3752 003a 0020     		movs	r0, #0
 3753              	.LVL281:
 3754              		.loc 1 1581 10 view .LVU1276
 3755 003c 7047     		bx	lr
 3756              	.LVL282:
 3757              	.L236:
1578:Drivers/STM32F4xx_HAL_Driver/Src/stm32f4xx_ll_usb.c ****   }
 3758              		.loc 1 1578 12 view .LVU1277
 3759 003e 0120     		movs	r0, #1
 3760              	.LVL283:
1582:Drivers/STM32F4xx_HAL_Driver/Src/stm32f4xx_ll_usb.c **** }
 3761              		.loc 1 1582 1 view .LVU1278
 3762 0040 7047     		bx	lr
 3763              		.cfi_endproc
 3764              	.LFE170:
 3766              		.section	.text.USB_ResetPort,"ax",%progbits
 3767              		.align	1
ARM GAS  C:\Users\marci\AppData\Local\Temp\ccNtE0Aw.s 			page 114


 3768              		.global	USB_ResetPort
 3769              		.syntax unified
 3770              		.thumb
 3771              		.thumb_func
 3773              	USB_ResetPort:
 3774              	.LVL284:
 3775              	.LFB171:
1583:Drivers/STM32F4xx_HAL_Driver/Src/stm32f4xx_ll_usb.c **** 
1584:Drivers/STM32F4xx_HAL_Driver/Src/stm32f4xx_ll_usb.c **** /**
1585:Drivers/STM32F4xx_HAL_Driver/Src/stm32f4xx_ll_usb.c ****   * @brief  USB_OTG_ResetPort : Reset Host Port
1586:Drivers/STM32F4xx_HAL_Driver/Src/stm32f4xx_ll_usb.c ****   * @param  USBx  Selected device
1587:Drivers/STM32F4xx_HAL_Driver/Src/stm32f4xx_ll_usb.c ****   * @retval HAL status
1588:Drivers/STM32F4xx_HAL_Driver/Src/stm32f4xx_ll_usb.c ****   * @note (1)The application must wait at least 10 ms
1589:Drivers/STM32F4xx_HAL_Driver/Src/stm32f4xx_ll_usb.c ****   *   before clearing the reset bit.
1590:Drivers/STM32F4xx_HAL_Driver/Src/stm32f4xx_ll_usb.c ****   */
1591:Drivers/STM32F4xx_HAL_Driver/Src/stm32f4xx_ll_usb.c **** HAL_StatusTypeDef USB_ResetPort(const USB_OTG_GlobalTypeDef *USBx)
1592:Drivers/STM32F4xx_HAL_Driver/Src/stm32f4xx_ll_usb.c **** {
 3776              		.loc 1 1592 1 is_stmt 1 view -0
 3777              		.cfi_startproc
 3778              		@ args = 0, pretend = 0, frame = 8
 3779              		@ frame_needed = 0, uses_anonymous_args = 0
 3780              		.loc 1 1592 1 is_stmt 0 view .LVU1280
 3781 0000 30B5     		push	{r4, r5, lr}
 3782              	.LCFI44:
 3783              		.cfi_def_cfa_offset 12
 3784              		.cfi_offset 4, -12
 3785              		.cfi_offset 5, -8
 3786              		.cfi_offset 14, -4
 3787 0002 83B0     		sub	sp, sp, #12
 3788              	.LCFI45:
 3789              		.cfi_def_cfa_offset 24
 3790 0004 0446     		mov	r4, r0
1593:Drivers/STM32F4xx_HAL_Driver/Src/stm32f4xx_ll_usb.c ****   uint32_t USBx_BASE = (uint32_t)USBx;
 3791              		.loc 1 1593 3 is_stmt 1 view .LVU1281
 3792              	.LVL285:
1594:Drivers/STM32F4xx_HAL_Driver/Src/stm32f4xx_ll_usb.c **** 
1595:Drivers/STM32F4xx_HAL_Driver/Src/stm32f4xx_ll_usb.c ****   __IO uint32_t hprt0 = 0U;
 3793              		.loc 1 1595 3 view .LVU1282
 3794              		.loc 1 1595 17 is_stmt 0 view .LVU1283
 3795 0006 0025     		movs	r5, #0
 3796 0008 0195     		str	r5, [sp, #4]
1596:Drivers/STM32F4xx_HAL_Driver/Src/stm32f4xx_ll_usb.c **** 
1597:Drivers/STM32F4xx_HAL_Driver/Src/stm32f4xx_ll_usb.c ****   hprt0 = USBx_HPRT0;
 3797              		.loc 1 1597 3 is_stmt 1 view .LVU1284
 3798              		.loc 1 1597 11 is_stmt 0 view .LVU1285
 3799 000a D0F84034 		ldr	r3, [r0, #1088]
 3800              		.loc 1 1597 9 view .LVU1286
 3801 000e 0193     		str	r3, [sp, #4]
1598:Drivers/STM32F4xx_HAL_Driver/Src/stm32f4xx_ll_usb.c **** 
1599:Drivers/STM32F4xx_HAL_Driver/Src/stm32f4xx_ll_usb.c ****   hprt0 &= ~(USB_OTG_HPRT_PENA | USB_OTG_HPRT_PCDET |
 3802              		.loc 1 1599 3 is_stmt 1 view .LVU1287
 3803              		.loc 1 1599 9 is_stmt 0 view .LVU1288
 3804 0010 019B     		ldr	r3, [sp, #4]
 3805 0012 23F02E03 		bic	r3, r3, #46
 3806 0016 0193     		str	r3, [sp, #4]
1600:Drivers/STM32F4xx_HAL_Driver/Src/stm32f4xx_ll_usb.c ****              USB_OTG_HPRT_PENCHNG | USB_OTG_HPRT_POCCHNG);
1601:Drivers/STM32F4xx_HAL_Driver/Src/stm32f4xx_ll_usb.c **** 
ARM GAS  C:\Users\marci\AppData\Local\Temp\ccNtE0Aw.s 			page 115


1602:Drivers/STM32F4xx_HAL_Driver/Src/stm32f4xx_ll_usb.c ****   USBx_HPRT0 = (USB_OTG_HPRT_PRST | hprt0);
 3807              		.loc 1 1602 3 is_stmt 1 view .LVU1289
 3808              		.loc 1 1602 35 is_stmt 0 view .LVU1290
 3809 0018 019B     		ldr	r3, [sp, #4]
 3810 001a 43F48073 		orr	r3, r3, #256
 3811              		.loc 1 1602 14 view .LVU1291
 3812 001e C0F84034 		str	r3, [r0, #1088]
1603:Drivers/STM32F4xx_HAL_Driver/Src/stm32f4xx_ll_usb.c ****   HAL_Delay(100U);                                 /* See Note #1 */
 3813              		.loc 1 1603 3 is_stmt 1 view .LVU1292
 3814 0022 6420     		movs	r0, #100
 3815              	.LVL286:
 3816              		.loc 1 1603 3 is_stmt 0 view .LVU1293
 3817 0024 FFF7FEFF 		bl	HAL_Delay
 3818              	.LVL287:
1604:Drivers/STM32F4xx_HAL_Driver/Src/stm32f4xx_ll_usb.c ****   USBx_HPRT0 = ((~USB_OTG_HPRT_PRST) & hprt0);
 3819              		.loc 1 1604 3 is_stmt 1 view .LVU1294
 3820              		.loc 1 1604 38 is_stmt 0 view .LVU1295
 3821 0028 019B     		ldr	r3, [sp, #4]
 3822 002a 23F48073 		bic	r3, r3, #256
 3823              		.loc 1 1604 14 view .LVU1296
 3824 002e C4F84034 		str	r3, [r4, #1088]
1605:Drivers/STM32F4xx_HAL_Driver/Src/stm32f4xx_ll_usb.c ****   HAL_Delay(10U);
 3825              		.loc 1 1605 3 is_stmt 1 view .LVU1297
 3826 0032 0A20     		movs	r0, #10
 3827 0034 FFF7FEFF 		bl	HAL_Delay
 3828              	.LVL288:
1606:Drivers/STM32F4xx_HAL_Driver/Src/stm32f4xx_ll_usb.c **** 
1607:Drivers/STM32F4xx_HAL_Driver/Src/stm32f4xx_ll_usb.c ****   return HAL_OK;
 3829              		.loc 1 1607 3 view .LVU1298
1608:Drivers/STM32F4xx_HAL_Driver/Src/stm32f4xx_ll_usb.c **** }
 3830              		.loc 1 1608 1 is_stmt 0 view .LVU1299
 3831 0038 2846     		mov	r0, r5
 3832 003a 03B0     		add	sp, sp, #12
 3833              	.LCFI46:
 3834              		.cfi_def_cfa_offset 12
 3835              		@ sp needed
 3836 003c 30BD     		pop	{r4, r5, pc}
 3837              		.loc 1 1608 1 view .LVU1300
 3838              		.cfi_endproc
 3839              	.LFE171:
 3841              		.section	.text.USB_DriveVbus,"ax",%progbits
 3842              		.align	1
 3843              		.global	USB_DriveVbus
 3844              		.syntax unified
 3845              		.thumb
 3846              		.thumb_func
 3848              	USB_DriveVbus:
 3849              	.LVL289:
 3850              	.LFB172:
1609:Drivers/STM32F4xx_HAL_Driver/Src/stm32f4xx_ll_usb.c **** 
1610:Drivers/STM32F4xx_HAL_Driver/Src/stm32f4xx_ll_usb.c **** /**
1611:Drivers/STM32F4xx_HAL_Driver/Src/stm32f4xx_ll_usb.c ****   * @brief  USB_DriveVbus : activate or de-activate vbus
1612:Drivers/STM32F4xx_HAL_Driver/Src/stm32f4xx_ll_usb.c ****   * @param  state  VBUS state
1613:Drivers/STM32F4xx_HAL_Driver/Src/stm32f4xx_ll_usb.c ****   *          This parameter can be one of these values:
1614:Drivers/STM32F4xx_HAL_Driver/Src/stm32f4xx_ll_usb.c ****   *           0 : Deactivate VBUS
1615:Drivers/STM32F4xx_HAL_Driver/Src/stm32f4xx_ll_usb.c ****   *           1 : Activate VBUS
1616:Drivers/STM32F4xx_HAL_Driver/Src/stm32f4xx_ll_usb.c ****   * @retval HAL status
ARM GAS  C:\Users\marci\AppData\Local\Temp\ccNtE0Aw.s 			page 116


1617:Drivers/STM32F4xx_HAL_Driver/Src/stm32f4xx_ll_usb.c ****   */
1618:Drivers/STM32F4xx_HAL_Driver/Src/stm32f4xx_ll_usb.c **** HAL_StatusTypeDef USB_DriveVbus(const USB_OTG_GlobalTypeDef *USBx, uint8_t state)
1619:Drivers/STM32F4xx_HAL_Driver/Src/stm32f4xx_ll_usb.c **** {
 3851              		.loc 1 1619 1 is_stmt 1 view -0
 3852              		.cfi_startproc
 3853              		@ args = 0, pretend = 0, frame = 8
 3854              		@ frame_needed = 0, uses_anonymous_args = 0
 3855              		@ link register save eliminated.
 3856              		.loc 1 1619 1 is_stmt 0 view .LVU1302
 3857 0000 82B0     		sub	sp, sp, #8
 3858              	.LCFI47:
 3859              		.cfi_def_cfa_offset 8
1620:Drivers/STM32F4xx_HAL_Driver/Src/stm32f4xx_ll_usb.c ****   uint32_t USBx_BASE = (uint32_t)USBx;
 3860              		.loc 1 1620 3 is_stmt 1 view .LVU1303
 3861              	.LVL290:
1621:Drivers/STM32F4xx_HAL_Driver/Src/stm32f4xx_ll_usb.c ****   __IO uint32_t hprt0 = 0U;
 3862              		.loc 1 1621 3 view .LVU1304
 3863              		.loc 1 1621 17 is_stmt 0 view .LVU1305
 3864 0002 0023     		movs	r3, #0
 3865 0004 0193     		str	r3, [sp, #4]
1622:Drivers/STM32F4xx_HAL_Driver/Src/stm32f4xx_ll_usb.c **** 
1623:Drivers/STM32F4xx_HAL_Driver/Src/stm32f4xx_ll_usb.c ****   hprt0 = USBx_HPRT0;
 3866              		.loc 1 1623 3 is_stmt 1 view .LVU1306
 3867              		.loc 1 1623 11 is_stmt 0 view .LVU1307
 3868 0006 D0F84034 		ldr	r3, [r0, #1088]
 3869              		.loc 1 1623 9 view .LVU1308
 3870 000a 0193     		str	r3, [sp, #4]
1624:Drivers/STM32F4xx_HAL_Driver/Src/stm32f4xx_ll_usb.c **** 
1625:Drivers/STM32F4xx_HAL_Driver/Src/stm32f4xx_ll_usb.c ****   hprt0 &= ~(USB_OTG_HPRT_PENA | USB_OTG_HPRT_PCDET |
 3871              		.loc 1 1625 3 is_stmt 1 view .LVU1309
 3872              		.loc 1 1625 9 is_stmt 0 view .LVU1310
 3873 000c 019B     		ldr	r3, [sp, #4]
 3874 000e 23F02E03 		bic	r3, r3, #46
 3875 0012 0193     		str	r3, [sp, #4]
1626:Drivers/STM32F4xx_HAL_Driver/Src/stm32f4xx_ll_usb.c ****              USB_OTG_HPRT_PENCHNG | USB_OTG_HPRT_POCCHNG);
1627:Drivers/STM32F4xx_HAL_Driver/Src/stm32f4xx_ll_usb.c **** 
1628:Drivers/STM32F4xx_HAL_Driver/Src/stm32f4xx_ll_usb.c ****   if (((hprt0 & USB_OTG_HPRT_PPWR) == 0U) && (state == 1U))
 3876              		.loc 1 1628 3 is_stmt 1 view .LVU1311
 3877              		.loc 1 1628 15 is_stmt 0 view .LVU1312
 3878 0014 019B     		ldr	r3, [sp, #4]
 3879              		.loc 1 1628 6 view .LVU1313
 3880 0016 13F4805F 		tst	r3, #4096
 3881 001a 01D1     		bne	.L241
 3882              		.loc 1 1628 43 discriminator 1 view .LVU1314
 3883 001c 0129     		cmp	r1, #1
 3884 001e 0CD0     		beq	.L244
 3885              	.L241:
1629:Drivers/STM32F4xx_HAL_Driver/Src/stm32f4xx_ll_usb.c ****   {
1630:Drivers/STM32F4xx_HAL_Driver/Src/stm32f4xx_ll_usb.c ****     USBx_HPRT0 = (USB_OTG_HPRT_PPWR | hprt0);
1631:Drivers/STM32F4xx_HAL_Driver/Src/stm32f4xx_ll_usb.c ****   }
1632:Drivers/STM32F4xx_HAL_Driver/Src/stm32f4xx_ll_usb.c ****   if (((hprt0 & USB_OTG_HPRT_PPWR) == USB_OTG_HPRT_PPWR) && (state == 0U))
 3886              		.loc 1 1632 3 is_stmt 1 view .LVU1315
 3887              		.loc 1 1632 15 is_stmt 0 view .LVU1316
 3888 0020 019B     		ldr	r3, [sp, #4]
 3889              		.loc 1 1632 6 view .LVU1317
 3890 0022 13F4805F 		tst	r3, #4096
 3891 0026 05D0     		beq	.L242
ARM GAS  C:\Users\marci\AppData\Local\Temp\ccNtE0Aw.s 			page 117


 3892              		.loc 1 1632 58 discriminator 1 view .LVU1318
 3893 0028 21B9     		cbnz	r1, .L242
1633:Drivers/STM32F4xx_HAL_Driver/Src/stm32f4xx_ll_usb.c ****   {
1634:Drivers/STM32F4xx_HAL_Driver/Src/stm32f4xx_ll_usb.c ****     USBx_HPRT0 = ((~USB_OTG_HPRT_PPWR) & hprt0);
 3894              		.loc 1 1634 5 is_stmt 1 view .LVU1319
 3895              		.loc 1 1634 40 is_stmt 0 view .LVU1320
 3896 002a 019B     		ldr	r3, [sp, #4]
 3897 002c 23F48053 		bic	r3, r3, #4096
 3898              		.loc 1 1634 16 view .LVU1321
 3899 0030 C0F84034 		str	r3, [r0, #1088]
 3900              	.L242:
1635:Drivers/STM32F4xx_HAL_Driver/Src/stm32f4xx_ll_usb.c ****   }
1636:Drivers/STM32F4xx_HAL_Driver/Src/stm32f4xx_ll_usb.c ****   return HAL_OK;
 3901              		.loc 1 1636 3 is_stmt 1 view .LVU1322
1637:Drivers/STM32F4xx_HAL_Driver/Src/stm32f4xx_ll_usb.c **** }
 3902              		.loc 1 1637 1 is_stmt 0 view .LVU1323
 3903 0034 0020     		movs	r0, #0
 3904              	.LVL291:
 3905              		.loc 1 1637 1 view .LVU1324
 3906 0036 02B0     		add	sp, sp, #8
 3907              	.LCFI48:
 3908              		.cfi_remember_state
 3909              		.cfi_def_cfa_offset 0
 3910              		@ sp needed
 3911 0038 7047     		bx	lr
 3912              	.LVL292:
 3913              	.L244:
 3914              	.LCFI49:
 3915              		.cfi_restore_state
1630:Drivers/STM32F4xx_HAL_Driver/Src/stm32f4xx_ll_usb.c ****   }
 3916              		.loc 1 1630 5 is_stmt 1 view .LVU1325
1630:Drivers/STM32F4xx_HAL_Driver/Src/stm32f4xx_ll_usb.c ****   }
 3917              		.loc 1 1630 37 is_stmt 0 view .LVU1326
 3918 003a 019B     		ldr	r3, [sp, #4]
 3919 003c 43F48053 		orr	r3, r3, #4096
1630:Drivers/STM32F4xx_HAL_Driver/Src/stm32f4xx_ll_usb.c ****   }
 3920              		.loc 1 1630 16 view .LVU1327
 3921 0040 C0F84034 		str	r3, [r0, #1088]
 3922 0044 ECE7     		b	.L241
 3923              		.cfi_endproc
 3924              	.LFE172:
 3926              		.section	.text.USB_GetHostSpeed,"ax",%progbits
 3927              		.align	1
 3928              		.global	USB_GetHostSpeed
 3929              		.syntax unified
 3930              		.thumb
 3931              		.thumb_func
 3933              	USB_GetHostSpeed:
 3934              	.LVL293:
 3935              	.LFB173:
1638:Drivers/STM32F4xx_HAL_Driver/Src/stm32f4xx_ll_usb.c **** 
1639:Drivers/STM32F4xx_HAL_Driver/Src/stm32f4xx_ll_usb.c **** /**
1640:Drivers/STM32F4xx_HAL_Driver/Src/stm32f4xx_ll_usb.c ****   * @brief  Return Host Core speed
1641:Drivers/STM32F4xx_HAL_Driver/Src/stm32f4xx_ll_usb.c ****   * @param  USBx  Selected device
1642:Drivers/STM32F4xx_HAL_Driver/Src/stm32f4xx_ll_usb.c ****   * @retval speed : Host speed
1643:Drivers/STM32F4xx_HAL_Driver/Src/stm32f4xx_ll_usb.c ****   *          This parameter can be one of these values:
1644:Drivers/STM32F4xx_HAL_Driver/Src/stm32f4xx_ll_usb.c ****   *            @arg HCD_SPEED_HIGH: High speed mode
ARM GAS  C:\Users\marci\AppData\Local\Temp\ccNtE0Aw.s 			page 118


1645:Drivers/STM32F4xx_HAL_Driver/Src/stm32f4xx_ll_usb.c ****   *            @arg HCD_SPEED_FULL: Full speed mode
1646:Drivers/STM32F4xx_HAL_Driver/Src/stm32f4xx_ll_usb.c ****   *            @arg HCD_SPEED_LOW: Low speed mode
1647:Drivers/STM32F4xx_HAL_Driver/Src/stm32f4xx_ll_usb.c ****   */
1648:Drivers/STM32F4xx_HAL_Driver/Src/stm32f4xx_ll_usb.c **** uint32_t USB_GetHostSpeed(USB_OTG_GlobalTypeDef const *USBx)
1649:Drivers/STM32F4xx_HAL_Driver/Src/stm32f4xx_ll_usb.c **** {
 3936              		.loc 1 1649 1 is_stmt 1 view -0
 3937              		.cfi_startproc
 3938              		@ args = 0, pretend = 0, frame = 8
 3939              		@ frame_needed = 0, uses_anonymous_args = 0
 3940              		@ link register save eliminated.
 3941              		.loc 1 1649 1 is_stmt 0 view .LVU1329
 3942 0000 82B0     		sub	sp, sp, #8
 3943              	.LCFI50:
 3944              		.cfi_def_cfa_offset 8
1650:Drivers/STM32F4xx_HAL_Driver/Src/stm32f4xx_ll_usb.c ****   uint32_t USBx_BASE = (uint32_t)USBx;
 3945              		.loc 1 1650 3 is_stmt 1 view .LVU1330
 3946              	.LVL294:
1651:Drivers/STM32F4xx_HAL_Driver/Src/stm32f4xx_ll_usb.c ****   __IO uint32_t hprt0 = 0U;
 3947              		.loc 1 1651 3 view .LVU1331
 3948              		.loc 1 1651 17 is_stmt 0 view .LVU1332
 3949 0002 0023     		movs	r3, #0
 3950 0004 0193     		str	r3, [sp, #4]
1652:Drivers/STM32F4xx_HAL_Driver/Src/stm32f4xx_ll_usb.c **** 
1653:Drivers/STM32F4xx_HAL_Driver/Src/stm32f4xx_ll_usb.c ****   hprt0 = USBx_HPRT0;
 3951              		.loc 1 1653 3 is_stmt 1 view .LVU1333
 3952              		.loc 1 1653 11 is_stmt 0 view .LVU1334
 3953 0006 D0F84034 		ldr	r3, [r0, #1088]
 3954              		.loc 1 1653 9 view .LVU1335
 3955 000a 0193     		str	r3, [sp, #4]
1654:Drivers/STM32F4xx_HAL_Driver/Src/stm32f4xx_ll_usb.c ****   return ((hprt0 & USB_OTG_HPRT_PSPD) >> 17);
 3956              		.loc 1 1654 3 is_stmt 1 view .LVU1336
 3957              		.loc 1 1654 39 is_stmt 0 view .LVU1337
 3958 000c 0198     		ldr	r0, [sp, #4]
 3959              	.LVL295:
1655:Drivers/STM32F4xx_HAL_Driver/Src/stm32f4xx_ll_usb.c **** }
 3960              		.loc 1 1655 1 view .LVU1338
 3961 000e C0F34140 		ubfx	r0, r0, #17, #2
 3962 0012 02B0     		add	sp, sp, #8
 3963              	.LCFI51:
 3964              		.cfi_def_cfa_offset 0
 3965              		@ sp needed
 3966 0014 7047     		bx	lr
 3967              		.cfi_endproc
 3968              	.LFE173:
 3970              		.section	.text.USB_GetCurrentFrame,"ax",%progbits
 3971              		.align	1
 3972              		.global	USB_GetCurrentFrame
 3973              		.syntax unified
 3974              		.thumb
 3975              		.thumb_func
 3977              	USB_GetCurrentFrame:
 3978              	.LVL296:
 3979              	.LFB174:
1656:Drivers/STM32F4xx_HAL_Driver/Src/stm32f4xx_ll_usb.c **** 
1657:Drivers/STM32F4xx_HAL_Driver/Src/stm32f4xx_ll_usb.c **** /**
1658:Drivers/STM32F4xx_HAL_Driver/Src/stm32f4xx_ll_usb.c ****   * @brief  Return Host Current Frame number
1659:Drivers/STM32F4xx_HAL_Driver/Src/stm32f4xx_ll_usb.c ****   * @param  USBx  Selected device
ARM GAS  C:\Users\marci\AppData\Local\Temp\ccNtE0Aw.s 			page 119


1660:Drivers/STM32F4xx_HAL_Driver/Src/stm32f4xx_ll_usb.c ****   * @retval current frame number
1661:Drivers/STM32F4xx_HAL_Driver/Src/stm32f4xx_ll_usb.c ****   */
1662:Drivers/STM32F4xx_HAL_Driver/Src/stm32f4xx_ll_usb.c **** uint32_t USB_GetCurrentFrame(USB_OTG_GlobalTypeDef const *USBx)
1663:Drivers/STM32F4xx_HAL_Driver/Src/stm32f4xx_ll_usb.c **** {
 3980              		.loc 1 1663 1 is_stmt 1 view -0
 3981              		.cfi_startproc
 3982              		@ args = 0, pretend = 0, frame = 0
 3983              		@ frame_needed = 0, uses_anonymous_args = 0
 3984              		@ link register save eliminated.
1664:Drivers/STM32F4xx_HAL_Driver/Src/stm32f4xx_ll_usb.c ****   uint32_t USBx_BASE = (uint32_t)USBx;
 3985              		.loc 1 1664 3 view .LVU1340
1665:Drivers/STM32F4xx_HAL_Driver/Src/stm32f4xx_ll_usb.c **** 
1666:Drivers/STM32F4xx_HAL_Driver/Src/stm32f4xx_ll_usb.c ****   return (USBx_HOST->HFNUM & USB_OTG_HFNUM_FRNUM);
 3986              		.loc 1 1666 3 view .LVU1341
 3987              		.loc 1 1666 11 is_stmt 0 view .LVU1342
 3988 0000 00F58060 		add	r0, r0, #1024
 3989              	.LVL297:
 3990              		.loc 1 1666 20 view .LVU1343
 3991 0004 8068     		ldr	r0, [r0, #8]
 3992              	.LVL298:
1667:Drivers/STM32F4xx_HAL_Driver/Src/stm32f4xx_ll_usb.c **** }
 3993              		.loc 1 1667 1 view .LVU1344
 3994 0006 80B2     		uxth	r0, r0
 3995 0008 7047     		bx	lr
 3996              		.cfi_endproc
 3997              	.LFE174:
 3999              		.section	.text.USB_HC_Init,"ax",%progbits
 4000              		.align	1
 4001              		.global	USB_HC_Init
 4002              		.syntax unified
 4003              		.thumb
 4004              		.thumb_func
 4006              	USB_HC_Init:
 4007              	.LVL299:
 4008              	.LFB175:
1668:Drivers/STM32F4xx_HAL_Driver/Src/stm32f4xx_ll_usb.c **** 
1669:Drivers/STM32F4xx_HAL_Driver/Src/stm32f4xx_ll_usb.c **** /**
1670:Drivers/STM32F4xx_HAL_Driver/Src/stm32f4xx_ll_usb.c ****   * @brief  Initialize a host channel
1671:Drivers/STM32F4xx_HAL_Driver/Src/stm32f4xx_ll_usb.c ****   * @param  USBx  Selected device
1672:Drivers/STM32F4xx_HAL_Driver/Src/stm32f4xx_ll_usb.c ****   * @param  ch_num  Channel number
1673:Drivers/STM32F4xx_HAL_Driver/Src/stm32f4xx_ll_usb.c ****   *         This parameter can be a value from 1 to 15
1674:Drivers/STM32F4xx_HAL_Driver/Src/stm32f4xx_ll_usb.c ****   * @param  epnum  Endpoint number
1675:Drivers/STM32F4xx_HAL_Driver/Src/stm32f4xx_ll_usb.c ****   *          This parameter can be a value from 1 to 15
1676:Drivers/STM32F4xx_HAL_Driver/Src/stm32f4xx_ll_usb.c ****   * @param  dev_address  Current device address
1677:Drivers/STM32F4xx_HAL_Driver/Src/stm32f4xx_ll_usb.c ****   *          This parameter can be a value from 0 to 255
1678:Drivers/STM32F4xx_HAL_Driver/Src/stm32f4xx_ll_usb.c ****   * @param  speed  Current device speed
1679:Drivers/STM32F4xx_HAL_Driver/Src/stm32f4xx_ll_usb.c ****   *          This parameter can be one of these values:
1680:Drivers/STM32F4xx_HAL_Driver/Src/stm32f4xx_ll_usb.c ****   *            @arg USB_OTG_SPEED_HIGH: High speed mode
1681:Drivers/STM32F4xx_HAL_Driver/Src/stm32f4xx_ll_usb.c ****   *            @arg USB_OTG_SPEED_FULL: Full speed mode
1682:Drivers/STM32F4xx_HAL_Driver/Src/stm32f4xx_ll_usb.c ****   *            @arg USB_OTG_SPEED_LOW: Low speed mode
1683:Drivers/STM32F4xx_HAL_Driver/Src/stm32f4xx_ll_usb.c ****   * @param  ep_type  Endpoint Type
1684:Drivers/STM32F4xx_HAL_Driver/Src/stm32f4xx_ll_usb.c ****   *          This parameter can be one of these values:
1685:Drivers/STM32F4xx_HAL_Driver/Src/stm32f4xx_ll_usb.c ****   *            @arg EP_TYPE_CTRL: Control type
1686:Drivers/STM32F4xx_HAL_Driver/Src/stm32f4xx_ll_usb.c ****   *            @arg EP_TYPE_ISOC: Isochronous type
1687:Drivers/STM32F4xx_HAL_Driver/Src/stm32f4xx_ll_usb.c ****   *            @arg EP_TYPE_BULK: Bulk type
1688:Drivers/STM32F4xx_HAL_Driver/Src/stm32f4xx_ll_usb.c ****   *            @arg EP_TYPE_INTR: Interrupt type
1689:Drivers/STM32F4xx_HAL_Driver/Src/stm32f4xx_ll_usb.c ****   * @param  mps  Max Packet Size
ARM GAS  C:\Users\marci\AppData\Local\Temp\ccNtE0Aw.s 			page 120


1690:Drivers/STM32F4xx_HAL_Driver/Src/stm32f4xx_ll_usb.c ****   *          This parameter can be a value from 0 to 32K
1691:Drivers/STM32F4xx_HAL_Driver/Src/stm32f4xx_ll_usb.c ****   * @retval HAL state
1692:Drivers/STM32F4xx_HAL_Driver/Src/stm32f4xx_ll_usb.c ****   */
1693:Drivers/STM32F4xx_HAL_Driver/Src/stm32f4xx_ll_usb.c **** HAL_StatusTypeDef USB_HC_Init(USB_OTG_GlobalTypeDef *USBx, uint8_t ch_num,
1694:Drivers/STM32F4xx_HAL_Driver/Src/stm32f4xx_ll_usb.c ****                               uint8_t epnum, uint8_t dev_address, uint8_t speed,
1695:Drivers/STM32F4xx_HAL_Driver/Src/stm32f4xx_ll_usb.c ****                               uint8_t ep_type, uint16_t mps)
1696:Drivers/STM32F4xx_HAL_Driver/Src/stm32f4xx_ll_usb.c **** {
 4009              		.loc 1 1696 1 is_stmt 1 view -0
 4010              		.cfi_startproc
 4011              		@ args = 12, pretend = 0, frame = 0
 4012              		@ frame_needed = 0, uses_anonymous_args = 0
 4013              		.loc 1 1696 1 is_stmt 0 view .LVU1346
 4014 0000 2DE9F843 		push	{r3, r4, r5, r6, r7, r8, r9, lr}
 4015              	.LCFI52:
 4016              		.cfi_def_cfa_offset 32
 4017              		.cfi_offset 3, -32
 4018              		.cfi_offset 4, -28
 4019              		.cfi_offset 5, -24
 4020              		.cfi_offset 6, -20
 4021              		.cfi_offset 7, -16
 4022              		.cfi_offset 8, -12
 4023              		.cfi_offset 9, -8
 4024              		.cfi_offset 14, -4
 4025 0004 9146     		mov	r9, r2
 4026 0006 1C46     		mov	r4, r3
 4027 0008 9DF82450 		ldrb	r5, [sp, #36]	@ zero_extendqisi2
1697:Drivers/STM32F4xx_HAL_Driver/Src/stm32f4xx_ll_usb.c ****   HAL_StatusTypeDef ret = HAL_OK;
 4028              		.loc 1 1697 3 is_stmt 1 view .LVU1347
 4029              	.LVL300:
1698:Drivers/STM32F4xx_HAL_Driver/Src/stm32f4xx_ll_usb.c ****   uint32_t USBx_BASE = (uint32_t)USBx;
 4030              		.loc 1 1698 3 view .LVU1348
1699:Drivers/STM32F4xx_HAL_Driver/Src/stm32f4xx_ll_usb.c ****   uint32_t HCcharEpDir;
 4031              		.loc 1 1699 3 view .LVU1349
1700:Drivers/STM32F4xx_HAL_Driver/Src/stm32f4xx_ll_usb.c ****   uint32_t HCcharLowSpeed;
 4032              		.loc 1 1700 3 view .LVU1350
1701:Drivers/STM32F4xx_HAL_Driver/Src/stm32f4xx_ll_usb.c ****   uint32_t HostCoreSpeed;
 4033              		.loc 1 1701 3 view .LVU1351
1702:Drivers/STM32F4xx_HAL_Driver/Src/stm32f4xx_ll_usb.c **** 
1703:Drivers/STM32F4xx_HAL_Driver/Src/stm32f4xx_ll_usb.c ****   /* Clear old interrupt conditions for this host channel. */
1704:Drivers/STM32F4xx_HAL_Driver/Src/stm32f4xx_ll_usb.c ****   USBx_HC((uint32_t)ch_num)->HCINT = CLEAR_INTERRUPT_MASK;
 4034              		.loc 1 1704 3 view .LVU1352
 4035 000c 00EB4116 		add	r6, r0, r1, lsl #5
 4036 0010 06F5A063 		add	r3, r6, #1280
 4037              	.LVL301:
 4038              		.loc 1 1704 36 is_stmt 0 view .LVU1353
 4039 0014 4FF0FF32 		mov	r2, #-1
 4040              	.LVL302:
 4041              		.loc 1 1704 36 view .LVU1354
 4042 0018 9A60     		str	r2, [r3, #8]
1705:Drivers/STM32F4xx_HAL_Driver/Src/stm32f4xx_ll_usb.c **** 
1706:Drivers/STM32F4xx_HAL_Driver/Src/stm32f4xx_ll_usb.c ****   /* Enable channel interrupts required for this transfer. */
1707:Drivers/STM32F4xx_HAL_Driver/Src/stm32f4xx_ll_usb.c ****   switch (ep_type)
 4043              		.loc 1 1707 3 is_stmt 1 view .LVU1355
 4044 001a 032D     		cmp	r5, #3
 4045 001c 71D8     		bhi	.L258
 4046 001e DFE805F0 		tbb	[pc, r5]
 4047              	.L251:
ARM GAS  C:\Users\marci\AppData\Local\Temp\ccNtE0Aw.s 			page 121


 4048 0022 02       		.byte	(.L252-.L251)/2
 4049 0023 62       		.byte	(.L253-.L251)/2
 4050 0024 02       		.byte	(.L252-.L251)/2
 4051 0025 54       		.byte	(.L250-.L251)/2
 4052              		.p2align 1
 4053              	.L252:
1708:Drivers/STM32F4xx_HAL_Driver/Src/stm32f4xx_ll_usb.c ****   {
1709:Drivers/STM32F4xx_HAL_Driver/Src/stm32f4xx_ll_usb.c ****     case EP_TYPE_CTRL:
1710:Drivers/STM32F4xx_HAL_Driver/Src/stm32f4xx_ll_usb.c ****     case EP_TYPE_BULK:
1711:Drivers/STM32F4xx_HAL_Driver/Src/stm32f4xx_ll_usb.c ****       USBx_HC((uint32_t)ch_num)->HCINTMSK = USB_OTG_HCINTMSK_XFRCM  |
 4054              		.loc 1 1711 7 view .LVU1356
 4055              		.loc 1 1711 43 is_stmt 0 view .LVU1357
 4056 0026 40F29D42 		movw	r2, #1181
 4057 002a DA60     		str	r2, [r3, #12]
1712:Drivers/STM32F4xx_HAL_Driver/Src/stm32f4xx_ll_usb.c ****                                             USB_OTG_HCINTMSK_STALLM |
1713:Drivers/STM32F4xx_HAL_Driver/Src/stm32f4xx_ll_usb.c ****                                             USB_OTG_HCINTMSK_TXERRM |
1714:Drivers/STM32F4xx_HAL_Driver/Src/stm32f4xx_ll_usb.c ****                                             USB_OTG_HCINTMSK_DTERRM |
1715:Drivers/STM32F4xx_HAL_Driver/Src/stm32f4xx_ll_usb.c ****                                             USB_OTG_HCINTMSK_AHBERR |
1716:Drivers/STM32F4xx_HAL_Driver/Src/stm32f4xx_ll_usb.c ****                                             USB_OTG_HCINTMSK_NAKM;
1717:Drivers/STM32F4xx_HAL_Driver/Src/stm32f4xx_ll_usb.c **** 
1718:Drivers/STM32F4xx_HAL_Driver/Src/stm32f4xx_ll_usb.c ****       if ((epnum & 0x80U) == 0x80U)
 4058              		.loc 1 1718 7 is_stmt 1 view .LVU1358
 4059              		.loc 1 1718 10 is_stmt 0 view .LVU1359
 4060 002c 19F0800F 		tst	r9, #128
 4061 0030 45D1     		bne	.L266
1697:Drivers/STM32F4xx_HAL_Driver/Src/stm32f4xx_ll_usb.c ****   uint32_t USBx_BASE = (uint32_t)USBx;
 4062              		.loc 1 1697 21 view .LVU1360
 4063 0032 0027     		movs	r7, #0
 4064              	.L249:
 4065              	.LVL303:
1719:Drivers/STM32F4xx_HAL_Driver/Src/stm32f4xx_ll_usb.c ****       {
1720:Drivers/STM32F4xx_HAL_Driver/Src/stm32f4xx_ll_usb.c ****         USBx_HC((uint32_t)ch_num)->HCINTMSK |= USB_OTG_HCINTMSK_BBERRM;
1721:Drivers/STM32F4xx_HAL_Driver/Src/stm32f4xx_ll_usb.c ****       }
1722:Drivers/STM32F4xx_HAL_Driver/Src/stm32f4xx_ll_usb.c ****       else
1723:Drivers/STM32F4xx_HAL_Driver/Src/stm32f4xx_ll_usb.c ****       {
1724:Drivers/STM32F4xx_HAL_Driver/Src/stm32f4xx_ll_usb.c **** #if defined (USB_OTG_HS)
1725:Drivers/STM32F4xx_HAL_Driver/Src/stm32f4xx_ll_usb.c ****         if (USBx == USB_OTG_HS)
1726:Drivers/STM32F4xx_HAL_Driver/Src/stm32f4xx_ll_usb.c ****         {
1727:Drivers/STM32F4xx_HAL_Driver/Src/stm32f4xx_ll_usb.c ****           USBx_HC((uint32_t)ch_num)->HCINTMSK |= USB_OTG_HCINTMSK_NYET |
1728:Drivers/STM32F4xx_HAL_Driver/Src/stm32f4xx_ll_usb.c ****                                                  USB_OTG_HCINTMSK_ACKM;
1729:Drivers/STM32F4xx_HAL_Driver/Src/stm32f4xx_ll_usb.c ****         }
1730:Drivers/STM32F4xx_HAL_Driver/Src/stm32f4xx_ll_usb.c **** #endif /* defined (USB_OTG_HS) */
1731:Drivers/STM32F4xx_HAL_Driver/Src/stm32f4xx_ll_usb.c ****       }
1732:Drivers/STM32F4xx_HAL_Driver/Src/stm32f4xx_ll_usb.c ****       break;
1733:Drivers/STM32F4xx_HAL_Driver/Src/stm32f4xx_ll_usb.c **** 
1734:Drivers/STM32F4xx_HAL_Driver/Src/stm32f4xx_ll_usb.c ****     case EP_TYPE_INTR:
1735:Drivers/STM32F4xx_HAL_Driver/Src/stm32f4xx_ll_usb.c ****       USBx_HC((uint32_t)ch_num)->HCINTMSK = USB_OTG_HCINTMSK_XFRCM  |
1736:Drivers/STM32F4xx_HAL_Driver/Src/stm32f4xx_ll_usb.c ****                                             USB_OTG_HCINTMSK_STALLM |
1737:Drivers/STM32F4xx_HAL_Driver/Src/stm32f4xx_ll_usb.c ****                                             USB_OTG_HCINTMSK_TXERRM |
1738:Drivers/STM32F4xx_HAL_Driver/Src/stm32f4xx_ll_usb.c ****                                             USB_OTG_HCINTMSK_DTERRM |
1739:Drivers/STM32F4xx_HAL_Driver/Src/stm32f4xx_ll_usb.c ****                                             USB_OTG_HCINTMSK_NAKM   |
1740:Drivers/STM32F4xx_HAL_Driver/Src/stm32f4xx_ll_usb.c ****                                             USB_OTG_HCINTMSK_AHBERR |
1741:Drivers/STM32F4xx_HAL_Driver/Src/stm32f4xx_ll_usb.c ****                                             USB_OTG_HCINTMSK_FRMORM;
1742:Drivers/STM32F4xx_HAL_Driver/Src/stm32f4xx_ll_usb.c **** 
1743:Drivers/STM32F4xx_HAL_Driver/Src/stm32f4xx_ll_usb.c ****       if ((epnum & 0x80U) == 0x80U)
1744:Drivers/STM32F4xx_HAL_Driver/Src/stm32f4xx_ll_usb.c ****       {
1745:Drivers/STM32F4xx_HAL_Driver/Src/stm32f4xx_ll_usb.c ****         USBx_HC((uint32_t)ch_num)->HCINTMSK |= USB_OTG_HCINTMSK_BBERRM;
ARM GAS  C:\Users\marci\AppData\Local\Temp\ccNtE0Aw.s 			page 122


1746:Drivers/STM32F4xx_HAL_Driver/Src/stm32f4xx_ll_usb.c ****       }
1747:Drivers/STM32F4xx_HAL_Driver/Src/stm32f4xx_ll_usb.c **** 
1748:Drivers/STM32F4xx_HAL_Driver/Src/stm32f4xx_ll_usb.c ****       break;
1749:Drivers/STM32F4xx_HAL_Driver/Src/stm32f4xx_ll_usb.c **** 
1750:Drivers/STM32F4xx_HAL_Driver/Src/stm32f4xx_ll_usb.c ****     case EP_TYPE_ISOC:
1751:Drivers/STM32F4xx_HAL_Driver/Src/stm32f4xx_ll_usb.c ****       USBx_HC((uint32_t)ch_num)->HCINTMSK = USB_OTG_HCINTMSK_XFRCM  |
1752:Drivers/STM32F4xx_HAL_Driver/Src/stm32f4xx_ll_usb.c ****                                             USB_OTG_HCINTMSK_ACKM   |
1753:Drivers/STM32F4xx_HAL_Driver/Src/stm32f4xx_ll_usb.c ****                                             USB_OTG_HCINTMSK_AHBERR |
1754:Drivers/STM32F4xx_HAL_Driver/Src/stm32f4xx_ll_usb.c ****                                             USB_OTG_HCINTMSK_FRMORM;
1755:Drivers/STM32F4xx_HAL_Driver/Src/stm32f4xx_ll_usb.c **** 
1756:Drivers/STM32F4xx_HAL_Driver/Src/stm32f4xx_ll_usb.c ****       if ((epnum & 0x80U) == 0x80U)
1757:Drivers/STM32F4xx_HAL_Driver/Src/stm32f4xx_ll_usb.c ****       {
1758:Drivers/STM32F4xx_HAL_Driver/Src/stm32f4xx_ll_usb.c ****         USBx_HC((uint32_t)ch_num)->HCINTMSK |= (USB_OTG_HCINTMSK_TXERRM | USB_OTG_HCINTMSK_BBERRM);
1759:Drivers/STM32F4xx_HAL_Driver/Src/stm32f4xx_ll_usb.c ****       }
1760:Drivers/STM32F4xx_HAL_Driver/Src/stm32f4xx_ll_usb.c ****       break;
1761:Drivers/STM32F4xx_HAL_Driver/Src/stm32f4xx_ll_usb.c **** 
1762:Drivers/STM32F4xx_HAL_Driver/Src/stm32f4xx_ll_usb.c ****     default:
1763:Drivers/STM32F4xx_HAL_Driver/Src/stm32f4xx_ll_usb.c ****       ret = HAL_ERROR;
1764:Drivers/STM32F4xx_HAL_Driver/Src/stm32f4xx_ll_usb.c ****       break;
1765:Drivers/STM32F4xx_HAL_Driver/Src/stm32f4xx_ll_usb.c ****   }
1766:Drivers/STM32F4xx_HAL_Driver/Src/stm32f4xx_ll_usb.c **** 
1767:Drivers/STM32F4xx_HAL_Driver/Src/stm32f4xx_ll_usb.c ****   /* Clear Hub Start Split transaction */
1768:Drivers/STM32F4xx_HAL_Driver/Src/stm32f4xx_ll_usb.c ****   USBx_HC((uint32_t)ch_num)->HCSPLT = 0U;
 4066              		.loc 1 1768 3 is_stmt 1 view .LVU1361
 4067              		.loc 1 1768 37 is_stmt 0 view .LVU1362
 4068 0034 0022     		movs	r2, #0
 4069 0036 5A60     		str	r2, [r3, #4]
1769:Drivers/STM32F4xx_HAL_Driver/Src/stm32f4xx_ll_usb.c **** 
1770:Drivers/STM32F4xx_HAL_Driver/Src/stm32f4xx_ll_usb.c ****   /* Enable host channel Halt interrupt */
1771:Drivers/STM32F4xx_HAL_Driver/Src/stm32f4xx_ll_usb.c ****   USBx_HC((uint32_t)ch_num)->HCINTMSK |= USB_OTG_HCINTMSK_CHHM;
 4070              		.loc 1 1771 3 is_stmt 1 view .LVU1363
 4071              		.loc 1 1771 28 is_stmt 0 view .LVU1364
 4072 0038 DA68     		ldr	r2, [r3, #12]
 4073              		.loc 1 1771 39 view .LVU1365
 4074 003a 42F00202 		orr	r2, r2, #2
 4075 003e DA60     		str	r2, [r3, #12]
1772:Drivers/STM32F4xx_HAL_Driver/Src/stm32f4xx_ll_usb.c **** 
1773:Drivers/STM32F4xx_HAL_Driver/Src/stm32f4xx_ll_usb.c ****   /* Enable the top level host channel interrupt. */
1774:Drivers/STM32F4xx_HAL_Driver/Src/stm32f4xx_ll_usb.c ****   USBx_HOST->HAINTMSK |= 1UL << (ch_num & 0xFU);
 4076              		.loc 1 1774 3 is_stmt 1 view .LVU1366
 4077              		.loc 1 1774 12 is_stmt 0 view .LVU1367
 4078 0040 D0F81834 		ldr	r3, [r0, #1048]
 4079              		.loc 1 1774 41 view .LVU1368
 4080 0044 01F00F01 		and	r1, r1, #15
 4081              	.LVL304:
 4082              		.loc 1 1774 30 view .LVU1369
 4083 0048 0122     		movs	r2, #1
 4084 004a 8A40     		lsls	r2, r2, r1
 4085              		.loc 1 1774 23 view .LVU1370
 4086 004c 1343     		orrs	r3, r3, r2
 4087 004e C0F81834 		str	r3, [r0, #1048]
1775:Drivers/STM32F4xx_HAL_Driver/Src/stm32f4xx_ll_usb.c **** 
1776:Drivers/STM32F4xx_HAL_Driver/Src/stm32f4xx_ll_usb.c ****   /* Make sure host channel interrupts are enabled. */
1777:Drivers/STM32F4xx_HAL_Driver/Src/stm32f4xx_ll_usb.c ****   USBx->GINTMSK |= USB_OTG_GINTMSK_HCIM;
 4088              		.loc 1 1777 3 is_stmt 1 view .LVU1371
 4089              		.loc 1 1777 7 is_stmt 0 view .LVU1372
 4090 0052 8369     		ldr	r3, [r0, #24]
ARM GAS  C:\Users\marci\AppData\Local\Temp\ccNtE0Aw.s 			page 123


 4091              		.loc 1 1777 17 view .LVU1373
 4092 0054 43F00073 		orr	r3, r3, #33554432
 4093 0058 8361     		str	r3, [r0, #24]
1778:Drivers/STM32F4xx_HAL_Driver/Src/stm32f4xx_ll_usb.c **** 
1779:Drivers/STM32F4xx_HAL_Driver/Src/stm32f4xx_ll_usb.c ****   /* Program the HCCHAR register */
1780:Drivers/STM32F4xx_HAL_Driver/Src/stm32f4xx_ll_usb.c ****   if ((epnum & 0x80U) == 0x80U)
 4094              		.loc 1 1780 3 is_stmt 1 view .LVU1374
 4095              		.loc 1 1780 6 is_stmt 0 view .LVU1375
 4096 005a 19F0800F 		tst	r9, #128
 4097 005e 52D1     		bne	.L267
1781:Drivers/STM32F4xx_HAL_Driver/Src/stm32f4xx_ll_usb.c ****   {
1782:Drivers/STM32F4xx_HAL_Driver/Src/stm32f4xx_ll_usb.c ****     HCcharEpDir = (0x1U << 15) & USB_OTG_HCCHAR_EPDIR;
1783:Drivers/STM32F4xx_HAL_Driver/Src/stm32f4xx_ll_usb.c ****   }
1784:Drivers/STM32F4xx_HAL_Driver/Src/stm32f4xx_ll_usb.c ****   else
1785:Drivers/STM32F4xx_HAL_Driver/Src/stm32f4xx_ll_usb.c ****   {
1786:Drivers/STM32F4xx_HAL_Driver/Src/stm32f4xx_ll_usb.c ****     HCcharEpDir = 0U;
 4098              		.loc 1 1786 17 view .LVU1376
 4099 0060 4FF00008 		mov	r8, #0
 4100              	.L254:
 4101              	.LVL305:
1787:Drivers/STM32F4xx_HAL_Driver/Src/stm32f4xx_ll_usb.c ****   }
1788:Drivers/STM32F4xx_HAL_Driver/Src/stm32f4xx_ll_usb.c **** 
1789:Drivers/STM32F4xx_HAL_Driver/Src/stm32f4xx_ll_usb.c ****   HostCoreSpeed = USB_GetHostSpeed(USBx);
 4102              		.loc 1 1789 3 is_stmt 1 view .LVU1377
 4103              		.loc 1 1789 19 is_stmt 0 view .LVU1378
 4104 0064 FFF7FEFF 		bl	USB_GetHostSpeed
 4105              	.LVL306:
1790:Drivers/STM32F4xx_HAL_Driver/Src/stm32f4xx_ll_usb.c **** 
1791:Drivers/STM32F4xx_HAL_Driver/Src/stm32f4xx_ll_usb.c ****   /* LS device plugged to HUB */
1792:Drivers/STM32F4xx_HAL_Driver/Src/stm32f4xx_ll_usb.c ****   if ((speed == HPRT0_PRTSPD_LOW_SPEED) && (HostCoreSpeed != HPRT0_PRTSPD_LOW_SPEED))
 4106              		.loc 1 1792 3 is_stmt 1 view .LVU1379
 4107              		.loc 1 1792 6 is_stmt 0 view .LVU1380
 4108 0068 9DF82030 		ldrb	r3, [sp, #32]	@ zero_extendqisi2
 4109 006c 022B     		cmp	r3, #2
 4110 006e 4DD0     		beq	.L268
1793:Drivers/STM32F4xx_HAL_Driver/Src/stm32f4xx_ll_usb.c ****   {
1794:Drivers/STM32F4xx_HAL_Driver/Src/stm32f4xx_ll_usb.c ****     HCcharLowSpeed = (0x1U << 17) & USB_OTG_HCCHAR_LSDEV;
1795:Drivers/STM32F4xx_HAL_Driver/Src/stm32f4xx_ll_usb.c ****   }
1796:Drivers/STM32F4xx_HAL_Driver/Src/stm32f4xx_ll_usb.c ****   else
1797:Drivers/STM32F4xx_HAL_Driver/Src/stm32f4xx_ll_usb.c ****   {
1798:Drivers/STM32F4xx_HAL_Driver/Src/stm32f4xx_ll_usb.c ****     HCcharLowSpeed = 0U;
 4111              		.loc 1 1798 20 view .LVU1381
 4112 0070 0022     		movs	r2, #0
 4113              	.L255:
 4114              	.LVL307:
1799:Drivers/STM32F4xx_HAL_Driver/Src/stm32f4xx_ll_usb.c ****   }
1800:Drivers/STM32F4xx_HAL_Driver/Src/stm32f4xx_ll_usb.c **** 
1801:Drivers/STM32F4xx_HAL_Driver/Src/stm32f4xx_ll_usb.c ****   USBx_HC((uint32_t)ch_num)->HCCHAR = (((uint32_t)dev_address << 22) & USB_OTG_HCCHAR_DAD) |
 4115              		.loc 1 1801 3 is_stmt 1 view .LVU1382
 4116              		.loc 1 1801 63 is_stmt 0 view .LVU1383
 4117 0072 A305     		lsls	r3, r4, #22
 4118              		.loc 1 1801 70 view .LVU1384
 4119 0074 03F0FE53 		and	r3, r3, #532676608
1802:Drivers/STM32F4xx_HAL_Driver/Src/stm32f4xx_ll_usb.c ****                                       ((((uint32_t)epnum & 0x7FU) << 11) & USB_OTG_HCCHAR_EPNUM) |
 4120              		.loc 1 1802 67 view .LVU1385
 4121 0078 4FEAC929 		lsl	r9, r9, #11
 4122              	.LVL308:
ARM GAS  C:\Users\marci\AppData\Local\Temp\ccNtE0Aw.s 			page 124


 4123              		.loc 1 1802 74 view .LVU1386
 4124 007c 09F4F049 		and	r9, r9, #30720
1801:Drivers/STM32F4xx_HAL_Driver/Src/stm32f4xx_ll_usb.c ****                                       ((((uint32_t)epnum & 0x7FU) << 11) & USB_OTG_HCCHAR_EPNUM) |
 4125              		.loc 1 1801 92 view .LVU1387
 4126 0080 43EA0903 		orr	r3, r3, r9
1803:Drivers/STM32F4xx_HAL_Driver/Src/stm32f4xx_ll_usb.c ****                                       (((uint32_t)ep_type << 18) & USB_OTG_HCCHAR_EPTYP) |
 4127              		.loc 1 1803 59 view .LVU1388
 4128 0084 A904     		lsls	r1, r5, #18
 4129              		.loc 1 1803 66 view .LVU1389
 4130 0086 01F44021 		and	r1, r1, #786432
1802:Drivers/STM32F4xx_HAL_Driver/Src/stm32f4xx_ll_usb.c ****                                       ((((uint32_t)epnum & 0x7FU) << 11) & USB_OTG_HCCHAR_EPNUM) |
 4131              		.loc 1 1802 98 view .LVU1390
 4132 008a 0B43     		orrs	r3, r3, r1
1804:Drivers/STM32F4xx_HAL_Driver/Src/stm32f4xx_ll_usb.c ****                                       ((uint32_t)mps & USB_OTG_HCCHAR_MPSIZ) |
 4133              		.loc 1 1804 54 view .LVU1391
 4134 008c BDF82810 		ldrh	r1, [sp, #40]
 4135 0090 C1F30A01 		ubfx	r1, r1, #0, #11
1803:Drivers/STM32F4xx_HAL_Driver/Src/stm32f4xx_ll_usb.c ****                                       (((uint32_t)ep_type << 18) & USB_OTG_HCCHAR_EPTYP) |
 4136              		.loc 1 1803 90 view .LVU1392
 4137 0094 0B43     		orrs	r3, r3, r1
1805:Drivers/STM32F4xx_HAL_Driver/Src/stm32f4xx_ll_usb.c ****                                       USB_OTG_HCCHAR_MC_0 | HCcharEpDir | HCcharLowSpeed;
 4138              		.loc 1 1805 59 view .LVU1393
 4139 0096 43EA0803 		orr	r3, r3, r8
 4140              		.loc 1 1805 73 view .LVU1394
 4141 009a 1343     		orrs	r3, r3, r2
 4142 009c 43F48013 		orr	r3, r3, #1048576
1801:Drivers/STM32F4xx_HAL_Driver/Src/stm32f4xx_ll_usb.c ****                                       ((((uint32_t)epnum & 0x7FU) << 11) & USB_OTG_HCCHAR_EPNUM) |
 4143              		.loc 1 1801 37 view .LVU1395
 4144 00a0 C6F80035 		str	r3, [r6, #1280]
1806:Drivers/STM32F4xx_HAL_Driver/Src/stm32f4xx_ll_usb.c **** 
1807:Drivers/STM32F4xx_HAL_Driver/Src/stm32f4xx_ll_usb.c ****   if ((ep_type == EP_TYPE_INTR) || (ep_type == EP_TYPE_ISOC))
 4145              		.loc 1 1807 3 is_stmt 1 view .LVU1396
 4146              		.loc 1 1807 6 is_stmt 0 view .LVU1397
 4147 00a4 032D     		cmp	r5, #3
 4148 00a6 01D0     		beq	.L256
 4149              		.loc 1 1807 33 discriminator 1 view .LVU1398
 4150 00a8 012D     		cmp	r5, #1
 4151 00aa 05D1     		bne	.L257
 4152              	.L256:
1808:Drivers/STM32F4xx_HAL_Driver/Src/stm32f4xx_ll_usb.c ****   {
1809:Drivers/STM32F4xx_HAL_Driver/Src/stm32f4xx_ll_usb.c ****     USBx_HC((uint32_t)ch_num)->HCCHAR |= USB_OTG_HCCHAR_ODDFRM;
 4153              		.loc 1 1809 5 is_stmt 1 view .LVU1399
 4154              		.loc 1 1809 30 is_stmt 0 view .LVU1400
 4155 00ac D6F80035 		ldr	r3, [r6, #1280]
 4156              		.loc 1 1809 39 view .LVU1401
 4157 00b0 43F00053 		orr	r3, r3, #536870912
 4158 00b4 C6F80035 		str	r3, [r6, #1280]
 4159              	.L257:
1810:Drivers/STM32F4xx_HAL_Driver/Src/stm32f4xx_ll_usb.c ****   }
1811:Drivers/STM32F4xx_HAL_Driver/Src/stm32f4xx_ll_usb.c **** 
1812:Drivers/STM32F4xx_HAL_Driver/Src/stm32f4xx_ll_usb.c ****   return ret;
 4160              		.loc 1 1812 3 is_stmt 1 view .LVU1402
1813:Drivers/STM32F4xx_HAL_Driver/Src/stm32f4xx_ll_usb.c **** }
 4161              		.loc 1 1813 1 is_stmt 0 view .LVU1403
 4162 00b8 3846     		mov	r0, r7
 4163              	.LVL309:
 4164              		.loc 1 1813 1 view .LVU1404
ARM GAS  C:\Users\marci\AppData\Local\Temp\ccNtE0Aw.s 			page 125


 4165 00ba BDE8F883 		pop	{r3, r4, r5, r6, r7, r8, r9, pc}
 4166              	.LVL310:
 4167              	.L266:
1720:Drivers/STM32F4xx_HAL_Driver/Src/stm32f4xx_ll_usb.c ****       }
 4168              		.loc 1 1720 9 is_stmt 1 view .LVU1405
1720:Drivers/STM32F4xx_HAL_Driver/Src/stm32f4xx_ll_usb.c ****       }
 4169              		.loc 1 1720 34 is_stmt 0 view .LVU1406
 4170 00be DA68     		ldr	r2, [r3, #12]
1720:Drivers/STM32F4xx_HAL_Driver/Src/stm32f4xx_ll_usb.c ****       }
 4171              		.loc 1 1720 45 view .LVU1407
 4172 00c0 42F48072 		orr	r2, r2, #256
 4173 00c4 DA60     		str	r2, [r3, #12]
1697:Drivers/STM32F4xx_HAL_Driver/Src/stm32f4xx_ll_usb.c ****   uint32_t USBx_BASE = (uint32_t)USBx;
 4174              		.loc 1 1697 21 view .LVU1408
 4175 00c6 0027     		movs	r7, #0
 4176 00c8 B4E7     		b	.L249
 4177              	.L250:
1735:Drivers/STM32F4xx_HAL_Driver/Src/stm32f4xx_ll_usb.c ****                                             USB_OTG_HCINTMSK_STALLM |
 4178              		.loc 1 1735 7 is_stmt 1 view .LVU1409
1735:Drivers/STM32F4xx_HAL_Driver/Src/stm32f4xx_ll_usb.c ****                                             USB_OTG_HCINTMSK_STALLM |
 4179              		.loc 1 1735 43 is_stmt 0 view .LVU1410
 4180 00ca 40F29D62 		movw	r2, #1693
 4181 00ce DA60     		str	r2, [r3, #12]
1743:Drivers/STM32F4xx_HAL_Driver/Src/stm32f4xx_ll_usb.c ****       {
 4182              		.loc 1 1743 7 is_stmt 1 view .LVU1411
1743:Drivers/STM32F4xx_HAL_Driver/Src/stm32f4xx_ll_usb.c ****       {
 4183              		.loc 1 1743 10 is_stmt 0 view .LVU1412
 4184 00d0 19F0800F 		tst	r9, #128
 4185 00d4 01D1     		bne	.L269
1697:Drivers/STM32F4xx_HAL_Driver/Src/stm32f4xx_ll_usb.c ****   uint32_t USBx_BASE = (uint32_t)USBx;
 4186              		.loc 1 1697 21 view .LVU1413
 4187 00d6 0027     		movs	r7, #0
 4188 00d8 ACE7     		b	.L249
 4189              	.L269:
1745:Drivers/STM32F4xx_HAL_Driver/Src/stm32f4xx_ll_usb.c ****       }
 4190              		.loc 1 1745 9 is_stmt 1 view .LVU1414
1745:Drivers/STM32F4xx_HAL_Driver/Src/stm32f4xx_ll_usb.c ****       }
 4191              		.loc 1 1745 34 is_stmt 0 view .LVU1415
 4192 00da DA68     		ldr	r2, [r3, #12]
1745:Drivers/STM32F4xx_HAL_Driver/Src/stm32f4xx_ll_usb.c ****       }
 4193              		.loc 1 1745 45 view .LVU1416
 4194 00dc 42F48072 		orr	r2, r2, #256
 4195 00e0 DA60     		str	r2, [r3, #12]
1697:Drivers/STM32F4xx_HAL_Driver/Src/stm32f4xx_ll_usb.c ****   uint32_t USBx_BASE = (uint32_t)USBx;
 4196              		.loc 1 1697 21 view .LVU1417
 4197 00e2 0027     		movs	r7, #0
 4198 00e4 A6E7     		b	.L249
 4199              	.L253:
1751:Drivers/STM32F4xx_HAL_Driver/Src/stm32f4xx_ll_usb.c ****                                             USB_OTG_HCINTMSK_ACKM   |
 4200              		.loc 1 1751 7 is_stmt 1 view .LVU1418
1751:Drivers/STM32F4xx_HAL_Driver/Src/stm32f4xx_ll_usb.c ****                                             USB_OTG_HCINTMSK_ACKM   |
 4201              		.loc 1 1751 43 is_stmt 0 view .LVU1419
 4202 00e6 40F22522 		movw	r2, #549
 4203 00ea DA60     		str	r2, [r3, #12]
1756:Drivers/STM32F4xx_HAL_Driver/Src/stm32f4xx_ll_usb.c ****       {
 4204              		.loc 1 1756 7 is_stmt 1 view .LVU1420
1756:Drivers/STM32F4xx_HAL_Driver/Src/stm32f4xx_ll_usb.c ****       {
ARM GAS  C:\Users\marci\AppData\Local\Temp\ccNtE0Aw.s 			page 126


 4205              		.loc 1 1756 10 is_stmt 0 view .LVU1421
 4206 00ec 19F0800F 		tst	r9, #128
 4207 00f0 01D1     		bne	.L270
1697:Drivers/STM32F4xx_HAL_Driver/Src/stm32f4xx_ll_usb.c ****   uint32_t USBx_BASE = (uint32_t)USBx;
 4208              		.loc 1 1697 21 view .LVU1422
 4209 00f2 0027     		movs	r7, #0
 4210 00f4 9EE7     		b	.L249
 4211              	.L270:
1758:Drivers/STM32F4xx_HAL_Driver/Src/stm32f4xx_ll_usb.c ****       }
 4212              		.loc 1 1758 9 is_stmt 1 view .LVU1423
1758:Drivers/STM32F4xx_HAL_Driver/Src/stm32f4xx_ll_usb.c ****       }
 4213              		.loc 1 1758 34 is_stmt 0 view .LVU1424
 4214 00f6 DA68     		ldr	r2, [r3, #12]
1758:Drivers/STM32F4xx_HAL_Driver/Src/stm32f4xx_ll_usb.c ****       }
 4215              		.loc 1 1758 45 view .LVU1425
 4216 00f8 42F4C072 		orr	r2, r2, #384
 4217 00fc DA60     		str	r2, [r3, #12]
1697:Drivers/STM32F4xx_HAL_Driver/Src/stm32f4xx_ll_usb.c ****   uint32_t USBx_BASE = (uint32_t)USBx;
 4218              		.loc 1 1697 21 view .LVU1426
 4219 00fe 0027     		movs	r7, #0
 4220 0100 98E7     		b	.L249
 4221              	.L258:
1707:Drivers/STM32F4xx_HAL_Driver/Src/stm32f4xx_ll_usb.c ****   {
 4222              		.loc 1 1707 3 view .LVU1427
 4223 0102 0127     		movs	r7, #1
 4224 0104 96E7     		b	.L249
 4225              	.LVL311:
 4226              	.L267:
1782:Drivers/STM32F4xx_HAL_Driver/Src/stm32f4xx_ll_usb.c ****   }
 4227              		.loc 1 1782 17 view .LVU1428
 4228 0106 4FF40048 		mov	r8, #32768
 4229 010a ABE7     		b	.L254
 4230              	.LVL312:
 4231              	.L268:
1792:Drivers/STM32F4xx_HAL_Driver/Src/stm32f4xx_ll_usb.c ****   {
 4232              		.loc 1 1792 41 discriminator 1 view .LVU1429
 4233 010c 0228     		cmp	r0, #2
 4234 010e 02D0     		beq	.L271
1794:Drivers/STM32F4xx_HAL_Driver/Src/stm32f4xx_ll_usb.c ****   }
 4235              		.loc 1 1794 20 view .LVU1430
 4236 0110 4FF40032 		mov	r2, #131072
 4237 0114 ADE7     		b	.L255
 4238              	.L271:
1798:Drivers/STM32F4xx_HAL_Driver/Src/stm32f4xx_ll_usb.c ****   }
 4239              		.loc 1 1798 20 view .LVU1431
 4240 0116 0022     		movs	r2, #0
 4241 0118 ABE7     		b	.L255
 4242              		.cfi_endproc
 4243              	.LFE175:
 4245              		.section	.text.USB_HC_StartXfer,"ax",%progbits
 4246              		.align	1
 4247              		.global	USB_HC_StartXfer
 4248              		.syntax unified
 4249              		.thumb
 4250              		.thumb_func
 4252              	USB_HC_StartXfer:
 4253              	.LVL313:
ARM GAS  C:\Users\marci\AppData\Local\Temp\ccNtE0Aw.s 			page 127


 4254              	.LFB176:
1814:Drivers/STM32F4xx_HAL_Driver/Src/stm32f4xx_ll_usb.c **** 
1815:Drivers/STM32F4xx_HAL_Driver/Src/stm32f4xx_ll_usb.c **** /**
1816:Drivers/STM32F4xx_HAL_Driver/Src/stm32f4xx_ll_usb.c ****   * @brief  Start a transfer over a host channel
1817:Drivers/STM32F4xx_HAL_Driver/Src/stm32f4xx_ll_usb.c ****   * @param  USBx  Selected device
1818:Drivers/STM32F4xx_HAL_Driver/Src/stm32f4xx_ll_usb.c ****   * @param  hc  pointer to host channel structure
1819:Drivers/STM32F4xx_HAL_Driver/Src/stm32f4xx_ll_usb.c ****   * @param  dma USB dma enabled or disabled
1820:Drivers/STM32F4xx_HAL_Driver/Src/stm32f4xx_ll_usb.c ****   *          This parameter can be one of these values:
1821:Drivers/STM32F4xx_HAL_Driver/Src/stm32f4xx_ll_usb.c ****   *           0 : DMA feature not used
1822:Drivers/STM32F4xx_HAL_Driver/Src/stm32f4xx_ll_usb.c ****   *           1 : DMA feature used
1823:Drivers/STM32F4xx_HAL_Driver/Src/stm32f4xx_ll_usb.c ****   * @retval HAL state
1824:Drivers/STM32F4xx_HAL_Driver/Src/stm32f4xx_ll_usb.c ****   */
1825:Drivers/STM32F4xx_HAL_Driver/Src/stm32f4xx_ll_usb.c **** HAL_StatusTypeDef USB_HC_StartXfer(USB_OTG_GlobalTypeDef *USBx, USB_OTG_HCTypeDef *hc, uint8_t dma)
1826:Drivers/STM32F4xx_HAL_Driver/Src/stm32f4xx_ll_usb.c **** {
 4255              		.loc 1 1826 1 is_stmt 1 view -0
 4256              		.cfi_startproc
 4257              		@ args = 0, pretend = 0, frame = 8
 4258              		@ frame_needed = 0, uses_anonymous_args = 0
 4259              		.loc 1 1826 1 is_stmt 0 view .LVU1433
 4260 0000 30B5     		push	{r4, r5, lr}
 4261              	.LCFI53:
 4262              		.cfi_def_cfa_offset 12
 4263              		.cfi_offset 4, -12
 4264              		.cfi_offset 5, -8
 4265              		.cfi_offset 14, -4
 4266 0002 85B0     		sub	sp, sp, #20
 4267              	.LCFI54:
 4268              		.cfi_def_cfa_offset 32
1827:Drivers/STM32F4xx_HAL_Driver/Src/stm32f4xx_ll_usb.c ****   uint32_t USBx_BASE = (uint32_t)USBx;
 4269              		.loc 1 1827 3 is_stmt 1 view .LVU1434
 4270              	.LVL314:
1828:Drivers/STM32F4xx_HAL_Driver/Src/stm32f4xx_ll_usb.c ****   uint32_t ch_num = (uint32_t)hc->ch_num;
 4271              		.loc 1 1828 3 view .LVU1435
 4272              		.loc 1 1828 33 is_stmt 0 view .LVU1436
 4273 0004 4B78     		ldrb	r3, [r1, #1]	@ zero_extendqisi2
 4274              	.LVL315:
1829:Drivers/STM32F4xx_HAL_Driver/Src/stm32f4xx_ll_usb.c ****   __IO uint32_t tmpreg;
 4275              		.loc 1 1829 3 is_stmt 1 view .LVU1437
1830:Drivers/STM32F4xx_HAL_Driver/Src/stm32f4xx_ll_usb.c ****   uint8_t  is_oddframe;
 4276              		.loc 1 1830 3 view .LVU1438
1831:Drivers/STM32F4xx_HAL_Driver/Src/stm32f4xx_ll_usb.c ****   uint16_t len_words;
 4277              		.loc 1 1831 3 view .LVU1439
1832:Drivers/STM32F4xx_HAL_Driver/Src/stm32f4xx_ll_usb.c ****   uint16_t num_packets;
 4278              		.loc 1 1832 3 view .LVU1440
1833:Drivers/STM32F4xx_HAL_Driver/Src/stm32f4xx_ll_usb.c ****   uint16_t max_hc_pkt_count = HC_MAX_PKT_CNT;
 4279              		.loc 1 1833 3 view .LVU1441
1834:Drivers/STM32F4xx_HAL_Driver/Src/stm32f4xx_ll_usb.c **** 
1835:Drivers/STM32F4xx_HAL_Driver/Src/stm32f4xx_ll_usb.c **** #if defined (USB_OTG_HS)
1836:Drivers/STM32F4xx_HAL_Driver/Src/stm32f4xx_ll_usb.c ****   if (USBx == USB_OTG_HS)
1837:Drivers/STM32F4xx_HAL_Driver/Src/stm32f4xx_ll_usb.c ****   {
1838:Drivers/STM32F4xx_HAL_Driver/Src/stm32f4xx_ll_usb.c ****     /* in DMA mode host Core automatically issues ping in case of NYET/NAK */
1839:Drivers/STM32F4xx_HAL_Driver/Src/stm32f4xx_ll_usb.c ****     if (dma == 1U)
1840:Drivers/STM32F4xx_HAL_Driver/Src/stm32f4xx_ll_usb.c ****     {
1841:Drivers/STM32F4xx_HAL_Driver/Src/stm32f4xx_ll_usb.c ****       if (((hc->ep_type == EP_TYPE_CTRL) || (hc->ep_type == EP_TYPE_BULK)) && (hc->do_ssplit == 0U)
1842:Drivers/STM32F4xx_HAL_Driver/Src/stm32f4xx_ll_usb.c ****       {
1843:Drivers/STM32F4xx_HAL_Driver/Src/stm32f4xx_ll_usb.c **** 
1844:Drivers/STM32F4xx_HAL_Driver/Src/stm32f4xx_ll_usb.c ****         USBx_HC((uint32_t)ch_num)->HCINTMSK &= ~(USB_OTG_HCINTMSK_NYET |
ARM GAS  C:\Users\marci\AppData\Local\Temp\ccNtE0Aw.s 			page 128


1845:Drivers/STM32F4xx_HAL_Driver/Src/stm32f4xx_ll_usb.c ****                                                  USB_OTG_HCINTMSK_ACKM |
1846:Drivers/STM32F4xx_HAL_Driver/Src/stm32f4xx_ll_usb.c ****                                                  USB_OTG_HCINTMSK_NAKM);
1847:Drivers/STM32F4xx_HAL_Driver/Src/stm32f4xx_ll_usb.c ****       }
1848:Drivers/STM32F4xx_HAL_Driver/Src/stm32f4xx_ll_usb.c ****     }
1849:Drivers/STM32F4xx_HAL_Driver/Src/stm32f4xx_ll_usb.c ****     else
1850:Drivers/STM32F4xx_HAL_Driver/Src/stm32f4xx_ll_usb.c ****     {
1851:Drivers/STM32F4xx_HAL_Driver/Src/stm32f4xx_ll_usb.c ****       if ((hc->speed == USBH_HS_SPEED) && (hc->do_ping == 1U))
1852:Drivers/STM32F4xx_HAL_Driver/Src/stm32f4xx_ll_usb.c ****       {
1853:Drivers/STM32F4xx_HAL_Driver/Src/stm32f4xx_ll_usb.c ****         (void)USB_DoPing(USBx, hc->ch_num);
1854:Drivers/STM32F4xx_HAL_Driver/Src/stm32f4xx_ll_usb.c ****         return HAL_OK;
1855:Drivers/STM32F4xx_HAL_Driver/Src/stm32f4xx_ll_usb.c ****       }
1856:Drivers/STM32F4xx_HAL_Driver/Src/stm32f4xx_ll_usb.c ****     }
1857:Drivers/STM32F4xx_HAL_Driver/Src/stm32f4xx_ll_usb.c ****   }
1858:Drivers/STM32F4xx_HAL_Driver/Src/stm32f4xx_ll_usb.c **** #endif /* defined (USB_OTG_HS) */
1859:Drivers/STM32F4xx_HAL_Driver/Src/stm32f4xx_ll_usb.c **** 
1860:Drivers/STM32F4xx_HAL_Driver/Src/stm32f4xx_ll_usb.c ****   if (hc->do_ssplit == 1U)
 4280              		.loc 1 1860 3 view .LVU1442
 4281              		.loc 1 1860 9 is_stmt 0 view .LVU1443
 4282 0006 8C79     		ldrb	r4, [r1, #6]	@ zero_extendqisi2
 4283              		.loc 1 1860 6 view .LVU1444
 4284 0008 012C     		cmp	r4, #1
 4285 000a 13D0     		beq	.L305
1861:Drivers/STM32F4xx_HAL_Driver/Src/stm32f4xx_ll_usb.c ****   {
1862:Drivers/STM32F4xx_HAL_Driver/Src/stm32f4xx_ll_usb.c ****     /* Set number of packet to 1 for Split transaction */
1863:Drivers/STM32F4xx_HAL_Driver/Src/stm32f4xx_ll_usb.c ****     num_packets = 1U;
1864:Drivers/STM32F4xx_HAL_Driver/Src/stm32f4xx_ll_usb.c **** 
1865:Drivers/STM32F4xx_HAL_Driver/Src/stm32f4xx_ll_usb.c ****     if (hc->ep_is_in != 0U)
1866:Drivers/STM32F4xx_HAL_Driver/Src/stm32f4xx_ll_usb.c ****     {
1867:Drivers/STM32F4xx_HAL_Driver/Src/stm32f4xx_ll_usb.c ****       hc->XferSize = (uint32_t)num_packets * hc->max_packet;
1868:Drivers/STM32F4xx_HAL_Driver/Src/stm32f4xx_ll_usb.c ****     }
1869:Drivers/STM32F4xx_HAL_Driver/Src/stm32f4xx_ll_usb.c ****     else
1870:Drivers/STM32F4xx_HAL_Driver/Src/stm32f4xx_ll_usb.c ****     {
1871:Drivers/STM32F4xx_HAL_Driver/Src/stm32f4xx_ll_usb.c ****       if (hc->ep_type == EP_TYPE_ISOC)
1872:Drivers/STM32F4xx_HAL_Driver/Src/stm32f4xx_ll_usb.c ****       {
1873:Drivers/STM32F4xx_HAL_Driver/Src/stm32f4xx_ll_usb.c ****         if (hc->xfer_len > ISO_SPLT_MPS)
1874:Drivers/STM32F4xx_HAL_Driver/Src/stm32f4xx_ll_usb.c ****         {
1875:Drivers/STM32F4xx_HAL_Driver/Src/stm32f4xx_ll_usb.c ****           /* Isochrone Max Packet Size for Split mode */
1876:Drivers/STM32F4xx_HAL_Driver/Src/stm32f4xx_ll_usb.c ****           hc->XferSize = hc->max_packet;
1877:Drivers/STM32F4xx_HAL_Driver/Src/stm32f4xx_ll_usb.c ****           hc->xfer_len = hc->XferSize;
1878:Drivers/STM32F4xx_HAL_Driver/Src/stm32f4xx_ll_usb.c **** 
1879:Drivers/STM32F4xx_HAL_Driver/Src/stm32f4xx_ll_usb.c ****           if ((hc->iso_splt_xactPos == HCSPLT_BEGIN) || (hc->iso_splt_xactPos == HCSPLT_MIDDLE))
1880:Drivers/STM32F4xx_HAL_Driver/Src/stm32f4xx_ll_usb.c ****           {
1881:Drivers/STM32F4xx_HAL_Driver/Src/stm32f4xx_ll_usb.c ****             hc->iso_splt_xactPos = HCSPLT_MIDDLE;
1882:Drivers/STM32F4xx_HAL_Driver/Src/stm32f4xx_ll_usb.c ****           }
1883:Drivers/STM32F4xx_HAL_Driver/Src/stm32f4xx_ll_usb.c ****           else
1884:Drivers/STM32F4xx_HAL_Driver/Src/stm32f4xx_ll_usb.c ****           {
1885:Drivers/STM32F4xx_HAL_Driver/Src/stm32f4xx_ll_usb.c ****             hc->iso_splt_xactPos = HCSPLT_BEGIN;
1886:Drivers/STM32F4xx_HAL_Driver/Src/stm32f4xx_ll_usb.c ****           }
1887:Drivers/STM32F4xx_HAL_Driver/Src/stm32f4xx_ll_usb.c ****         }
1888:Drivers/STM32F4xx_HAL_Driver/Src/stm32f4xx_ll_usb.c ****         else
1889:Drivers/STM32F4xx_HAL_Driver/Src/stm32f4xx_ll_usb.c ****         {
1890:Drivers/STM32F4xx_HAL_Driver/Src/stm32f4xx_ll_usb.c ****           hc->XferSize = hc->xfer_len;
1891:Drivers/STM32F4xx_HAL_Driver/Src/stm32f4xx_ll_usb.c **** 
1892:Drivers/STM32F4xx_HAL_Driver/Src/stm32f4xx_ll_usb.c ****           if ((hc->iso_splt_xactPos != HCSPLT_BEGIN) && (hc->iso_splt_xactPos != HCSPLT_MIDDLE))
1893:Drivers/STM32F4xx_HAL_Driver/Src/stm32f4xx_ll_usb.c ****           {
1894:Drivers/STM32F4xx_HAL_Driver/Src/stm32f4xx_ll_usb.c ****             hc->iso_splt_xactPos = HCSPLT_FULL;
1895:Drivers/STM32F4xx_HAL_Driver/Src/stm32f4xx_ll_usb.c ****           }
ARM GAS  C:\Users\marci\AppData\Local\Temp\ccNtE0Aw.s 			page 129


1896:Drivers/STM32F4xx_HAL_Driver/Src/stm32f4xx_ll_usb.c ****           else
1897:Drivers/STM32F4xx_HAL_Driver/Src/stm32f4xx_ll_usb.c ****           {
1898:Drivers/STM32F4xx_HAL_Driver/Src/stm32f4xx_ll_usb.c ****             hc->iso_splt_xactPos = HCSPLT_END;
1899:Drivers/STM32F4xx_HAL_Driver/Src/stm32f4xx_ll_usb.c ****           }
1900:Drivers/STM32F4xx_HAL_Driver/Src/stm32f4xx_ll_usb.c ****         }
1901:Drivers/STM32F4xx_HAL_Driver/Src/stm32f4xx_ll_usb.c ****       }
1902:Drivers/STM32F4xx_HAL_Driver/Src/stm32f4xx_ll_usb.c ****       else
1903:Drivers/STM32F4xx_HAL_Driver/Src/stm32f4xx_ll_usb.c ****       {
1904:Drivers/STM32F4xx_HAL_Driver/Src/stm32f4xx_ll_usb.c ****         if ((dma == 1U) && (hc->xfer_len > hc->max_packet))
1905:Drivers/STM32F4xx_HAL_Driver/Src/stm32f4xx_ll_usb.c ****         {
1906:Drivers/STM32F4xx_HAL_Driver/Src/stm32f4xx_ll_usb.c ****           hc->XferSize = (uint32_t)num_packets * hc->max_packet;
1907:Drivers/STM32F4xx_HAL_Driver/Src/stm32f4xx_ll_usb.c ****         }
1908:Drivers/STM32F4xx_HAL_Driver/Src/stm32f4xx_ll_usb.c ****         else
1909:Drivers/STM32F4xx_HAL_Driver/Src/stm32f4xx_ll_usb.c ****         {
1910:Drivers/STM32F4xx_HAL_Driver/Src/stm32f4xx_ll_usb.c ****           hc->XferSize = hc->xfer_len;
1911:Drivers/STM32F4xx_HAL_Driver/Src/stm32f4xx_ll_usb.c ****         }
1912:Drivers/STM32F4xx_HAL_Driver/Src/stm32f4xx_ll_usb.c ****       }
1913:Drivers/STM32F4xx_HAL_Driver/Src/stm32f4xx_ll_usb.c ****     }
1914:Drivers/STM32F4xx_HAL_Driver/Src/stm32f4xx_ll_usb.c ****   }
1915:Drivers/STM32F4xx_HAL_Driver/Src/stm32f4xx_ll_usb.c ****   else
1916:Drivers/STM32F4xx_HAL_Driver/Src/stm32f4xx_ll_usb.c ****   {
1917:Drivers/STM32F4xx_HAL_Driver/Src/stm32f4xx_ll_usb.c ****     /* Compute the expected number of packets associated to the transfer */
1918:Drivers/STM32F4xx_HAL_Driver/Src/stm32f4xx_ll_usb.c ****     if (hc->xfer_len > 0U)
 4286              		.loc 1 1918 5 is_stmt 1 view .LVU1445
 4287              		.loc 1 1918 11 is_stmt 0 view .LVU1446
 4288 000c 0C6A     		ldr	r4, [r1, #32]
 4289              		.loc 1 1918 8 view .LVU1447
 4290 000e 002C     		cmp	r4, #0
 4291 0010 4BD0     		beq	.L301
1919:Drivers/STM32F4xx_HAL_Driver/Src/stm32f4xx_ll_usb.c ****     {
1920:Drivers/STM32F4xx_HAL_Driver/Src/stm32f4xx_ll_usb.c ****       num_packets = (uint16_t)((hc->xfer_len + hc->max_packet - 1U) / hc->max_packet);
 4292              		.loc 1 1920 7 is_stmt 1 view .LVU1448
 4293              		.loc 1 1920 50 is_stmt 0 view .LVU1449
 4294 0012 8D8A     		ldrh	r5, [r1, #20]
 4295              		.loc 1 1920 46 view .LVU1450
 4296 0014 04EB050C 		add	ip, r4, r5
 4297              		.loc 1 1920 63 view .LVU1451
 4298 0018 0CF1FF3C 		add	ip, ip, #-1
 4299              		.loc 1 1920 69 view .LVU1452
 4300 001c BCFBF5FC 		udiv	ip, ip, r5
 4301              		.loc 1 1920 19 view .LVU1453
 4302 0020 1FFA8CFC 		uxth	ip, ip
 4303              	.LVL316:
1921:Drivers/STM32F4xx_HAL_Driver/Src/stm32f4xx_ll_usb.c **** 
1922:Drivers/STM32F4xx_HAL_Driver/Src/stm32f4xx_ll_usb.c ****       if (num_packets > max_hc_pkt_count)
 4304              		.loc 1 1922 7 is_stmt 1 view .LVU1454
 4305              		.loc 1 1922 10 is_stmt 0 view .LVU1455
 4306 0024 BCF5807F 		cmp	ip, #256
 4307 0028 41D9     		bls	.L281
1923:Drivers/STM32F4xx_HAL_Driver/Src/stm32f4xx_ll_usb.c ****       {
1924:Drivers/STM32F4xx_HAL_Driver/Src/stm32f4xx_ll_usb.c ****         num_packets = max_hc_pkt_count;
 4308              		.loc 1 1924 9 is_stmt 1 view .LVU1456
 4309              	.LVL317:
1925:Drivers/STM32F4xx_HAL_Driver/Src/stm32f4xx_ll_usb.c ****         hc->XferSize = (uint32_t)num_packets * hc->max_packet;
 4310              		.loc 1 1925 9 view .LVU1457
 4311              		.loc 1 1925 46 is_stmt 0 view .LVU1458
 4312 002a 2D02     		lsls	r5, r5, #8
ARM GAS  C:\Users\marci\AppData\Local\Temp\ccNtE0Aw.s 			page 130


 4313              		.loc 1 1925 22 view .LVU1459
 4314 002c CD61     		str	r5, [r1, #28]
1924:Drivers/STM32F4xx_HAL_Driver/Src/stm32f4xx_ll_usb.c ****         hc->XferSize = (uint32_t)num_packets * hc->max_packet;
 4315              		.loc 1 1924 21 view .LVU1460
 4316 002e 4FF4807C 		mov	ip, #256
 4317 0032 3CE0     		b	.L281
 4318              	.LVL318:
 4319              	.L305:
1863:Drivers/STM32F4xx_HAL_Driver/Src/stm32f4xx_ll_usb.c **** 
 4320              		.loc 1 1863 5 is_stmt 1 view .LVU1461
1865:Drivers/STM32F4xx_HAL_Driver/Src/stm32f4xx_ll_usb.c ****     {
 4321              		.loc 1 1865 5 view .LVU1462
1865:Drivers/STM32F4xx_HAL_Driver/Src/stm32f4xx_ll_usb.c ****     {
 4322              		.loc 1 1865 11 is_stmt 0 view .LVU1463
 4323 0034 CC78     		ldrb	r4, [r1, #3]	@ zero_extendqisi2
1865:Drivers/STM32F4xx_HAL_Driver/Src/stm32f4xx_ll_usb.c ****     {
 4324              		.loc 1 1865 8 view .LVU1464
 4325 0036 24B1     		cbz	r4, .L274
1867:Drivers/STM32F4xx_HAL_Driver/Src/stm32f4xx_ll_usb.c ****     }
 4326              		.loc 1 1867 7 is_stmt 1 view .LVU1465
1867:Drivers/STM32F4xx_HAL_Driver/Src/stm32f4xx_ll_usb.c ****     }
 4327              		.loc 1 1867 48 is_stmt 0 view .LVU1466
 4328 0038 8C8A     		ldrh	r4, [r1, #20]
1867:Drivers/STM32F4xx_HAL_Driver/Src/stm32f4xx_ll_usb.c ****     }
 4329              		.loc 1 1867 20 view .LVU1467
 4330 003a CC61     		str	r4, [r1, #28]
1863:Drivers/STM32F4xx_HAL_Driver/Src/stm32f4xx_ll_usb.c **** 
 4331              		.loc 1 1863 17 view .LVU1468
 4332 003c 4FF0010C 		mov	ip, #1
 4333 0040 3CE0     		b	.L275
 4334              	.L274:
1871:Drivers/STM32F4xx_HAL_Driver/Src/stm32f4xx_ll_usb.c ****       {
 4335              		.loc 1 1871 7 is_stmt 1 view .LVU1469
1871:Drivers/STM32F4xx_HAL_Driver/Src/stm32f4xx_ll_usb.c ****       {
 4336              		.loc 1 1871 13 is_stmt 0 view .LVU1470
 4337 0042 8C7C     		ldrb	r4, [r1, #18]	@ zero_extendqisi2
1871:Drivers/STM32F4xx_HAL_Driver/Src/stm32f4xx_ll_usb.c ****       {
 4338              		.loc 1 1871 10 view .LVU1471
 4339 0044 012C     		cmp	r4, #1
 4340 0046 06D0     		beq	.L306
1904:Drivers/STM32F4xx_HAL_Driver/Src/stm32f4xx_ll_usb.c ****         {
 4341              		.loc 1 1904 9 is_stmt 1 view .LVU1472
1904:Drivers/STM32F4xx_HAL_Driver/Src/stm32f4xx_ll_usb.c ****         {
 4342              		.loc 1 1904 12 is_stmt 0 view .LVU1473
 4343 0048 012A     		cmp	r2, #1
 4344 004a 26D0     		beq	.L307
 4345              	.L280:
1910:Drivers/STM32F4xx_HAL_Driver/Src/stm32f4xx_ll_usb.c ****         }
 4346              		.loc 1 1910 11 is_stmt 1 view .LVU1474
1910:Drivers/STM32F4xx_HAL_Driver/Src/stm32f4xx_ll_usb.c ****         }
 4347              		.loc 1 1910 28 is_stmt 0 view .LVU1475
 4348 004c 0C6A     		ldr	r4, [r1, #32]
1910:Drivers/STM32F4xx_HAL_Driver/Src/stm32f4xx_ll_usb.c ****         }
 4349              		.loc 1 1910 24 view .LVU1476
 4350 004e CC61     		str	r4, [r1, #28]
1863:Drivers/STM32F4xx_HAL_Driver/Src/stm32f4xx_ll_usb.c **** 
 4351              		.loc 1 1863 17 view .LVU1477
ARM GAS  C:\Users\marci\AppData\Local\Temp\ccNtE0Aw.s 			page 131


 4352 0050 4FF0010C 		mov	ip, #1
 4353 0054 32E0     		b	.L275
 4354              	.L306:
1873:Drivers/STM32F4xx_HAL_Driver/Src/stm32f4xx_ll_usb.c ****         {
 4355              		.loc 1 1873 9 is_stmt 1 view .LVU1478
1873:Drivers/STM32F4xx_HAL_Driver/Src/stm32f4xx_ll_usb.c ****         {
 4356              		.loc 1 1873 15 is_stmt 0 view .LVU1479
 4357 0056 0C6A     		ldr	r4, [r1, #32]
1873:Drivers/STM32F4xx_HAL_Driver/Src/stm32f4xx_ll_usb.c ****         {
 4358              		.loc 1 1873 12 view .LVU1480
 4359 0058 BC2C     		cmp	r4, #188
 4360 005a 0FD9     		bls	.L277
1876:Drivers/STM32F4xx_HAL_Driver/Src/stm32f4xx_ll_usb.c ****           hc->xfer_len = hc->XferSize;
 4361              		.loc 1 1876 11 is_stmt 1 view .LVU1481
1876:Drivers/STM32F4xx_HAL_Driver/Src/stm32f4xx_ll_usb.c ****           hc->xfer_len = hc->XferSize;
 4362              		.loc 1 1876 28 is_stmt 0 view .LVU1482
 4363 005c 8C8A     		ldrh	r4, [r1, #20]
1876:Drivers/STM32F4xx_HAL_Driver/Src/stm32f4xx_ll_usb.c ****           hc->xfer_len = hc->XferSize;
 4364              		.loc 1 1876 24 view .LVU1483
 4365 005e CC61     		str	r4, [r1, #28]
1877:Drivers/STM32F4xx_HAL_Driver/Src/stm32f4xx_ll_usb.c **** 
 4366              		.loc 1 1877 11 is_stmt 1 view .LVU1484
1877:Drivers/STM32F4xx_HAL_Driver/Src/stm32f4xx_ll_usb.c **** 
 4367              		.loc 1 1877 24 is_stmt 0 view .LVU1485
 4368 0060 0C62     		str	r4, [r1, #32]
1879:Drivers/STM32F4xx_HAL_Driver/Src/stm32f4xx_ll_usb.c ****           {
 4369              		.loc 1 1879 11 is_stmt 1 view .LVU1486
1879:Drivers/STM32F4xx_HAL_Driver/Src/stm32f4xx_ll_usb.c ****           {
 4370              		.loc 1 1879 18 is_stmt 0 view .LVU1487
 4371 0062 CC68     		ldr	r4, [r1, #12]
1879:Drivers/STM32F4xx_HAL_Driver/Src/stm32f4xx_ll_usb.c ****           {
 4372              		.loc 1 1879 54 view .LVU1488
 4373 0064 013C     		subs	r4, r4, #1
1879:Drivers/STM32F4xx_HAL_Driver/Src/stm32f4xx_ll_usb.c ****           {
 4374              		.loc 1 1879 14 view .LVU1489
 4375 0066 012C     		cmp	r4, #1
 4376 0068 03D9     		bls	.L308
1885:Drivers/STM32F4xx_HAL_Driver/Src/stm32f4xx_ll_usb.c ****           }
 4377              		.loc 1 1885 13 is_stmt 1 view .LVU1490
1885:Drivers/STM32F4xx_HAL_Driver/Src/stm32f4xx_ll_usb.c ****           }
 4378              		.loc 1 1885 34 is_stmt 0 view .LVU1491
 4379 006a 0124     		movs	r4, #1
 4380 006c CC60     		str	r4, [r1, #12]
1863:Drivers/STM32F4xx_HAL_Driver/Src/stm32f4xx_ll_usb.c **** 
 4381              		.loc 1 1863 17 view .LVU1492
 4382 006e A446     		mov	ip, r4
 4383 0070 24E0     		b	.L275
 4384              	.L308:
1881:Drivers/STM32F4xx_HAL_Driver/Src/stm32f4xx_ll_usb.c ****           }
 4385              		.loc 1 1881 13 is_stmt 1 view .LVU1493
1881:Drivers/STM32F4xx_HAL_Driver/Src/stm32f4xx_ll_usb.c ****           }
 4386              		.loc 1 1881 34 is_stmt 0 view .LVU1494
 4387 0072 0224     		movs	r4, #2
 4388 0074 CC60     		str	r4, [r1, #12]
1863:Drivers/STM32F4xx_HAL_Driver/Src/stm32f4xx_ll_usb.c **** 
 4389              		.loc 1 1863 17 view .LVU1495
 4390 0076 4FF0010C 		mov	ip, #1
ARM GAS  C:\Users\marci\AppData\Local\Temp\ccNtE0Aw.s 			page 132


 4391 007a 1FE0     		b	.L275
 4392              	.L277:
1890:Drivers/STM32F4xx_HAL_Driver/Src/stm32f4xx_ll_usb.c **** 
 4393              		.loc 1 1890 11 is_stmt 1 view .LVU1496
1890:Drivers/STM32F4xx_HAL_Driver/Src/stm32f4xx_ll_usb.c **** 
 4394              		.loc 1 1890 24 is_stmt 0 view .LVU1497
 4395 007c CC61     		str	r4, [r1, #28]
1892:Drivers/STM32F4xx_HAL_Driver/Src/stm32f4xx_ll_usb.c ****           {
 4396              		.loc 1 1892 11 is_stmt 1 view .LVU1498
1892:Drivers/STM32F4xx_HAL_Driver/Src/stm32f4xx_ll_usb.c ****           {
 4397              		.loc 1 1892 18 is_stmt 0 view .LVU1499
 4398 007e CC68     		ldr	r4, [r1, #12]
1892:Drivers/STM32F4xx_HAL_Driver/Src/stm32f4xx_ll_usb.c ****           {
 4399              		.loc 1 1892 54 view .LVU1500
 4400 0080 013C     		subs	r4, r4, #1
1892:Drivers/STM32F4xx_HAL_Driver/Src/stm32f4xx_ll_usb.c ****           {
 4401              		.loc 1 1892 14 view .LVU1501
 4402 0082 012C     		cmp	r4, #1
 4403 0084 04D9     		bls	.L279
1894:Drivers/STM32F4xx_HAL_Driver/Src/stm32f4xx_ll_usb.c ****           }
 4404              		.loc 1 1894 13 is_stmt 1 view .LVU1502
1894:Drivers/STM32F4xx_HAL_Driver/Src/stm32f4xx_ll_usb.c ****           }
 4405              		.loc 1 1894 34 is_stmt 0 view .LVU1503
 4406 0086 0424     		movs	r4, #4
 4407 0088 CC60     		str	r4, [r1, #12]
1863:Drivers/STM32F4xx_HAL_Driver/Src/stm32f4xx_ll_usb.c **** 
 4408              		.loc 1 1863 17 view .LVU1504
 4409 008a 4FF0010C 		mov	ip, #1
 4410 008e 15E0     		b	.L275
 4411              	.L279:
1898:Drivers/STM32F4xx_HAL_Driver/Src/stm32f4xx_ll_usb.c ****           }
 4412              		.loc 1 1898 13 is_stmt 1 view .LVU1505
1898:Drivers/STM32F4xx_HAL_Driver/Src/stm32f4xx_ll_usb.c ****           }
 4413              		.loc 1 1898 34 is_stmt 0 view .LVU1506
 4414 0090 0324     		movs	r4, #3
 4415 0092 CC60     		str	r4, [r1, #12]
1863:Drivers/STM32F4xx_HAL_Driver/Src/stm32f4xx_ll_usb.c **** 
 4416              		.loc 1 1863 17 view .LVU1507
 4417 0094 4FF0010C 		mov	ip, #1
 4418 0098 10E0     		b	.L275
 4419              	.L307:
1904:Drivers/STM32F4xx_HAL_Driver/Src/stm32f4xx_ll_usb.c ****         {
 4420              		.loc 1 1904 31 discriminator 1 view .LVU1508
 4421 009a 0D6A     		ldr	r5, [r1, #32]
1904:Drivers/STM32F4xx_HAL_Driver/Src/stm32f4xx_ll_usb.c ****         {
 4422              		.loc 1 1904 46 discriminator 1 view .LVU1509
 4423 009c 8C8A     		ldrh	r4, [r1, #20]
1904:Drivers/STM32F4xx_HAL_Driver/Src/stm32f4xx_ll_usb.c ****         {
 4424              		.loc 1 1904 25 discriminator 1 view .LVU1510
 4425 009e A542     		cmp	r5, r4
 4426 00a0 D4D9     		bls	.L280
1906:Drivers/STM32F4xx_HAL_Driver/Src/stm32f4xx_ll_usb.c ****         }
 4427              		.loc 1 1906 11 is_stmt 1 view .LVU1511
1906:Drivers/STM32F4xx_HAL_Driver/Src/stm32f4xx_ll_usb.c ****         }
 4428              		.loc 1 1906 24 is_stmt 0 view .LVU1512
 4429 00a2 CC61     		str	r4, [r1, #28]
1863:Drivers/STM32F4xx_HAL_Driver/Src/stm32f4xx_ll_usb.c **** 
ARM GAS  C:\Users\marci\AppData\Local\Temp\ccNtE0Aw.s 			page 133


 4430              		.loc 1 1863 17 view .LVU1513
 4431 00a4 4FF0010C 		mov	ip, #1
1906:Drivers/STM32F4xx_HAL_Driver/Src/stm32f4xx_ll_usb.c ****         }
 4432              		.loc 1 1906 24 view .LVU1514
 4433 00a8 08E0     		b	.L275
 4434              	.LVL319:
 4435              	.L301:
1926:Drivers/STM32F4xx_HAL_Driver/Src/stm32f4xx_ll_usb.c ****       }
1927:Drivers/STM32F4xx_HAL_Driver/Src/stm32f4xx_ll_usb.c ****     }
1928:Drivers/STM32F4xx_HAL_Driver/Src/stm32f4xx_ll_usb.c ****     else
1929:Drivers/STM32F4xx_HAL_Driver/Src/stm32f4xx_ll_usb.c ****     {
1930:Drivers/STM32F4xx_HAL_Driver/Src/stm32f4xx_ll_usb.c ****       num_packets = 1U;
 4436              		.loc 1 1930 19 view .LVU1515
 4437 00aa 4FF0010C 		mov	ip, #1
 4438              	.L281:
 4439              	.LVL320:
1931:Drivers/STM32F4xx_HAL_Driver/Src/stm32f4xx_ll_usb.c ****     }
1932:Drivers/STM32F4xx_HAL_Driver/Src/stm32f4xx_ll_usb.c **** 
1933:Drivers/STM32F4xx_HAL_Driver/Src/stm32f4xx_ll_usb.c ****     /*
1934:Drivers/STM32F4xx_HAL_Driver/Src/stm32f4xx_ll_usb.c ****     * For IN channel HCTSIZ.XferSize is expected to be an integer multiple of
1935:Drivers/STM32F4xx_HAL_Driver/Src/stm32f4xx_ll_usb.c ****     * max_packet size.
1936:Drivers/STM32F4xx_HAL_Driver/Src/stm32f4xx_ll_usb.c ****     */
1937:Drivers/STM32F4xx_HAL_Driver/Src/stm32f4xx_ll_usb.c ****     if (hc->ep_is_in != 0U)
 4440              		.loc 1 1937 5 is_stmt 1 view .LVU1516
 4441              		.loc 1 1937 11 is_stmt 0 view .LVU1517
 4442 00ae CD78     		ldrb	r5, [r1, #3]	@ zero_extendqisi2
 4443              		.loc 1 1937 8 view .LVU1518
 4444 00b0 002D     		cmp	r5, #0
 4445 00b2 63D0     		beq	.L282
1938:Drivers/STM32F4xx_HAL_Driver/Src/stm32f4xx_ll_usb.c ****     {
1939:Drivers/STM32F4xx_HAL_Driver/Src/stm32f4xx_ll_usb.c ****       hc->XferSize = (uint32_t)num_packets * hc->max_packet;
 4446              		.loc 1 1939 7 is_stmt 1 view .LVU1519
 4447              		.loc 1 1939 48 is_stmt 0 view .LVU1520
 4448 00b4 8C8A     		ldrh	r4, [r1, #20]
 4449              		.loc 1 1939 44 view .LVU1521
 4450 00b6 04FB0CF4 		mul	r4, r4, ip
 4451              		.loc 1 1939 20 view .LVU1522
 4452 00ba CC61     		str	r4, [r1, #28]
 4453              	.LVL321:
 4454              	.L275:
1940:Drivers/STM32F4xx_HAL_Driver/Src/stm32f4xx_ll_usb.c ****     }
1941:Drivers/STM32F4xx_HAL_Driver/Src/stm32f4xx_ll_usb.c ****     else
1942:Drivers/STM32F4xx_HAL_Driver/Src/stm32f4xx_ll_usb.c ****     {
1943:Drivers/STM32F4xx_HAL_Driver/Src/stm32f4xx_ll_usb.c ****       hc->XferSize = hc->xfer_len;
1944:Drivers/STM32F4xx_HAL_Driver/Src/stm32f4xx_ll_usb.c ****     }
1945:Drivers/STM32F4xx_HAL_Driver/Src/stm32f4xx_ll_usb.c ****   }
1946:Drivers/STM32F4xx_HAL_Driver/Src/stm32f4xx_ll_usb.c **** 
1947:Drivers/STM32F4xx_HAL_Driver/Src/stm32f4xx_ll_usb.c ****   /* Initialize the HCTSIZn register */
1948:Drivers/STM32F4xx_HAL_Driver/Src/stm32f4xx_ll_usb.c ****   USBx_HC(ch_num)->HCTSIZ = (hc->XferSize & USB_OTG_HCTSIZ_XFRSIZ) |
 4455              		.loc 1 1948 3 is_stmt 1 view .LVU1523
 4456              		.loc 1 1948 32 is_stmt 0 view .LVU1524
 4457 00bc CC69     		ldr	r4, [r1, #28]
 4458              		.loc 1 1948 43 view .LVU1525
 4459 00be C4F31204 		ubfx	r4, r4, #0, #19
1949:Drivers/STM32F4xx_HAL_Driver/Src/stm32f4xx_ll_usb.c ****                             (((uint32_t)num_packets << 19) & USB_OTG_HCTSIZ_PKTCNT) |
 4460              		.loc 1 1949 60 view .LVU1526
 4461 00c2 714D     		ldr	r5, .L311
ARM GAS  C:\Users\marci\AppData\Local\Temp\ccNtE0Aw.s 			page 134


 4462 00c4 05EACC4C 		and	ip, r5, ip, lsl #19
 4463              	.LVL322:
1948:Drivers/STM32F4xx_HAL_Driver/Src/stm32f4xx_ll_usb.c ****                             (((uint32_t)num_packets << 19) & USB_OTG_HCTSIZ_PKTCNT) |
 4464              		.loc 1 1948 68 view .LVU1527
 4465 00c8 44EA0C04 		orr	r4, r4, ip
1950:Drivers/STM32F4xx_HAL_Driver/Src/stm32f4xx_ll_usb.c ****                             (((uint32_t)hc->data_pid << 29) & USB_OTG_HCTSIZ_DPID);
 4466              		.loc 1 1950 43 view .LVU1528
 4467 00cc 91F816C0 		ldrb	ip, [r1, #22]	@ zero_extendqisi2
 4468              		.loc 1 1950 54 view .LVU1529
 4469 00d0 4FEA4C7C 		lsl	ip, ip, #29
 4470              		.loc 1 1950 61 view .LVU1530
 4471 00d4 0CF0C04C 		and	ip, ip, #1610612736
1948:Drivers/STM32F4xx_HAL_Driver/Src/stm32f4xx_ll_usb.c ****                             (((uint32_t)num_packets << 19) & USB_OTG_HCTSIZ_PKTCNT) |
 4472              		.loc 1 1948 3 view .LVU1531
 4473 00d8 00EB4313 		add	r3, r0, r3, lsl #5
 4474              	.LVL323:
1948:Drivers/STM32F4xx_HAL_Driver/Src/stm32f4xx_ll_usb.c ****                             (((uint32_t)num_packets << 19) & USB_OTG_HCTSIZ_PKTCNT) |
 4475              		.loc 1 1948 3 view .LVU1532
 4476 00dc 03F5A06E 		add	lr, r3, #1280
1949:Drivers/STM32F4xx_HAL_Driver/Src/stm32f4xx_ll_usb.c ****                             (((uint32_t)num_packets << 19) & USB_OTG_HCTSIZ_PKTCNT) |
 4477              		.loc 1 1949 85 view .LVU1533
 4478 00e0 44EA0C04 		orr	r4, r4, ip
1948:Drivers/STM32F4xx_HAL_Driver/Src/stm32f4xx_ll_usb.c ****                             (((uint32_t)num_packets << 19) & USB_OTG_HCTSIZ_PKTCNT) |
 4479              		.loc 1 1948 27 view .LVU1534
 4480 00e4 CEF81040 		str	r4, [lr, #16]
 4481              	.LVL324:
1951:Drivers/STM32F4xx_HAL_Driver/Src/stm32f4xx_ll_usb.c **** 
1952:Drivers/STM32F4xx_HAL_Driver/Src/stm32f4xx_ll_usb.c ****   if (dma != 0U)
 4482              		.loc 1 1952 3 is_stmt 1 view .LVU1535
 4483              		.loc 1 1952 6 is_stmt 0 view .LVU1536
 4484 00e8 12B1     		cbz	r2, .L283
1953:Drivers/STM32F4xx_HAL_Driver/Src/stm32f4xx_ll_usb.c ****   {
1954:Drivers/STM32F4xx_HAL_Driver/Src/stm32f4xx_ll_usb.c ****     /* xfer_buff MUST be 32-bits aligned */
1955:Drivers/STM32F4xx_HAL_Driver/Src/stm32f4xx_ll_usb.c ****     USBx_HC(ch_num)->HCDMA = (uint32_t)hc->xfer_buff;
 4485              		.loc 1 1955 5 is_stmt 1 view .LVU1537
 4486              		.loc 1 1955 42 is_stmt 0 view .LVU1538
 4487 00ea 8C69     		ldr	r4, [r1, #24]
 4488              		.loc 1 1955 28 view .LVU1539
 4489 00ec CEF81440 		str	r4, [lr, #20]
 4490              	.L283:
1956:Drivers/STM32F4xx_HAL_Driver/Src/stm32f4xx_ll_usb.c ****   }
1957:Drivers/STM32F4xx_HAL_Driver/Src/stm32f4xx_ll_usb.c **** 
1958:Drivers/STM32F4xx_HAL_Driver/Src/stm32f4xx_ll_usb.c ****   is_oddframe = (((uint32_t)USBx_HOST->HFNUM & 0x01U) != 0U) ? 0U : 1U;
 4491              		.loc 1 1958 3 is_stmt 1 view .LVU1540
 4492              		.loc 1 1958 29 is_stmt 0 view .LVU1541
 4493 00f0 00F58065 		add	r5, r0, #1024
 4494              		.loc 1 1958 38 view .LVU1542
 4495 00f4 AC68     		ldr	r4, [r5, #8]
 4496              		.loc 1 1958 67 view .LVU1543
 4497 00f6 14F0010F 		tst	r4, #1
 4498 00fa 0CBF     		ite	eq
 4499 00fc 4FF0010C 		moveq	ip, #1
 4500 0100 4FF0000C 		movne	ip, #0
 4501              	.LVL325:
1959:Drivers/STM32F4xx_HAL_Driver/Src/stm32f4xx_ll_usb.c ****   USBx_HC(ch_num)->HCCHAR &= ~USB_OTG_HCCHAR_ODDFRM;
 4502              		.loc 1 1959 3 is_stmt 1 view .LVU1544
 4503              		.loc 1 1959 18 is_stmt 0 view .LVU1545
ARM GAS  C:\Users\marci\AppData\Local\Temp\ccNtE0Aw.s 			page 135


 4504 0104 D3F80045 		ldr	r4, [r3, #1280]
 4505              		.loc 1 1959 27 view .LVU1546
 4506 0108 24F00054 		bic	r4, r4, #536870912
 4507 010c C3F80045 		str	r4, [r3, #1280]
1960:Drivers/STM32F4xx_HAL_Driver/Src/stm32f4xx_ll_usb.c ****   USBx_HC(ch_num)->HCCHAR |= (uint32_t)is_oddframe << 29;
 4508              		.loc 1 1960 3 is_stmt 1 view .LVU1547
 4509              		.loc 1 1960 18 is_stmt 0 view .LVU1548
 4510 0110 D3F80045 		ldr	r4, [r3, #1280]
 4511              		.loc 1 1960 27 view .LVU1549
 4512 0114 44EA4C74 		orr	r4, r4, ip, lsl #29
 4513 0118 C3F80045 		str	r4, [r3, #1280]
1961:Drivers/STM32F4xx_HAL_Driver/Src/stm32f4xx_ll_usb.c **** 
1962:Drivers/STM32F4xx_HAL_Driver/Src/stm32f4xx_ll_usb.c ****   if (hc->do_ssplit == 1U)
 4514              		.loc 1 1962 3 is_stmt 1 view .LVU1550
 4515              		.loc 1 1962 9 is_stmt 0 view .LVU1551
 4516 011c 8C79     		ldrb	r4, [r1, #6]	@ zero_extendqisi2
 4517              		.loc 1 1962 6 view .LVU1552
 4518 011e 012C     		cmp	r4, #1
 4519 0120 2ED0     		beq	.L309
1963:Drivers/STM32F4xx_HAL_Driver/Src/stm32f4xx_ll_usb.c ****   {
1964:Drivers/STM32F4xx_HAL_Driver/Src/stm32f4xx_ll_usb.c ****     /* Set Hub start Split transaction */
1965:Drivers/STM32F4xx_HAL_Driver/Src/stm32f4xx_ll_usb.c ****     USBx_HC((uint32_t)ch_num)->HCSPLT = ((uint32_t)hc->hub_addr << USB_OTG_HCSPLT_HUBADDR_Pos) |
1966:Drivers/STM32F4xx_HAL_Driver/Src/stm32f4xx_ll_usb.c ****                                         (uint32_t)hc->hub_port_nbr | USB_OTG_HCSPLT_SPLITEN;
1967:Drivers/STM32F4xx_HAL_Driver/Src/stm32f4xx_ll_usb.c **** 
1968:Drivers/STM32F4xx_HAL_Driver/Src/stm32f4xx_ll_usb.c ****     /* unmask ack & nyet for IN/OUT transactions */
1969:Drivers/STM32F4xx_HAL_Driver/Src/stm32f4xx_ll_usb.c ****     USBx_HC((uint32_t)ch_num)->HCINTMSK |= (USB_OTG_HCINTMSK_ACKM |
1970:Drivers/STM32F4xx_HAL_Driver/Src/stm32f4xx_ll_usb.c ****                                             USB_OTG_HCINTMSK_NYET);
1971:Drivers/STM32F4xx_HAL_Driver/Src/stm32f4xx_ll_usb.c **** 
1972:Drivers/STM32F4xx_HAL_Driver/Src/stm32f4xx_ll_usb.c ****     if ((hc->do_csplit == 1U) && (hc->ep_is_in == 0U))
1973:Drivers/STM32F4xx_HAL_Driver/Src/stm32f4xx_ll_usb.c ****     {
1974:Drivers/STM32F4xx_HAL_Driver/Src/stm32f4xx_ll_usb.c ****       USBx_HC((uint32_t)ch_num)->HCSPLT |= USB_OTG_HCSPLT_COMPLSPLT;
1975:Drivers/STM32F4xx_HAL_Driver/Src/stm32f4xx_ll_usb.c ****       USBx_HC((uint32_t)ch_num)->HCINTMSK |= USB_OTG_HCINTMSK_NYET;
1976:Drivers/STM32F4xx_HAL_Driver/Src/stm32f4xx_ll_usb.c ****     }
1977:Drivers/STM32F4xx_HAL_Driver/Src/stm32f4xx_ll_usb.c **** 
1978:Drivers/STM32F4xx_HAL_Driver/Src/stm32f4xx_ll_usb.c ****     if (((hc->ep_type == EP_TYPE_ISOC) || (hc->ep_type == EP_TYPE_INTR)) &&
1979:Drivers/STM32F4xx_HAL_Driver/Src/stm32f4xx_ll_usb.c ****         (hc->do_csplit == 1U) && (hc->ep_is_in == 1U))
1980:Drivers/STM32F4xx_HAL_Driver/Src/stm32f4xx_ll_usb.c ****     {
1981:Drivers/STM32F4xx_HAL_Driver/Src/stm32f4xx_ll_usb.c ****       USBx_HC((uint32_t)ch_num)->HCSPLT |= USB_OTG_HCSPLT_COMPLSPLT;
1982:Drivers/STM32F4xx_HAL_Driver/Src/stm32f4xx_ll_usb.c ****     }
1983:Drivers/STM32F4xx_HAL_Driver/Src/stm32f4xx_ll_usb.c **** 
1984:Drivers/STM32F4xx_HAL_Driver/Src/stm32f4xx_ll_usb.c ****     /* Position management for iso out transaction on split mode */
1985:Drivers/STM32F4xx_HAL_Driver/Src/stm32f4xx_ll_usb.c ****     if ((hc->ep_type == EP_TYPE_ISOC) && (hc->ep_is_in == 0U))
1986:Drivers/STM32F4xx_HAL_Driver/Src/stm32f4xx_ll_usb.c ****     {
1987:Drivers/STM32F4xx_HAL_Driver/Src/stm32f4xx_ll_usb.c ****       /* Set data payload position */
1988:Drivers/STM32F4xx_HAL_Driver/Src/stm32f4xx_ll_usb.c ****       switch (hc->iso_splt_xactPos)
1989:Drivers/STM32F4xx_HAL_Driver/Src/stm32f4xx_ll_usb.c ****       {
1990:Drivers/STM32F4xx_HAL_Driver/Src/stm32f4xx_ll_usb.c ****         case HCSPLT_BEGIN:
1991:Drivers/STM32F4xx_HAL_Driver/Src/stm32f4xx_ll_usb.c ****           /* First data payload for OUT Transaction */
1992:Drivers/STM32F4xx_HAL_Driver/Src/stm32f4xx_ll_usb.c ****           USBx_HC((uint32_t)ch_num)->HCSPLT |= USB_OTG_HCSPLT_XACTPOS_1;
1993:Drivers/STM32F4xx_HAL_Driver/Src/stm32f4xx_ll_usb.c ****           break;
1994:Drivers/STM32F4xx_HAL_Driver/Src/stm32f4xx_ll_usb.c **** 
1995:Drivers/STM32F4xx_HAL_Driver/Src/stm32f4xx_ll_usb.c ****         case HCSPLT_MIDDLE:
1996:Drivers/STM32F4xx_HAL_Driver/Src/stm32f4xx_ll_usb.c ****           /* Middle data payload for OUT Transaction */
1997:Drivers/STM32F4xx_HAL_Driver/Src/stm32f4xx_ll_usb.c ****           USBx_HC((uint32_t)ch_num)->HCSPLT |= USB_OTG_HCSPLT_XACTPOS_Pos;
1998:Drivers/STM32F4xx_HAL_Driver/Src/stm32f4xx_ll_usb.c ****           break;
1999:Drivers/STM32F4xx_HAL_Driver/Src/stm32f4xx_ll_usb.c **** 
2000:Drivers/STM32F4xx_HAL_Driver/Src/stm32f4xx_ll_usb.c ****         case HCSPLT_END:
ARM GAS  C:\Users\marci\AppData\Local\Temp\ccNtE0Aw.s 			page 136


2001:Drivers/STM32F4xx_HAL_Driver/Src/stm32f4xx_ll_usb.c ****           /* End data payload for OUT Transaction */
2002:Drivers/STM32F4xx_HAL_Driver/Src/stm32f4xx_ll_usb.c ****           USBx_HC((uint32_t)ch_num)->HCSPLT |= USB_OTG_HCSPLT_XACTPOS_0;
2003:Drivers/STM32F4xx_HAL_Driver/Src/stm32f4xx_ll_usb.c ****           break;
2004:Drivers/STM32F4xx_HAL_Driver/Src/stm32f4xx_ll_usb.c **** 
2005:Drivers/STM32F4xx_HAL_Driver/Src/stm32f4xx_ll_usb.c ****         case HCSPLT_FULL:
2006:Drivers/STM32F4xx_HAL_Driver/Src/stm32f4xx_ll_usb.c ****           /* Entire data payload for OUT Transaction */
2007:Drivers/STM32F4xx_HAL_Driver/Src/stm32f4xx_ll_usb.c ****           USBx_HC((uint32_t)ch_num)->HCSPLT |= USB_OTG_HCSPLT_XACTPOS;
2008:Drivers/STM32F4xx_HAL_Driver/Src/stm32f4xx_ll_usb.c ****           break;
2009:Drivers/STM32F4xx_HAL_Driver/Src/stm32f4xx_ll_usb.c **** 
2010:Drivers/STM32F4xx_HAL_Driver/Src/stm32f4xx_ll_usb.c ****         default:
2011:Drivers/STM32F4xx_HAL_Driver/Src/stm32f4xx_ll_usb.c ****           break;
2012:Drivers/STM32F4xx_HAL_Driver/Src/stm32f4xx_ll_usb.c ****       }
2013:Drivers/STM32F4xx_HAL_Driver/Src/stm32f4xx_ll_usb.c ****     }
2014:Drivers/STM32F4xx_HAL_Driver/Src/stm32f4xx_ll_usb.c ****   }
2015:Drivers/STM32F4xx_HAL_Driver/Src/stm32f4xx_ll_usb.c ****   else
2016:Drivers/STM32F4xx_HAL_Driver/Src/stm32f4xx_ll_usb.c ****   {
2017:Drivers/STM32F4xx_HAL_Driver/Src/stm32f4xx_ll_usb.c ****     /* Clear Hub Start Split transaction */
2018:Drivers/STM32F4xx_HAL_Driver/Src/stm32f4xx_ll_usb.c ****     USBx_HC((uint32_t)ch_num)->HCSPLT = 0U;
 4520              		.loc 1 2018 5 is_stmt 1 view .LVU1553
 4521              		.loc 1 2018 39 is_stmt 0 view .LVU1554
 4522 0122 0024     		movs	r4, #0
 4523 0124 CEF80440 		str	r4, [lr, #4]
 4524              	.LVL326:
 4525              	.L288:
2019:Drivers/STM32F4xx_HAL_Driver/Src/stm32f4xx_ll_usb.c ****   }
2020:Drivers/STM32F4xx_HAL_Driver/Src/stm32f4xx_ll_usb.c **** 
2021:Drivers/STM32F4xx_HAL_Driver/Src/stm32f4xx_ll_usb.c ****   /* Set host channel enable */
2022:Drivers/STM32F4xx_HAL_Driver/Src/stm32f4xx_ll_usb.c ****   tmpreg = USBx_HC(ch_num)->HCCHAR;
 4526              		.loc 1 2022 3 is_stmt 1 view .LVU1555
 4527              		.loc 1 2022 27 is_stmt 0 view .LVU1556
 4528 0128 D3F80045 		ldr	r4, [r3, #1280]
 4529              		.loc 1 2022 10 view .LVU1557
 4530 012c 0394     		str	r4, [sp, #12]
2023:Drivers/STM32F4xx_HAL_Driver/Src/stm32f4xx_ll_usb.c ****   tmpreg &= ~USB_OTG_HCCHAR_CHDIS;
 4531              		.loc 1 2023 3 is_stmt 1 view .LVU1558
 4532              		.loc 1 2023 10 is_stmt 0 view .LVU1559
 4533 012e 039C     		ldr	r4, [sp, #12]
 4534 0130 24F08044 		bic	r4, r4, #1073741824
 4535 0134 0394     		str	r4, [sp, #12]
2024:Drivers/STM32F4xx_HAL_Driver/Src/stm32f4xx_ll_usb.c **** 
2025:Drivers/STM32F4xx_HAL_Driver/Src/stm32f4xx_ll_usb.c ****   /* make sure to set the correct ep direction */
2026:Drivers/STM32F4xx_HAL_Driver/Src/stm32f4xx_ll_usb.c ****   if (hc->ep_is_in != 0U)
 4536              		.loc 1 2026 3 is_stmt 1 view .LVU1560
 4537              		.loc 1 2026 9 is_stmt 0 view .LVU1561
 4538 0136 CC78     		ldrb	r4, [r1, #3]	@ zero_extendqisi2
 4539              		.loc 1 2026 6 view .LVU1562
 4540 0138 002C     		cmp	r4, #0
 4541 013a 7FD0     		beq	.L294
2027:Drivers/STM32F4xx_HAL_Driver/Src/stm32f4xx_ll_usb.c ****   {
2028:Drivers/STM32F4xx_HAL_Driver/Src/stm32f4xx_ll_usb.c ****     tmpreg |= USB_OTG_HCCHAR_EPDIR;
 4542              		.loc 1 2028 5 is_stmt 1 view .LVU1563
 4543              		.loc 1 2028 12 is_stmt 0 view .LVU1564
 4544 013c 039C     		ldr	r4, [sp, #12]
 4545 013e 44F40044 		orr	r4, r4, #32768
 4546 0142 0394     		str	r4, [sp, #12]
 4547              	.L295:
2029:Drivers/STM32F4xx_HAL_Driver/Src/stm32f4xx_ll_usb.c ****   }
ARM GAS  C:\Users\marci\AppData\Local\Temp\ccNtE0Aw.s 			page 137


2030:Drivers/STM32F4xx_HAL_Driver/Src/stm32f4xx_ll_usb.c ****   else
2031:Drivers/STM32F4xx_HAL_Driver/Src/stm32f4xx_ll_usb.c ****   {
2032:Drivers/STM32F4xx_HAL_Driver/Src/stm32f4xx_ll_usb.c ****     tmpreg &= ~USB_OTG_HCCHAR_EPDIR;
2033:Drivers/STM32F4xx_HAL_Driver/Src/stm32f4xx_ll_usb.c ****   }
2034:Drivers/STM32F4xx_HAL_Driver/Src/stm32f4xx_ll_usb.c ****   tmpreg |= USB_OTG_HCCHAR_CHENA;
 4548              		.loc 1 2034 3 is_stmt 1 view .LVU1565
 4549              		.loc 1 2034 10 is_stmt 0 view .LVU1566
 4550 0144 039C     		ldr	r4, [sp, #12]
 4551 0146 44F00044 		orr	r4, r4, #-2147483648
 4552 014a 0394     		str	r4, [sp, #12]
2035:Drivers/STM32F4xx_HAL_Driver/Src/stm32f4xx_ll_usb.c ****   USBx_HC(ch_num)->HCCHAR = tmpreg;
 4553              		.loc 1 2035 3 is_stmt 1 view .LVU1567
 4554              		.loc 1 2035 27 is_stmt 0 view .LVU1568
 4555 014c 039C     		ldr	r4, [sp, #12]
 4556 014e C3F80045 		str	r4, [r3, #1280]
2036:Drivers/STM32F4xx_HAL_Driver/Src/stm32f4xx_ll_usb.c **** 
2037:Drivers/STM32F4xx_HAL_Driver/Src/stm32f4xx_ll_usb.c ****   if (dma != 0U) /* dma mode */
 4557              		.loc 1 2037 3 is_stmt 1 view .LVU1569
 4558              		.loc 1 2037 6 is_stmt 0 view .LVU1570
 4559 0152 002A     		cmp	r2, #0
 4560 0154 40F08980 		bne	.L296
2038:Drivers/STM32F4xx_HAL_Driver/Src/stm32f4xx_ll_usb.c ****   {
2039:Drivers/STM32F4xx_HAL_Driver/Src/stm32f4xx_ll_usb.c ****     return HAL_OK;
2040:Drivers/STM32F4xx_HAL_Driver/Src/stm32f4xx_ll_usb.c ****   }
2041:Drivers/STM32F4xx_HAL_Driver/Src/stm32f4xx_ll_usb.c **** 
2042:Drivers/STM32F4xx_HAL_Driver/Src/stm32f4xx_ll_usb.c ****   if ((hc->ep_is_in == 0U) && (hc->xfer_len > 0U) && (hc->do_csplit == 0U))
 4561              		.loc 1 2042 3 is_stmt 1 view .LVU1571
 4562              		.loc 1 2042 10 is_stmt 0 view .LVU1572
 4563 0158 CB78     		ldrb	r3, [r1, #3]	@ zero_extendqisi2
 4564              		.loc 1 2042 6 view .LVU1573
 4565 015a 002B     		cmp	r3, #0
 4566 015c 40F08580 		bne	.L296
 4567              		.loc 1 2042 34 discriminator 1 view .LVU1574
 4568 0160 0B6A     		ldr	r3, [r1, #32]
 4569              		.loc 1 2042 28 discriminator 1 view .LVU1575
 4570 0162 002B     		cmp	r3, #0
 4571 0164 00F08180 		beq	.L296
 4572              		.loc 1 2042 57 discriminator 2 view .LVU1576
 4573 0168 CA79     		ldrb	r2, [r1, #7]	@ zero_extendqisi2
 4574              	.LVL327:
 4575              		.loc 1 2042 51 discriminator 2 view .LVU1577
 4576 016a 002A     		cmp	r2, #0
 4577 016c 7DD1     		bne	.L296
2043:Drivers/STM32F4xx_HAL_Driver/Src/stm32f4xx_ll_usb.c ****   {
2044:Drivers/STM32F4xx_HAL_Driver/Src/stm32f4xx_ll_usb.c ****     switch (hc->ep_type)
 4578              		.loc 1 2044 5 is_stmt 1 view .LVU1578
 4579              		.loc 1 2044 15 is_stmt 0 view .LVU1579
 4580 016e 8A7C     		ldrb	r2, [r1, #18]	@ zero_extendqisi2
 4581              		.loc 1 2044 5 view .LVU1580
 4582 0170 032A     		cmp	r2, #3
 4583 0172 73D8     		bhi	.L297
 4584 0174 DFE802F0 		tbb	[pc, r2]
 4585              	.L299:
 4586 0178 67       		.byte	(.L300-.L299)/2
 4587 0179 7C       		.byte	(.L298-.L299)/2
 4588 017a 67       		.byte	(.L300-.L299)/2
 4589 017b 7C       		.byte	(.L298-.L299)/2
ARM GAS  C:\Users\marci\AppData\Local\Temp\ccNtE0Aw.s 			page 138


 4590              	.LVL328:
 4591              		.p2align 1
 4592              	.L282:
1943:Drivers/STM32F4xx_HAL_Driver/Src/stm32f4xx_ll_usb.c ****     }
 4593              		.loc 1 1943 7 is_stmt 1 view .LVU1581
1943:Drivers/STM32F4xx_HAL_Driver/Src/stm32f4xx_ll_usb.c ****     }
 4594              		.loc 1 1943 20 is_stmt 0 view .LVU1582
 4595 017c CC61     		str	r4, [r1, #28]
 4596 017e 9DE7     		b	.L275
 4597              	.LVL329:
 4598              	.L309:
1965:Drivers/STM32F4xx_HAL_Driver/Src/stm32f4xx_ll_usb.c ****                                         (uint32_t)hc->hub_port_nbr | USB_OTG_HCSPLT_SPLITEN;
 4599              		.loc 1 1965 5 is_stmt 1 view .LVU1583
1965:Drivers/STM32F4xx_HAL_Driver/Src/stm32f4xx_ll_usb.c ****                                         (uint32_t)hc->hub_port_nbr | USB_OTG_HCSPLT_SPLITEN;
 4600              		.loc 1 1965 54 is_stmt 0 view .LVU1584
 4601 0180 91F811C0 		ldrb	ip, [r1, #17]	@ zero_extendqisi2
 4602              	.LVL330:
1966:Drivers/STM32F4xx_HAL_Driver/Src/stm32f4xx_ll_usb.c **** 
 4603              		.loc 1 1966 53 view .LVU1585
 4604 0184 0C7C     		ldrb	r4, [r1, #16]	@ zero_extendqisi2
1965:Drivers/STM32F4xx_HAL_Driver/Src/stm32f4xx_ll_usb.c ****                                         (uint32_t)hc->hub_port_nbr | USB_OTG_HCSPLT_SPLITEN;
 4605              		.loc 1 1965 96 view .LVU1586
 4606 0186 44EACC14 		orr	r4, r4, ip, lsl #7
1966:Drivers/STM32F4xx_HAL_Driver/Src/stm32f4xx_ll_usb.c **** 
 4607              		.loc 1 1966 68 view .LVU1587
 4608 018a 44F00044 		orr	r4, r4, #-2147483648
1965:Drivers/STM32F4xx_HAL_Driver/Src/stm32f4xx_ll_usb.c ****                                         (uint32_t)hc->hub_port_nbr | USB_OTG_HCSPLT_SPLITEN;
 4609              		.loc 1 1965 39 view .LVU1588
 4610 018e CEF80440 		str	r4, [lr, #4]
1969:Drivers/STM32F4xx_HAL_Driver/Src/stm32f4xx_ll_usb.c ****                                             USB_OTG_HCINTMSK_NYET);
 4611              		.loc 1 1969 5 is_stmt 1 view .LVU1589
1969:Drivers/STM32F4xx_HAL_Driver/Src/stm32f4xx_ll_usb.c ****                                             USB_OTG_HCINTMSK_NYET);
 4612              		.loc 1 1969 30 is_stmt 0 view .LVU1590
 4613 0192 DEF80C40 		ldr	r4, [lr, #12]
1969:Drivers/STM32F4xx_HAL_Driver/Src/stm32f4xx_ll_usb.c ****                                             USB_OTG_HCINTMSK_NYET);
 4614              		.loc 1 1969 41 view .LVU1591
 4615 0196 44F06004 		orr	r4, r4, #96
 4616 019a CEF80C40 		str	r4, [lr, #12]
1972:Drivers/STM32F4xx_HAL_Driver/Src/stm32f4xx_ll_usb.c ****     {
 4617              		.loc 1 1972 5 is_stmt 1 view .LVU1592
1972:Drivers/STM32F4xx_HAL_Driver/Src/stm32f4xx_ll_usb.c ****     {
 4618              		.loc 1 1972 12 is_stmt 0 view .LVU1593
 4619 019e CC79     		ldrb	r4, [r1, #7]	@ zero_extendqisi2
1972:Drivers/STM32F4xx_HAL_Driver/Src/stm32f4xx_ll_usb.c ****     {
 4620              		.loc 1 1972 8 view .LVU1594
 4621 01a0 012C     		cmp	r4, #1
 4622 01a2 12D0     		beq	.L310
 4623              	.L285:
1978:Drivers/STM32F4xx_HAL_Driver/Src/stm32f4xx_ll_usb.c ****         (hc->do_csplit == 1U) && (hc->ep_is_in == 1U))
 4624              		.loc 1 1978 5 is_stmt 1 view .LVU1595
1978:Drivers/STM32F4xx_HAL_Driver/Src/stm32f4xx_ll_usb.c ****         (hc->do_csplit == 1U) && (hc->ep_is_in == 1U))
 4625              		.loc 1 1978 13 is_stmt 0 view .LVU1596
 4626 01a4 8C7C     		ldrb	r4, [r1, #18]	@ zero_extendqisi2
1978:Drivers/STM32F4xx_HAL_Driver/Src/stm32f4xx_ll_usb.c ****         (hc->do_csplit == 1U) && (hc->ep_is_in == 1U))
 4627              		.loc 1 1978 8 view .LVU1597
 4628 01a6 012C     		cmp	r4, #1
 4629 01a8 1FD0     		beq	.L286
ARM GAS  C:\Users\marci\AppData\Local\Temp\ccNtE0Aw.s 			page 139


1978:Drivers/STM32F4xx_HAL_Driver/Src/stm32f4xx_ll_usb.c ****         (hc->do_csplit == 1U) && (hc->ep_is_in == 1U))
 4630              		.loc 1 1978 40 discriminator 2 view .LVU1598
 4631 01aa 032C     		cmp	r4, #3
 4632 01ac 1DD0     		beq	.L286
 4633              	.L287:
1985:Drivers/STM32F4xx_HAL_Driver/Src/stm32f4xx_ll_usb.c ****     {
 4634              		.loc 1 1985 5 is_stmt 1 view .LVU1599
1985:Drivers/STM32F4xx_HAL_Driver/Src/stm32f4xx_ll_usb.c ****     {
 4635              		.loc 1 1985 12 is_stmt 0 view .LVU1600
 4636 01ae 8C7C     		ldrb	r4, [r1, #18]	@ zero_extendqisi2
1985:Drivers/STM32F4xx_HAL_Driver/Src/stm32f4xx_ll_usb.c ****     {
 4637              		.loc 1 1985 8 view .LVU1601
 4638 01b0 012C     		cmp	r4, #1
 4639 01b2 B9D1     		bne	.L288
1985:Drivers/STM32F4xx_HAL_Driver/Src/stm32f4xx_ll_usb.c ****     {
 4640              		.loc 1 1985 45 discriminator 1 view .LVU1602
 4641 01b4 CC78     		ldrb	r4, [r1, #3]	@ zero_extendqisi2
1985:Drivers/STM32F4xx_HAL_Driver/Src/stm32f4xx_ll_usb.c ****     {
 4642              		.loc 1 1985 39 discriminator 1 view .LVU1603
 4643 01b6 002C     		cmp	r4, #0
 4644 01b8 B6D1     		bne	.L288
1988:Drivers/STM32F4xx_HAL_Driver/Src/stm32f4xx_ll_usb.c ****       {
 4645              		.loc 1 1988 7 is_stmt 1 view .LVU1604
1988:Drivers/STM32F4xx_HAL_Driver/Src/stm32f4xx_ll_usb.c ****       {
 4646              		.loc 1 1988 17 is_stmt 0 view .LVU1605
 4647 01ba CC68     		ldr	r4, [r1, #12]
1988:Drivers/STM32F4xx_HAL_Driver/Src/stm32f4xx_ll_usb.c ****       {
 4648              		.loc 1 1988 7 view .LVU1606
 4649 01bc 013C     		subs	r4, r4, #1
 4650 01be 032C     		cmp	r4, #3
 4651 01c0 B2D8     		bhi	.L288
 4652 01c2 DFE804F0 		tbb	[pc, r4]
 4653              	.L290:
 4654 01c6 1F       		.byte	(.L293-.L290)/2
 4655 01c7 26       		.byte	(.L292-.L290)/2
 4656 01c8 2D       		.byte	(.L291-.L290)/2
 4657 01c9 34       		.byte	(.L289-.L290)/2
 4658              		.p2align 1
 4659              	.L310:
1972:Drivers/STM32F4xx_HAL_Driver/Src/stm32f4xx_ll_usb.c ****     {
 4660              		.loc 1 1972 37 discriminator 1 view .LVU1607
 4661 01ca CC78     		ldrb	r4, [r1, #3]	@ zero_extendqisi2
1972:Drivers/STM32F4xx_HAL_Driver/Src/stm32f4xx_ll_usb.c ****     {
 4662              		.loc 1 1972 31 discriminator 1 view .LVU1608
 4663 01cc 002C     		cmp	r4, #0
 4664 01ce E9D1     		bne	.L285
1974:Drivers/STM32F4xx_HAL_Driver/Src/stm32f4xx_ll_usb.c ****       USBx_HC((uint32_t)ch_num)->HCINTMSK |= USB_OTG_HCINTMSK_NYET;
 4665              		.loc 1 1974 7 is_stmt 1 view .LVU1609
1974:Drivers/STM32F4xx_HAL_Driver/Src/stm32f4xx_ll_usb.c ****       USBx_HC((uint32_t)ch_num)->HCINTMSK |= USB_OTG_HCINTMSK_NYET;
 4666              		.loc 1 1974 32 is_stmt 0 view .LVU1610
 4667 01d0 DEF80440 		ldr	r4, [lr, #4]
1974:Drivers/STM32F4xx_HAL_Driver/Src/stm32f4xx_ll_usb.c ****       USBx_HC((uint32_t)ch_num)->HCINTMSK |= USB_OTG_HCINTMSK_NYET;
 4668              		.loc 1 1974 41 view .LVU1611
 4669 01d4 44F48034 		orr	r4, r4, #65536
 4670 01d8 CEF80440 		str	r4, [lr, #4]
1975:Drivers/STM32F4xx_HAL_Driver/Src/stm32f4xx_ll_usb.c ****     }
 4671              		.loc 1 1975 7 is_stmt 1 view .LVU1612
ARM GAS  C:\Users\marci\AppData\Local\Temp\ccNtE0Aw.s 			page 140


1975:Drivers/STM32F4xx_HAL_Driver/Src/stm32f4xx_ll_usb.c ****     }
 4672              		.loc 1 1975 32 is_stmt 0 view .LVU1613
 4673 01dc DEF80C40 		ldr	r4, [lr, #12]
1975:Drivers/STM32F4xx_HAL_Driver/Src/stm32f4xx_ll_usb.c ****     }
 4674              		.loc 1 1975 43 view .LVU1614
 4675 01e0 44F04004 		orr	r4, r4, #64
 4676 01e4 CEF80C40 		str	r4, [lr, #12]
 4677 01e8 DCE7     		b	.L285
 4678              	.L286:
1979:Drivers/STM32F4xx_HAL_Driver/Src/stm32f4xx_ll_usb.c ****     {
 4679              		.loc 1 1979 12 view .LVU1615
 4680 01ea CC79     		ldrb	r4, [r1, #7]	@ zero_extendqisi2
1978:Drivers/STM32F4xx_HAL_Driver/Src/stm32f4xx_ll_usb.c ****         (hc->do_csplit == 1U) && (hc->ep_is_in == 1U))
 4681              		.loc 1 1978 74 discriminator 3 view .LVU1616
 4682 01ec 012C     		cmp	r4, #1
 4683 01ee DED1     		bne	.L287
1979:Drivers/STM32F4xx_HAL_Driver/Src/stm32f4xx_ll_usb.c ****     {
 4684              		.loc 1 1979 37 view .LVU1617
 4685 01f0 CC78     		ldrb	r4, [r1, #3]	@ zero_extendqisi2
1979:Drivers/STM32F4xx_HAL_Driver/Src/stm32f4xx_ll_usb.c ****     {
 4686              		.loc 1 1979 31 view .LVU1618
 4687 01f2 012C     		cmp	r4, #1
 4688 01f4 DBD1     		bne	.L287
1981:Drivers/STM32F4xx_HAL_Driver/Src/stm32f4xx_ll_usb.c ****     }
 4689              		.loc 1 1981 7 is_stmt 1 view .LVU1619
1981:Drivers/STM32F4xx_HAL_Driver/Src/stm32f4xx_ll_usb.c ****     }
 4690              		.loc 1 1981 32 is_stmt 0 view .LVU1620
 4691 01f6 DEF80440 		ldr	r4, [lr, #4]
1981:Drivers/STM32F4xx_HAL_Driver/Src/stm32f4xx_ll_usb.c ****     }
 4692              		.loc 1 1981 41 view .LVU1621
 4693 01fa 44F48034 		orr	r4, r4, #65536
 4694 01fe CEF80440 		str	r4, [lr, #4]
 4695 0202 D4E7     		b	.L287
 4696              	.L293:
1992:Drivers/STM32F4xx_HAL_Driver/Src/stm32f4xx_ll_usb.c ****           break;
 4697              		.loc 1 1992 11 is_stmt 1 view .LVU1622
1992:Drivers/STM32F4xx_HAL_Driver/Src/stm32f4xx_ll_usb.c ****           break;
 4698              		.loc 1 1992 36 is_stmt 0 view .LVU1623
 4699 0204 DEF80440 		ldr	r4, [lr, #4]
1992:Drivers/STM32F4xx_HAL_Driver/Src/stm32f4xx_ll_usb.c ****           break;
 4700              		.loc 1 1992 45 view .LVU1624
 4701 0208 44F40044 		orr	r4, r4, #32768
 4702 020c CEF80440 		str	r4, [lr, #4]
1993:Drivers/STM32F4xx_HAL_Driver/Src/stm32f4xx_ll_usb.c **** 
 4703              		.loc 1 1993 11 is_stmt 1 view .LVU1625
 4704 0210 8AE7     		b	.L288
 4705              	.L292:
1997:Drivers/STM32F4xx_HAL_Driver/Src/stm32f4xx_ll_usb.c ****           break;
 4706              		.loc 1 1997 11 view .LVU1626
1997:Drivers/STM32F4xx_HAL_Driver/Src/stm32f4xx_ll_usb.c ****           break;
 4707              		.loc 1 1997 36 is_stmt 0 view .LVU1627
 4708 0212 DEF80440 		ldr	r4, [lr, #4]
1997:Drivers/STM32F4xx_HAL_Driver/Src/stm32f4xx_ll_usb.c ****           break;
 4709              		.loc 1 1997 45 view .LVU1628
 4710 0216 44F00E04 		orr	r4, r4, #14
 4711 021a CEF80440 		str	r4, [lr, #4]
1998:Drivers/STM32F4xx_HAL_Driver/Src/stm32f4xx_ll_usb.c **** 
ARM GAS  C:\Users\marci\AppData\Local\Temp\ccNtE0Aw.s 			page 141


 4712              		.loc 1 1998 11 is_stmt 1 view .LVU1629
 4713 021e 83E7     		b	.L288
 4714              	.L291:
2002:Drivers/STM32F4xx_HAL_Driver/Src/stm32f4xx_ll_usb.c ****           break;
 4715              		.loc 1 2002 11 view .LVU1630
2002:Drivers/STM32F4xx_HAL_Driver/Src/stm32f4xx_ll_usb.c ****           break;
 4716              		.loc 1 2002 36 is_stmt 0 view .LVU1631
 4717 0220 DEF80440 		ldr	r4, [lr, #4]
2002:Drivers/STM32F4xx_HAL_Driver/Src/stm32f4xx_ll_usb.c ****           break;
 4718              		.loc 1 2002 45 view .LVU1632
 4719 0224 44F48044 		orr	r4, r4, #16384
 4720 0228 CEF80440 		str	r4, [lr, #4]
2003:Drivers/STM32F4xx_HAL_Driver/Src/stm32f4xx_ll_usb.c **** 
 4721              		.loc 1 2003 11 is_stmt 1 view .LVU1633
 4722 022c 7CE7     		b	.L288
 4723              	.L289:
2007:Drivers/STM32F4xx_HAL_Driver/Src/stm32f4xx_ll_usb.c ****           break;
 4724              		.loc 1 2007 11 view .LVU1634
2007:Drivers/STM32F4xx_HAL_Driver/Src/stm32f4xx_ll_usb.c ****           break;
 4725              		.loc 1 2007 36 is_stmt 0 view .LVU1635
 4726 022e DEF80440 		ldr	r4, [lr, #4]
2007:Drivers/STM32F4xx_HAL_Driver/Src/stm32f4xx_ll_usb.c ****           break;
 4727              		.loc 1 2007 45 view .LVU1636
 4728 0232 44F44044 		orr	r4, r4, #49152
 4729 0236 CEF80440 		str	r4, [lr, #4]
2008:Drivers/STM32F4xx_HAL_Driver/Src/stm32f4xx_ll_usb.c **** 
 4730              		.loc 1 2008 11 is_stmt 1 view .LVU1637
 4731 023a 75E7     		b	.L288
 4732              	.L294:
2032:Drivers/STM32F4xx_HAL_Driver/Src/stm32f4xx_ll_usb.c ****   }
 4733              		.loc 1 2032 5 view .LVU1638
2032:Drivers/STM32F4xx_HAL_Driver/Src/stm32f4xx_ll_usb.c ****   }
 4734              		.loc 1 2032 12 is_stmt 0 view .LVU1639
 4735 023c 039C     		ldr	r4, [sp, #12]
 4736 023e 24F40044 		bic	r4, r4, #32768
 4737 0242 0394     		str	r4, [sp, #12]
 4738 0244 7EE7     		b	.L295
 4739              	.LVL331:
 4740              	.L300:
2045:Drivers/STM32F4xx_HAL_Driver/Src/stm32f4xx_ll_usb.c ****     {
2046:Drivers/STM32F4xx_HAL_Driver/Src/stm32f4xx_ll_usb.c ****       /* Non periodic transfer */
2047:Drivers/STM32F4xx_HAL_Driver/Src/stm32f4xx_ll_usb.c ****       case EP_TYPE_CTRL:
2048:Drivers/STM32F4xx_HAL_Driver/Src/stm32f4xx_ll_usb.c ****       case EP_TYPE_BULK:
2049:Drivers/STM32F4xx_HAL_Driver/Src/stm32f4xx_ll_usb.c **** 
2050:Drivers/STM32F4xx_HAL_Driver/Src/stm32f4xx_ll_usb.c ****         len_words = (uint16_t)((hc->xfer_len + 3U) / 4U);
 4741              		.loc 1 2050 9 is_stmt 1 view .LVU1640
 4742              		.loc 1 2050 46 is_stmt 0 view .LVU1641
 4743 0246 0333     		adds	r3, r3, #3
 4744              	.LVL332:
2051:Drivers/STM32F4xx_HAL_Driver/Src/stm32f4xx_ll_usb.c **** 
2052:Drivers/STM32F4xx_HAL_Driver/Src/stm32f4xx_ll_usb.c ****         /* check if there is enough space in FIFO space */
2053:Drivers/STM32F4xx_HAL_Driver/Src/stm32f4xx_ll_usb.c ****         if (len_words > (USBx->HNPTXSTS & 0xFFFFU))
 4745              		.loc 1 2053 9 is_stmt 1 view .LVU1642
 4746              		.loc 1 2053 30 is_stmt 0 view .LVU1643
 4747 0248 C26A     		ldr	r2, [r0, #44]
 4748              		.loc 1 2053 41 view .LVU1644
 4749 024a 92B2     		uxth	r2, r2
ARM GAS  C:\Users\marci\AppData\Local\Temp\ccNtE0Aw.s 			page 142


 4750              		.loc 1 2053 12 view .LVU1645
 4751 024c C3F38F03 		ubfx	r3, r3, #2, #16
 4752              	.LVL333:
 4753              		.loc 1 2053 12 view .LVU1646
 4754 0250 9A42     		cmp	r2, r3
 4755 0252 03D2     		bcs	.L297
2054:Drivers/STM32F4xx_HAL_Driver/Src/stm32f4xx_ll_usb.c ****         {
2055:Drivers/STM32F4xx_HAL_Driver/Src/stm32f4xx_ll_usb.c ****           /* need to process data in nptxfempty interrupt */
2056:Drivers/STM32F4xx_HAL_Driver/Src/stm32f4xx_ll_usb.c ****           USBx->GINTMSK |= USB_OTG_GINTMSK_NPTXFEM;
 4756              		.loc 1 2056 11 is_stmt 1 view .LVU1647
 4757              		.loc 1 2056 15 is_stmt 0 view .LVU1648
 4758 0254 8369     		ldr	r3, [r0, #24]
 4759              		.loc 1 2056 25 view .LVU1649
 4760 0256 43F02003 		orr	r3, r3, #32
 4761 025a 8361     		str	r3, [r0, #24]
 4762              	.LVL334:
 4763              	.L297:
2057:Drivers/STM32F4xx_HAL_Driver/Src/stm32f4xx_ll_usb.c ****         }
2058:Drivers/STM32F4xx_HAL_Driver/Src/stm32f4xx_ll_usb.c ****         break;
2059:Drivers/STM32F4xx_HAL_Driver/Src/stm32f4xx_ll_usb.c **** 
2060:Drivers/STM32F4xx_HAL_Driver/Src/stm32f4xx_ll_usb.c ****       /* Periodic transfer */
2061:Drivers/STM32F4xx_HAL_Driver/Src/stm32f4xx_ll_usb.c ****       case EP_TYPE_INTR:
2062:Drivers/STM32F4xx_HAL_Driver/Src/stm32f4xx_ll_usb.c ****       case EP_TYPE_ISOC:
2063:Drivers/STM32F4xx_HAL_Driver/Src/stm32f4xx_ll_usb.c ****         len_words = (uint16_t)((hc->xfer_len + 3U) / 4U);
2064:Drivers/STM32F4xx_HAL_Driver/Src/stm32f4xx_ll_usb.c ****         /* check if there is enough space in FIFO space */
2065:Drivers/STM32F4xx_HAL_Driver/Src/stm32f4xx_ll_usb.c ****         if (len_words > (USBx_HOST->HPTXSTS & 0xFFFFU)) /* split the transfer */
2066:Drivers/STM32F4xx_HAL_Driver/Src/stm32f4xx_ll_usb.c ****         {
2067:Drivers/STM32F4xx_HAL_Driver/Src/stm32f4xx_ll_usb.c ****           /* need to process data in ptxfempty interrupt */
2068:Drivers/STM32F4xx_HAL_Driver/Src/stm32f4xx_ll_usb.c ****           USBx->GINTMSK |= USB_OTG_GINTMSK_PTXFEM;
2069:Drivers/STM32F4xx_HAL_Driver/Src/stm32f4xx_ll_usb.c ****         }
2070:Drivers/STM32F4xx_HAL_Driver/Src/stm32f4xx_ll_usb.c ****         break;
2071:Drivers/STM32F4xx_HAL_Driver/Src/stm32f4xx_ll_usb.c **** 
2072:Drivers/STM32F4xx_HAL_Driver/Src/stm32f4xx_ll_usb.c ****       default:
2073:Drivers/STM32F4xx_HAL_Driver/Src/stm32f4xx_ll_usb.c ****         break;
2074:Drivers/STM32F4xx_HAL_Driver/Src/stm32f4xx_ll_usb.c ****     }
2075:Drivers/STM32F4xx_HAL_Driver/Src/stm32f4xx_ll_usb.c **** 
2076:Drivers/STM32F4xx_HAL_Driver/Src/stm32f4xx_ll_usb.c ****     /* Write packet into the Tx FIFO. */
2077:Drivers/STM32F4xx_HAL_Driver/Src/stm32f4xx_ll_usb.c ****     (void)USB_WritePacket(USBx, hc->xfer_buff, hc->ch_num, (uint16_t)hc->xfer_len, 0);
 4764              		.loc 1 2077 5 is_stmt 1 view .LVU1650
 4765              		.loc 1 2077 11 is_stmt 0 view .LVU1651
 4766 025c 0023     		movs	r3, #0
 4767 025e 0093     		str	r3, [sp]
 4768 0260 0B8C     		ldrh	r3, [r1, #32]
 4769 0262 4A78     		ldrb	r2, [r1, #1]	@ zero_extendqisi2
 4770 0264 8969     		ldr	r1, [r1, #24]
 4771              	.LVL335:
 4772              		.loc 1 2077 11 view .LVU1652
 4773 0266 FFF7FEFF 		bl	USB_WritePacket
 4774              	.LVL336:
 4775              	.L296:
2078:Drivers/STM32F4xx_HAL_Driver/Src/stm32f4xx_ll_usb.c ****   }
2079:Drivers/STM32F4xx_HAL_Driver/Src/stm32f4xx_ll_usb.c **** 
2080:Drivers/STM32F4xx_HAL_Driver/Src/stm32f4xx_ll_usb.c ****   return HAL_OK;
2081:Drivers/STM32F4xx_HAL_Driver/Src/stm32f4xx_ll_usb.c **** }
 4776              		.loc 1 2081 1 view .LVU1653
 4777 026a 0020     		movs	r0, #0
 4778 026c 05B0     		add	sp, sp, #20
ARM GAS  C:\Users\marci\AppData\Local\Temp\ccNtE0Aw.s 			page 143


 4779              	.LCFI55:
 4780              		.cfi_remember_state
 4781              		.cfi_def_cfa_offset 12
 4782              		@ sp needed
 4783 026e 30BD     		pop	{r4, r5, pc}
 4784              	.LVL337:
 4785              	.L298:
 4786              	.LCFI56:
 4787              		.cfi_restore_state
2063:Drivers/STM32F4xx_HAL_Driver/Src/stm32f4xx_ll_usb.c ****         /* check if there is enough space in FIFO space */
 4788              		.loc 1 2063 9 is_stmt 1 view .LVU1654
2063:Drivers/STM32F4xx_HAL_Driver/Src/stm32f4xx_ll_usb.c ****         /* check if there is enough space in FIFO space */
 4789              		.loc 1 2063 46 is_stmt 0 view .LVU1655
 4790 0270 0333     		adds	r3, r3, #3
 4791              	.LVL338:
2065:Drivers/STM32F4xx_HAL_Driver/Src/stm32f4xx_ll_usb.c ****         {
 4792              		.loc 1 2065 9 is_stmt 1 view .LVU1656
2065:Drivers/STM32F4xx_HAL_Driver/Src/stm32f4xx_ll_usb.c ****         {
 4793              		.loc 1 2065 35 is_stmt 0 view .LVU1657
 4794 0272 2A69     		ldr	r2, [r5, #16]
2065:Drivers/STM32F4xx_HAL_Driver/Src/stm32f4xx_ll_usb.c ****         {
 4795              		.loc 1 2065 45 view .LVU1658
 4796 0274 92B2     		uxth	r2, r2
2065:Drivers/STM32F4xx_HAL_Driver/Src/stm32f4xx_ll_usb.c ****         {
 4797              		.loc 1 2065 12 view .LVU1659
 4798 0276 C3F38F03 		ubfx	r3, r3, #2, #16
 4799              	.LVL339:
2065:Drivers/STM32F4xx_HAL_Driver/Src/stm32f4xx_ll_usb.c ****         {
 4800              		.loc 1 2065 12 view .LVU1660
 4801 027a 9A42     		cmp	r2, r3
 4802 027c EED2     		bcs	.L297
2068:Drivers/STM32F4xx_HAL_Driver/Src/stm32f4xx_ll_usb.c ****         }
 4803              		.loc 1 2068 11 is_stmt 1 view .LVU1661
2068:Drivers/STM32F4xx_HAL_Driver/Src/stm32f4xx_ll_usb.c ****         }
 4804              		.loc 1 2068 15 is_stmt 0 view .LVU1662
 4805 027e 8369     		ldr	r3, [r0, #24]
2068:Drivers/STM32F4xx_HAL_Driver/Src/stm32f4xx_ll_usb.c ****         }
 4806              		.loc 1 2068 25 view .LVU1663
 4807 0280 43F08063 		orr	r3, r3, #67108864
 4808 0284 8361     		str	r3, [r0, #24]
 4809              	.LVL340:
2068:Drivers/STM32F4xx_HAL_Driver/Src/stm32f4xx_ll_usb.c ****         }
 4810              		.loc 1 2068 25 view .LVU1664
 4811 0286 E9E7     		b	.L297
 4812              	.L312:
 4813              		.align	2
 4814              	.L311:
 4815 0288 0000F81F 		.word	536346624
 4816              		.cfi_endproc
 4817              	.LFE176:
 4819              		.section	.text.USB_HC_ReadInterrupt,"ax",%progbits
 4820              		.align	1
 4821              		.global	USB_HC_ReadInterrupt
 4822              		.syntax unified
 4823              		.thumb
 4824              		.thumb_func
 4826              	USB_HC_ReadInterrupt:
ARM GAS  C:\Users\marci\AppData\Local\Temp\ccNtE0Aw.s 			page 144


 4827              	.LVL341:
 4828              	.LFB177:
2082:Drivers/STM32F4xx_HAL_Driver/Src/stm32f4xx_ll_usb.c **** 
2083:Drivers/STM32F4xx_HAL_Driver/Src/stm32f4xx_ll_usb.c **** /**
2084:Drivers/STM32F4xx_HAL_Driver/Src/stm32f4xx_ll_usb.c ****   * @brief Read all host channel interrupts status
2085:Drivers/STM32F4xx_HAL_Driver/Src/stm32f4xx_ll_usb.c ****   * @param  USBx  Selected device
2086:Drivers/STM32F4xx_HAL_Driver/Src/stm32f4xx_ll_usb.c ****   * @retval HAL state
2087:Drivers/STM32F4xx_HAL_Driver/Src/stm32f4xx_ll_usb.c ****   */
2088:Drivers/STM32F4xx_HAL_Driver/Src/stm32f4xx_ll_usb.c **** uint32_t USB_HC_ReadInterrupt(const USB_OTG_GlobalTypeDef *USBx)
2089:Drivers/STM32F4xx_HAL_Driver/Src/stm32f4xx_ll_usb.c **** {
 4829              		.loc 1 2089 1 is_stmt 1 view -0
 4830              		.cfi_startproc
 4831              		@ args = 0, pretend = 0, frame = 0
 4832              		@ frame_needed = 0, uses_anonymous_args = 0
 4833              		@ link register save eliminated.
2090:Drivers/STM32F4xx_HAL_Driver/Src/stm32f4xx_ll_usb.c ****   uint32_t USBx_BASE = (uint32_t)USBx;
 4834              		.loc 1 2090 3 view .LVU1666
2091:Drivers/STM32F4xx_HAL_Driver/Src/stm32f4xx_ll_usb.c **** 
2092:Drivers/STM32F4xx_HAL_Driver/Src/stm32f4xx_ll_usb.c ****   return ((USBx_HOST->HAINT) & 0xFFFFU);
 4835              		.loc 1 2092 3 view .LVU1667
 4836              		.loc 1 2092 12 is_stmt 0 view .LVU1668
 4837 0000 00F58060 		add	r0, r0, #1024
 4838              	.LVL342:
 4839              		.loc 1 2092 21 view .LVU1669
 4840 0004 4069     		ldr	r0, [r0, #20]
 4841              	.LVL343:
2093:Drivers/STM32F4xx_HAL_Driver/Src/stm32f4xx_ll_usb.c **** }
 4842              		.loc 1 2093 1 view .LVU1670
 4843 0006 80B2     		uxth	r0, r0
 4844 0008 7047     		bx	lr
 4845              		.cfi_endproc
 4846              	.LFE177:
 4848              		.section	.text.USB_HC_Halt,"ax",%progbits
 4849              		.align	1
 4850              		.global	USB_HC_Halt
 4851              		.syntax unified
 4852              		.thumb
 4853              		.thumb_func
 4855              	USB_HC_Halt:
 4856              	.LVL344:
 4857              	.LFB178:
2094:Drivers/STM32F4xx_HAL_Driver/Src/stm32f4xx_ll_usb.c **** 
2095:Drivers/STM32F4xx_HAL_Driver/Src/stm32f4xx_ll_usb.c **** /**
2096:Drivers/STM32F4xx_HAL_Driver/Src/stm32f4xx_ll_usb.c ****   * @brief  Halt a host channel
2097:Drivers/STM32F4xx_HAL_Driver/Src/stm32f4xx_ll_usb.c ****   * @param  USBx  Selected device
2098:Drivers/STM32F4xx_HAL_Driver/Src/stm32f4xx_ll_usb.c ****   * @param  hc_num  Host Channel number
2099:Drivers/STM32F4xx_HAL_Driver/Src/stm32f4xx_ll_usb.c ****   *         This parameter can be a value from 1 to 15
2100:Drivers/STM32F4xx_HAL_Driver/Src/stm32f4xx_ll_usb.c ****   * @retval HAL state
2101:Drivers/STM32F4xx_HAL_Driver/Src/stm32f4xx_ll_usb.c ****   */
2102:Drivers/STM32F4xx_HAL_Driver/Src/stm32f4xx_ll_usb.c **** HAL_StatusTypeDef USB_HC_Halt(const USB_OTG_GlobalTypeDef *USBx, uint8_t hc_num)
2103:Drivers/STM32F4xx_HAL_Driver/Src/stm32f4xx_ll_usb.c **** {
 4858              		.loc 1 2103 1 is_stmt 1 view -0
 4859              		.cfi_startproc
 4860              		@ args = 0, pretend = 0, frame = 8
 4861              		@ frame_needed = 0, uses_anonymous_args = 0
 4862              		@ link register save eliminated.
 4863              		.loc 1 2103 1 is_stmt 0 view .LVU1672
ARM GAS  C:\Users\marci\AppData\Local\Temp\ccNtE0Aw.s 			page 145


 4864 0000 70B4     		push	{r4, r5, r6}
 4865              	.LCFI57:
 4866              		.cfi_def_cfa_offset 12
 4867              		.cfi_offset 4, -12
 4868              		.cfi_offset 5, -8
 4869              		.cfi_offset 6, -4
 4870 0002 83B0     		sub	sp, sp, #12
 4871              	.LCFI58:
 4872              		.cfi_def_cfa_offset 24
2104:Drivers/STM32F4xx_HAL_Driver/Src/stm32f4xx_ll_usb.c ****   uint32_t USBx_BASE = (uint32_t)USBx;
 4873              		.loc 1 2104 3 is_stmt 1 view .LVU1673
 4874              	.LVL345:
2105:Drivers/STM32F4xx_HAL_Driver/Src/stm32f4xx_ll_usb.c ****   uint32_t hcnum = (uint32_t)hc_num;
 4875              		.loc 1 2105 3 view .LVU1674
2106:Drivers/STM32F4xx_HAL_Driver/Src/stm32f4xx_ll_usb.c ****   __IO uint32_t count = 0U;
 4876              		.loc 1 2106 3 view .LVU1675
 4877              		.loc 1 2106 17 is_stmt 0 view .LVU1676
 4878 0004 0023     		movs	r3, #0
 4879 0006 0193     		str	r3, [sp, #4]
2107:Drivers/STM32F4xx_HAL_Driver/Src/stm32f4xx_ll_usb.c ****   uint32_t HcEpType = (USBx_HC(hcnum)->HCCHAR & USB_OTG_HCCHAR_EPTYP) >> 18;
 4880              		.loc 1 2107 3 is_stmt 1 view .LVU1677
 4881              		.loc 1 2107 24 is_stmt 0 view .LVU1678
 4882 0008 00EB4111 		add	r1, r0, r1, lsl #5
 4883              	.LVL346:
 4884              		.loc 1 2107 24 view .LVU1679
 4885 000c 01F5A062 		add	r2, r1, #1280
 4886              		.loc 1 2107 38 view .LVU1680
 4887 0010 D1F80035 		ldr	r3, [r1, #1280]
 4888              		.loc 1 2107 12 view .LVU1681
 4889 0014 C3F38143 		ubfx	r3, r3, #18, #2
 4890              	.LVL347:
2108:Drivers/STM32F4xx_HAL_Driver/Src/stm32f4xx_ll_usb.c ****   uint32_t ChannelEna = (USBx_HC(hcnum)->HCCHAR & USB_OTG_HCCHAR_CHENA) >> 31;
 4891              		.loc 1 2108 3 is_stmt 1 view .LVU1682
 4892              		.loc 1 2108 40 is_stmt 0 view .LVU1683
 4893 0018 D1F80055 		ldr	r5, [r1, #1280]
 4894              	.LVL348:
2109:Drivers/STM32F4xx_HAL_Driver/Src/stm32f4xx_ll_usb.c ****   uint32_t SplitEna = (USBx_HC(hcnum)->HCSPLT & USB_OTG_HCSPLT_SPLITEN) >> 31;
 4895              		.loc 1 2109 3 is_stmt 1 view .LVU1684
 4896              		.loc 1 2109 38 is_stmt 0 view .LVU1685
 4897 001c 5468     		ldr	r4, [r2, #4]
 4898              	.LVL349:
2110:Drivers/STM32F4xx_HAL_Driver/Src/stm32f4xx_ll_usb.c **** 
2111:Drivers/STM32F4xx_HAL_Driver/Src/stm32f4xx_ll_usb.c ****   /* In buffer DMA, Channel disable must not be programmed for non-split periodic channels.
2112:Drivers/STM32F4xx_HAL_Driver/Src/stm32f4xx_ll_usb.c ****      At the end of the next uframe/frame (in the worst case), the core generates a channel halted
2113:Drivers/STM32F4xx_HAL_Driver/Src/stm32f4xx_ll_usb.c ****      and disables the channel automatically. */
2114:Drivers/STM32F4xx_HAL_Driver/Src/stm32f4xx_ll_usb.c **** 
2115:Drivers/STM32F4xx_HAL_Driver/Src/stm32f4xx_ll_usb.c ****   if ((((USBx->GAHBCFG & USB_OTG_GAHBCFG_DMAEN) == USB_OTG_GAHBCFG_DMAEN) && (SplitEna == 0U)) &&
 4899              		.loc 1 2115 3 is_stmt 1 view .LVU1686
 4900              		.loc 1 2115 14 is_stmt 0 view .LVU1687
 4901 001e 8668     		ldr	r6, [r0, #8]
 4902              		.loc 1 2115 6 view .LVU1688
 4903 0020 16F0200F 		tst	r6, #32
 4904 0024 08D0     		beq	.L315
 4905 0026 ED0F     		lsrs	r5, r5, #31
 4906              	.LVL350:
 4907              		.loc 1 2115 6 view .LVU1689
 4908 0028 E40F     		lsrs	r4, r4, #31
ARM GAS  C:\Users\marci\AppData\Local\Temp\ccNtE0Aw.s 			page 146


 4909              	.LVL351:
 4910              		.loc 1 2115 75 discriminator 1 view .LVU1690
 4911 002a 2CB9     		cbnz	r4, .L315
 4912              		.loc 1 2115 96 discriminator 2 view .LVU1691
 4913 002c 002D     		cmp	r5, #0
 4914 002e 5AD0     		beq	.L316
2116:Drivers/STM32F4xx_HAL_Driver/Src/stm32f4xx_ll_usb.c ****       ((ChannelEna == 0U) || (((HcEpType == HCCHAR_ISOC) || (HcEpType == HCCHAR_INTR)))))
 4915              		.loc 1 2116 27 view .LVU1692
 4916 0030 012B     		cmp	r3, #1
 4917 0032 58D0     		beq	.L316
 4918              		.loc 1 2116 58 discriminator 1 view .LVU1693
 4919 0034 032B     		cmp	r3, #3
 4920 0036 56D0     		beq	.L316
 4921              	.LVL352:
 4922              	.L315:
2117:Drivers/STM32F4xx_HAL_Driver/Src/stm32f4xx_ll_usb.c ****   {
2118:Drivers/STM32F4xx_HAL_Driver/Src/stm32f4xx_ll_usb.c ****     return HAL_OK;
2119:Drivers/STM32F4xx_HAL_Driver/Src/stm32f4xx_ll_usb.c ****   }
2120:Drivers/STM32F4xx_HAL_Driver/Src/stm32f4xx_ll_usb.c **** 
2121:Drivers/STM32F4xx_HAL_Driver/Src/stm32f4xx_ll_usb.c ****   /* Check for space in the request queue to issue the halt. */
2122:Drivers/STM32F4xx_HAL_Driver/Src/stm32f4xx_ll_usb.c ****   if ((HcEpType == HCCHAR_CTRL) || (HcEpType == HCCHAR_BULK))
 4923              		.loc 1 2122 3 is_stmt 1 view .LVU1694
 4924              		.loc 1 2122 6 is_stmt 0 view .LVU1695
 4925 0038 1BB3     		cbz	r3, .L317
 4926              		.loc 1 2122 33 discriminator 1 view .LVU1696
 4927 003a 022B     		cmp	r3, #2
 4928 003c 21D0     		beq	.L317
2123:Drivers/STM32F4xx_HAL_Driver/Src/stm32f4xx_ll_usb.c ****   {
2124:Drivers/STM32F4xx_HAL_Driver/Src/stm32f4xx_ll_usb.c ****     USBx_HC(hcnum)->HCCHAR |= USB_OTG_HCCHAR_CHDIS;
2125:Drivers/STM32F4xx_HAL_Driver/Src/stm32f4xx_ll_usb.c **** 
2126:Drivers/STM32F4xx_HAL_Driver/Src/stm32f4xx_ll_usb.c ****     if ((USBx->GAHBCFG & USB_OTG_GAHBCFG_DMAEN) == 0U)
2127:Drivers/STM32F4xx_HAL_Driver/Src/stm32f4xx_ll_usb.c ****     {
2128:Drivers/STM32F4xx_HAL_Driver/Src/stm32f4xx_ll_usb.c ****       if ((USBx->HNPTXSTS & (0xFFU << 16)) == 0U)
2129:Drivers/STM32F4xx_HAL_Driver/Src/stm32f4xx_ll_usb.c ****       {
2130:Drivers/STM32F4xx_HAL_Driver/Src/stm32f4xx_ll_usb.c ****         USBx_HC(hcnum)->HCCHAR &= ~USB_OTG_HCCHAR_CHENA;
2131:Drivers/STM32F4xx_HAL_Driver/Src/stm32f4xx_ll_usb.c ****         USBx_HC(hcnum)->HCCHAR |= USB_OTG_HCCHAR_CHENA;
2132:Drivers/STM32F4xx_HAL_Driver/Src/stm32f4xx_ll_usb.c ****         do
2133:Drivers/STM32F4xx_HAL_Driver/Src/stm32f4xx_ll_usb.c ****         {
2134:Drivers/STM32F4xx_HAL_Driver/Src/stm32f4xx_ll_usb.c ****           count++;
2135:Drivers/STM32F4xx_HAL_Driver/Src/stm32f4xx_ll_usb.c **** 
2136:Drivers/STM32F4xx_HAL_Driver/Src/stm32f4xx_ll_usb.c ****           if (count > 1000U)
2137:Drivers/STM32F4xx_HAL_Driver/Src/stm32f4xx_ll_usb.c ****           {
2138:Drivers/STM32F4xx_HAL_Driver/Src/stm32f4xx_ll_usb.c ****             break;
2139:Drivers/STM32F4xx_HAL_Driver/Src/stm32f4xx_ll_usb.c ****           }
2140:Drivers/STM32F4xx_HAL_Driver/Src/stm32f4xx_ll_usb.c ****         } while ((USBx_HC(hcnum)->HCCHAR & USB_OTG_HCCHAR_CHENA) == USB_OTG_HCCHAR_CHENA);
2141:Drivers/STM32F4xx_HAL_Driver/Src/stm32f4xx_ll_usb.c ****       }
2142:Drivers/STM32F4xx_HAL_Driver/Src/stm32f4xx_ll_usb.c ****       else
2143:Drivers/STM32F4xx_HAL_Driver/Src/stm32f4xx_ll_usb.c ****       {
2144:Drivers/STM32F4xx_HAL_Driver/Src/stm32f4xx_ll_usb.c ****         USBx_HC(hcnum)->HCCHAR |= USB_OTG_HCCHAR_CHENA;
2145:Drivers/STM32F4xx_HAL_Driver/Src/stm32f4xx_ll_usb.c ****       }
2146:Drivers/STM32F4xx_HAL_Driver/Src/stm32f4xx_ll_usb.c ****     }
2147:Drivers/STM32F4xx_HAL_Driver/Src/stm32f4xx_ll_usb.c ****     else
2148:Drivers/STM32F4xx_HAL_Driver/Src/stm32f4xx_ll_usb.c ****     {
2149:Drivers/STM32F4xx_HAL_Driver/Src/stm32f4xx_ll_usb.c ****       USBx_HC(hcnum)->HCCHAR |= USB_OTG_HCCHAR_CHENA;
2150:Drivers/STM32F4xx_HAL_Driver/Src/stm32f4xx_ll_usb.c ****     }
2151:Drivers/STM32F4xx_HAL_Driver/Src/stm32f4xx_ll_usb.c ****   }
2152:Drivers/STM32F4xx_HAL_Driver/Src/stm32f4xx_ll_usb.c ****   else
ARM GAS  C:\Users\marci\AppData\Local\Temp\ccNtE0Aw.s 			page 147


2153:Drivers/STM32F4xx_HAL_Driver/Src/stm32f4xx_ll_usb.c ****   {
2154:Drivers/STM32F4xx_HAL_Driver/Src/stm32f4xx_ll_usb.c ****     USBx_HC(hcnum)->HCCHAR |= USB_OTG_HCCHAR_CHDIS;
 4929              		.loc 1 2154 5 is_stmt 1 view .LVU1697
 4930              		.loc 1 2154 19 is_stmt 0 view .LVU1698
 4931 003e D1F80035 		ldr	r3, [r1, #1280]
 4932              	.LVL353:
 4933              		.loc 1 2154 28 view .LVU1699
 4934 0042 43F08043 		orr	r3, r3, #1073741824
 4935 0046 C1F80035 		str	r3, [r1, #1280]
2155:Drivers/STM32F4xx_HAL_Driver/Src/stm32f4xx_ll_usb.c **** 
2156:Drivers/STM32F4xx_HAL_Driver/Src/stm32f4xx_ll_usb.c ****     if ((USBx_HOST->HPTXSTS & (0xFFU << 16)) == 0U)
 4936              		.loc 1 2156 5 is_stmt 1 view .LVU1700
 4937              		.loc 1 2156 19 is_stmt 0 view .LVU1701
 4938 004a D0F81034 		ldr	r3, [r0, #1040]
 4939              		.loc 1 2156 8 view .LVU1702
 4940 004e 13F47F0F 		tst	r3, #16711680
 4941 0052 4CD1     		bne	.L322
2157:Drivers/STM32F4xx_HAL_Driver/Src/stm32f4xx_ll_usb.c ****     {
2158:Drivers/STM32F4xx_HAL_Driver/Src/stm32f4xx_ll_usb.c ****       USBx_HC(hcnum)->HCCHAR &= ~USB_OTG_HCCHAR_CHENA;
 4942              		.loc 1 2158 7 is_stmt 1 view .LVU1703
 4943              		.loc 1 2158 21 is_stmt 0 view .LVU1704
 4944 0054 D1F80035 		ldr	r3, [r1, #1280]
 4945              		.loc 1 2158 30 view .LVU1705
 4946 0058 23F00043 		bic	r3, r3, #-2147483648
 4947 005c C1F80035 		str	r3, [r1, #1280]
2159:Drivers/STM32F4xx_HAL_Driver/Src/stm32f4xx_ll_usb.c ****       USBx_HC(hcnum)->HCCHAR |= USB_OTG_HCCHAR_CHENA;
 4948              		.loc 1 2159 7 is_stmt 1 view .LVU1706
 4949              		.loc 1 2159 21 is_stmt 0 view .LVU1707
 4950 0060 D1F80035 		ldr	r3, [r1, #1280]
 4951              		.loc 1 2159 30 view .LVU1708
 4952 0064 43F00043 		orr	r3, r3, #-2147483648
 4953 0068 C1F80035 		str	r3, [r1, #1280]
 4954              	.L323:
2160:Drivers/STM32F4xx_HAL_Driver/Src/stm32f4xx_ll_usb.c ****       do
 4955              		.loc 1 2160 7 is_stmt 1 view .LVU1709
2161:Drivers/STM32F4xx_HAL_Driver/Src/stm32f4xx_ll_usb.c ****       {
2162:Drivers/STM32F4xx_HAL_Driver/Src/stm32f4xx_ll_usb.c ****         count++;
 4956              		.loc 1 2162 9 view .LVU1710
 4957              		.loc 1 2162 14 is_stmt 0 view .LVU1711
 4958 006c 019B     		ldr	r3, [sp, #4]
 4959 006e 0133     		adds	r3, r3, #1
 4960 0070 0193     		str	r3, [sp, #4]
2163:Drivers/STM32F4xx_HAL_Driver/Src/stm32f4xx_ll_usb.c **** 
2164:Drivers/STM32F4xx_HAL_Driver/Src/stm32f4xx_ll_usb.c ****         if (count > 1000U)
 4961              		.loc 1 2164 9 is_stmt 1 view .LVU1712
 4962              		.loc 1 2164 19 is_stmt 0 view .LVU1713
 4963 0072 019B     		ldr	r3, [sp, #4]
 4964              		.loc 1 2164 12 view .LVU1714
 4965 0074 B3F57A7F 		cmp	r3, #1000
 4966 0078 35D8     		bhi	.L316
2165:Drivers/STM32F4xx_HAL_Driver/Src/stm32f4xx_ll_usb.c ****         {
2166:Drivers/STM32F4xx_HAL_Driver/Src/stm32f4xx_ll_usb.c ****           break;
2167:Drivers/STM32F4xx_HAL_Driver/Src/stm32f4xx_ll_usb.c ****         }
2168:Drivers/STM32F4xx_HAL_Driver/Src/stm32f4xx_ll_usb.c ****       } while ((USBx_HC(hcnum)->HCCHAR & USB_OTG_HCCHAR_CHENA) == USB_OTG_HCCHAR_CHENA);
 4967              		.loc 1 2168 64 is_stmt 1 view .LVU1715
 4968              		.loc 1 2168 31 is_stmt 0 view .LVU1716
 4969 007a 1368     		ldr	r3, [r2]
ARM GAS  C:\Users\marci\AppData\Local\Temp\ccNtE0Aw.s 			page 148


 4970              		.loc 1 2168 64 view .LVU1717
 4971 007c 002B     		cmp	r3, #0
 4972 007e F5DB     		blt	.L323
 4973 0080 31E0     		b	.L316
 4974              	.LVL354:
 4975              	.L317:
2124:Drivers/STM32F4xx_HAL_Driver/Src/stm32f4xx_ll_usb.c **** 
 4976              		.loc 1 2124 5 is_stmt 1 view .LVU1718
2124:Drivers/STM32F4xx_HAL_Driver/Src/stm32f4xx_ll_usb.c **** 
 4977              		.loc 1 2124 19 is_stmt 0 view .LVU1719
 4978 0082 D1F80035 		ldr	r3, [r1, #1280]
 4979              	.LVL355:
2124:Drivers/STM32F4xx_HAL_Driver/Src/stm32f4xx_ll_usb.c **** 
 4980              		.loc 1 2124 28 view .LVU1720
 4981 0086 43F08043 		orr	r3, r3, #1073741824
 4982 008a C1F80035 		str	r3, [r1, #1280]
2126:Drivers/STM32F4xx_HAL_Driver/Src/stm32f4xx_ll_usb.c ****     {
 4983              		.loc 1 2126 5 is_stmt 1 view .LVU1721
2126:Drivers/STM32F4xx_HAL_Driver/Src/stm32f4xx_ll_usb.c ****     {
 4984              		.loc 1 2126 14 is_stmt 0 view .LVU1722
 4985 008e 8368     		ldr	r3, [r0, #8]
2126:Drivers/STM32F4xx_HAL_Driver/Src/stm32f4xx_ll_usb.c ****     {
 4986              		.loc 1 2126 8 view .LVU1723
 4987 0090 13F0200F 		tst	r3, #32
 4988 0094 21D1     		bne	.L319
2128:Drivers/STM32F4xx_HAL_Driver/Src/stm32f4xx_ll_usb.c ****       {
 4989              		.loc 1 2128 7 is_stmt 1 view .LVU1724
2128:Drivers/STM32F4xx_HAL_Driver/Src/stm32f4xx_ll_usb.c ****       {
 4990              		.loc 1 2128 16 is_stmt 0 view .LVU1725
 4991 0096 C36A     		ldr	r3, [r0, #44]
2128:Drivers/STM32F4xx_HAL_Driver/Src/stm32f4xx_ll_usb.c ****       {
 4992              		.loc 1 2128 10 view .LVU1726
 4993 0098 13F47F0F 		tst	r3, #16711680
 4994 009c 16D1     		bne	.L320
2130:Drivers/STM32F4xx_HAL_Driver/Src/stm32f4xx_ll_usb.c ****         USBx_HC(hcnum)->HCCHAR |= USB_OTG_HCCHAR_CHENA;
 4995              		.loc 1 2130 9 is_stmt 1 view .LVU1727
2130:Drivers/STM32F4xx_HAL_Driver/Src/stm32f4xx_ll_usb.c ****         USBx_HC(hcnum)->HCCHAR |= USB_OTG_HCCHAR_CHENA;
 4996              		.loc 1 2130 23 is_stmt 0 view .LVU1728
 4997 009e D1F80035 		ldr	r3, [r1, #1280]
2130:Drivers/STM32F4xx_HAL_Driver/Src/stm32f4xx_ll_usb.c ****         USBx_HC(hcnum)->HCCHAR |= USB_OTG_HCCHAR_CHENA;
 4998              		.loc 1 2130 32 view .LVU1729
 4999 00a2 23F00043 		bic	r3, r3, #-2147483648
 5000 00a6 C1F80035 		str	r3, [r1, #1280]
2131:Drivers/STM32F4xx_HAL_Driver/Src/stm32f4xx_ll_usb.c ****         do
 5001              		.loc 1 2131 9 is_stmt 1 view .LVU1730
2131:Drivers/STM32F4xx_HAL_Driver/Src/stm32f4xx_ll_usb.c ****         do
 5002              		.loc 1 2131 23 is_stmt 0 view .LVU1731
 5003 00aa D1F80035 		ldr	r3, [r1, #1280]
2131:Drivers/STM32F4xx_HAL_Driver/Src/stm32f4xx_ll_usb.c ****         do
 5004              		.loc 1 2131 32 view .LVU1732
 5005 00ae 43F00043 		orr	r3, r3, #-2147483648
 5006 00b2 C1F80035 		str	r3, [r1, #1280]
 5007              	.L321:
2132:Drivers/STM32F4xx_HAL_Driver/Src/stm32f4xx_ll_usb.c ****         {
 5008              		.loc 1 2132 9 is_stmt 1 view .LVU1733
2134:Drivers/STM32F4xx_HAL_Driver/Src/stm32f4xx_ll_usb.c **** 
 5009              		.loc 1 2134 11 view .LVU1734
ARM GAS  C:\Users\marci\AppData\Local\Temp\ccNtE0Aw.s 			page 149


2134:Drivers/STM32F4xx_HAL_Driver/Src/stm32f4xx_ll_usb.c **** 
 5010              		.loc 1 2134 16 is_stmt 0 view .LVU1735
 5011 00b6 019B     		ldr	r3, [sp, #4]
 5012 00b8 0133     		adds	r3, r3, #1
 5013 00ba 0193     		str	r3, [sp, #4]
2136:Drivers/STM32F4xx_HAL_Driver/Src/stm32f4xx_ll_usb.c ****           {
 5014              		.loc 1 2136 11 is_stmt 1 view .LVU1736
2136:Drivers/STM32F4xx_HAL_Driver/Src/stm32f4xx_ll_usb.c ****           {
 5015              		.loc 1 2136 21 is_stmt 0 view .LVU1737
 5016 00bc 019B     		ldr	r3, [sp, #4]
2136:Drivers/STM32F4xx_HAL_Driver/Src/stm32f4xx_ll_usb.c ****           {
 5017              		.loc 1 2136 14 view .LVU1738
 5018 00be B3F57A7F 		cmp	r3, #1000
 5019 00c2 10D8     		bhi	.L316
2140:Drivers/STM32F4xx_HAL_Driver/Src/stm32f4xx_ll_usb.c ****       }
 5020              		.loc 1 2140 66 is_stmt 1 view .LVU1739
2140:Drivers/STM32F4xx_HAL_Driver/Src/stm32f4xx_ll_usb.c ****       }
 5021              		.loc 1 2140 33 is_stmt 0 view .LVU1740
 5022 00c4 1368     		ldr	r3, [r2]
2140:Drivers/STM32F4xx_HAL_Driver/Src/stm32f4xx_ll_usb.c ****       }
 5023              		.loc 1 2140 66 view .LVU1741
 5024 00c6 002B     		cmp	r3, #0
 5025 00c8 F5DB     		blt	.L321
 5026 00ca 0CE0     		b	.L316
 5027              	.L320:
2144:Drivers/STM32F4xx_HAL_Driver/Src/stm32f4xx_ll_usb.c ****       }
 5028              		.loc 1 2144 9 is_stmt 1 view .LVU1742
2144:Drivers/STM32F4xx_HAL_Driver/Src/stm32f4xx_ll_usb.c ****       }
 5029              		.loc 1 2144 23 is_stmt 0 view .LVU1743
 5030 00cc D1F80035 		ldr	r3, [r1, #1280]
2144:Drivers/STM32F4xx_HAL_Driver/Src/stm32f4xx_ll_usb.c ****       }
 5031              		.loc 1 2144 32 view .LVU1744
 5032 00d0 43F00043 		orr	r3, r3, #-2147483648
 5033 00d4 C1F80035 		str	r3, [r1, #1280]
 5034 00d8 05E0     		b	.L316
 5035              	.L319:
2149:Drivers/STM32F4xx_HAL_Driver/Src/stm32f4xx_ll_usb.c ****     }
 5036              		.loc 1 2149 7 is_stmt 1 view .LVU1745
2149:Drivers/STM32F4xx_HAL_Driver/Src/stm32f4xx_ll_usb.c ****     }
 5037              		.loc 1 2149 21 is_stmt 0 view .LVU1746
 5038 00da D1F80035 		ldr	r3, [r1, #1280]
2149:Drivers/STM32F4xx_HAL_Driver/Src/stm32f4xx_ll_usb.c ****     }
 5039              		.loc 1 2149 30 view .LVU1747
 5040 00de 43F00043 		orr	r3, r3, #-2147483648
 5041 00e2 C1F80035 		str	r3, [r1, #1280]
 5042              	.L316:
2169:Drivers/STM32F4xx_HAL_Driver/Src/stm32f4xx_ll_usb.c ****     }
2170:Drivers/STM32F4xx_HAL_Driver/Src/stm32f4xx_ll_usb.c ****     else
2171:Drivers/STM32F4xx_HAL_Driver/Src/stm32f4xx_ll_usb.c ****     {
2172:Drivers/STM32F4xx_HAL_Driver/Src/stm32f4xx_ll_usb.c ****       USBx_HC(hcnum)->HCCHAR |= USB_OTG_HCCHAR_CHENA;
2173:Drivers/STM32F4xx_HAL_Driver/Src/stm32f4xx_ll_usb.c ****     }
2174:Drivers/STM32F4xx_HAL_Driver/Src/stm32f4xx_ll_usb.c ****   }
2175:Drivers/STM32F4xx_HAL_Driver/Src/stm32f4xx_ll_usb.c **** 
2176:Drivers/STM32F4xx_HAL_Driver/Src/stm32f4xx_ll_usb.c ****   return HAL_OK;
2177:Drivers/STM32F4xx_HAL_Driver/Src/stm32f4xx_ll_usb.c **** }
 5043              		.loc 1 2177 1 view .LVU1748
 5044 00e6 0020     		movs	r0, #0
ARM GAS  C:\Users\marci\AppData\Local\Temp\ccNtE0Aw.s 			page 150


 5045              	.LVL356:
 5046              		.loc 1 2177 1 view .LVU1749
 5047 00e8 03B0     		add	sp, sp, #12
 5048              	.LCFI59:
 5049              		.cfi_remember_state
 5050              		.cfi_def_cfa_offset 12
 5051              		@ sp needed
 5052 00ea 70BC     		pop	{r4, r5, r6}
 5053              	.LCFI60:
 5054              		.cfi_restore 6
 5055              		.cfi_restore 5
 5056              		.cfi_restore 4
 5057              		.cfi_def_cfa_offset 0
 5058 00ec 7047     		bx	lr
 5059              	.LVL357:
 5060              	.L322:
 5061              	.LCFI61:
 5062              		.cfi_restore_state
2172:Drivers/STM32F4xx_HAL_Driver/Src/stm32f4xx_ll_usb.c ****     }
 5063              		.loc 1 2172 7 is_stmt 1 view .LVU1750
2172:Drivers/STM32F4xx_HAL_Driver/Src/stm32f4xx_ll_usb.c ****     }
 5064              		.loc 1 2172 21 is_stmt 0 view .LVU1751
 5065 00ee D1F80035 		ldr	r3, [r1, #1280]
2172:Drivers/STM32F4xx_HAL_Driver/Src/stm32f4xx_ll_usb.c ****     }
 5066              		.loc 1 2172 30 view .LVU1752
 5067 00f2 43F00043 		orr	r3, r3, #-2147483648
 5068 00f6 C1F80035 		str	r3, [r1, #1280]
 5069 00fa F4E7     		b	.L316
 5070              		.cfi_endproc
 5071              	.LFE178:
 5073              		.section	.text.USB_DoPing,"ax",%progbits
 5074              		.align	1
 5075              		.global	USB_DoPing
 5076              		.syntax unified
 5077              		.thumb
 5078              		.thumb_func
 5080              	USB_DoPing:
 5081              	.LVL358:
 5082              	.LFB179:
2178:Drivers/STM32F4xx_HAL_Driver/Src/stm32f4xx_ll_usb.c **** 
2179:Drivers/STM32F4xx_HAL_Driver/Src/stm32f4xx_ll_usb.c **** /**
2180:Drivers/STM32F4xx_HAL_Driver/Src/stm32f4xx_ll_usb.c ****   * @brief  Initiate Do Ping protocol
2181:Drivers/STM32F4xx_HAL_Driver/Src/stm32f4xx_ll_usb.c ****   * @param  USBx  Selected device
2182:Drivers/STM32F4xx_HAL_Driver/Src/stm32f4xx_ll_usb.c ****   * @param  hc_num  Host Channel number
2183:Drivers/STM32F4xx_HAL_Driver/Src/stm32f4xx_ll_usb.c ****   *         This parameter can be a value from 1 to 15
2184:Drivers/STM32F4xx_HAL_Driver/Src/stm32f4xx_ll_usb.c ****   * @retval HAL state
2185:Drivers/STM32F4xx_HAL_Driver/Src/stm32f4xx_ll_usb.c ****   */
2186:Drivers/STM32F4xx_HAL_Driver/Src/stm32f4xx_ll_usb.c **** HAL_StatusTypeDef USB_DoPing(const USB_OTG_GlobalTypeDef *USBx, uint8_t ch_num)
2187:Drivers/STM32F4xx_HAL_Driver/Src/stm32f4xx_ll_usb.c **** {
 5083              		.loc 1 2187 1 is_stmt 1 view -0
 5084              		.cfi_startproc
 5085              		@ args = 0, pretend = 0, frame = 0
 5086              		@ frame_needed = 0, uses_anonymous_args = 0
 5087              		@ link register save eliminated.
2188:Drivers/STM32F4xx_HAL_Driver/Src/stm32f4xx_ll_usb.c ****   uint32_t USBx_BASE = (uint32_t)USBx;
 5088              		.loc 1 2188 3 view .LVU1754
2189:Drivers/STM32F4xx_HAL_Driver/Src/stm32f4xx_ll_usb.c ****   uint32_t chnum = (uint32_t)ch_num;
ARM GAS  C:\Users\marci\AppData\Local\Temp\ccNtE0Aw.s 			page 151


 5089              		.loc 1 2189 3 view .LVU1755
2190:Drivers/STM32F4xx_HAL_Driver/Src/stm32f4xx_ll_usb.c ****   uint32_t num_packets = 1U;
 5090              		.loc 1 2190 3 view .LVU1756
2191:Drivers/STM32F4xx_HAL_Driver/Src/stm32f4xx_ll_usb.c ****   uint32_t tmpreg;
 5091              		.loc 1 2191 3 view .LVU1757
2192:Drivers/STM32F4xx_HAL_Driver/Src/stm32f4xx_ll_usb.c **** 
2193:Drivers/STM32F4xx_HAL_Driver/Src/stm32f4xx_ll_usb.c ****   USBx_HC(chnum)->HCTSIZ = ((num_packets << 19) & USB_OTG_HCTSIZ_PKTCNT) |
 5092              		.loc 1 2193 3 view .LVU1758
 5093 0000 00EB4110 		add	r0, r0, r1, lsl #5
 5094              	.LVL359:
 5095              		.loc 1 2193 26 is_stmt 0 view .LVU1759
 5096 0004 064A     		ldr	r2, .L326
 5097 0006 C0F81025 		str	r2, [r0, #1296]
2194:Drivers/STM32F4xx_HAL_Driver/Src/stm32f4xx_ll_usb.c ****                            USB_OTG_HCTSIZ_DOPING;
2195:Drivers/STM32F4xx_HAL_Driver/Src/stm32f4xx_ll_usb.c **** 
2196:Drivers/STM32F4xx_HAL_Driver/Src/stm32f4xx_ll_usb.c ****   /* Set host channel enable */
2197:Drivers/STM32F4xx_HAL_Driver/Src/stm32f4xx_ll_usb.c ****   tmpreg = USBx_HC(chnum)->HCCHAR;
 5098              		.loc 1 2197 3 is_stmt 1 view .LVU1760
 5099              		.loc 1 2197 10 is_stmt 0 view .LVU1761
 5100 000a D0F80035 		ldr	r3, [r0, #1280]
 5101              	.LVL360:
2198:Drivers/STM32F4xx_HAL_Driver/Src/stm32f4xx_ll_usb.c ****   tmpreg &= ~USB_OTG_HCCHAR_CHDIS;
 5102              		.loc 1 2198 3 is_stmt 1 view .LVU1762
 5103              		.loc 1 2198 10 is_stmt 0 view .LVU1763
 5104 000e 23F08043 		bic	r3, r3, #1073741824
 5105              	.LVL361:
2199:Drivers/STM32F4xx_HAL_Driver/Src/stm32f4xx_ll_usb.c ****   tmpreg |= USB_OTG_HCCHAR_CHENA;
 5106              		.loc 1 2199 3 is_stmt 1 view .LVU1764
 5107              		.loc 1 2199 10 is_stmt 0 view .LVU1765
 5108 0012 43F00043 		orr	r3, r3, #-2147483648
 5109              	.LVL362:
2200:Drivers/STM32F4xx_HAL_Driver/Src/stm32f4xx_ll_usb.c ****   USBx_HC(chnum)->HCCHAR = tmpreg;
 5110              		.loc 1 2200 3 is_stmt 1 view .LVU1766
 5111              		.loc 1 2200 26 is_stmt 0 view .LVU1767
 5112 0016 C0F80035 		str	r3, [r0, #1280]
2201:Drivers/STM32F4xx_HAL_Driver/Src/stm32f4xx_ll_usb.c **** 
2202:Drivers/STM32F4xx_HAL_Driver/Src/stm32f4xx_ll_usb.c ****   return HAL_OK;
 5113              		.loc 1 2202 3 is_stmt 1 view .LVU1768
2203:Drivers/STM32F4xx_HAL_Driver/Src/stm32f4xx_ll_usb.c **** }
 5114              		.loc 1 2203 1 is_stmt 0 view .LVU1769
 5115 001a 0020     		movs	r0, #0
 5116 001c 7047     		bx	lr
 5117              	.L327:
 5118 001e 00BF     		.align	2
 5119              	.L326:
 5120 0020 00000880 		.word	-2146959360
 5121              		.cfi_endproc
 5122              	.LFE179:
 5124              		.section	.text.USB_StopHost,"ax",%progbits
 5125              		.align	1
 5126              		.global	USB_StopHost
 5127              		.syntax unified
 5128              		.thumb
 5129              		.thumb_func
 5131              	USB_StopHost:
 5132              	.LVL363:
 5133              	.LFB180:
ARM GAS  C:\Users\marci\AppData\Local\Temp\ccNtE0Aw.s 			page 152


2204:Drivers/STM32F4xx_HAL_Driver/Src/stm32f4xx_ll_usb.c **** 
2205:Drivers/STM32F4xx_HAL_Driver/Src/stm32f4xx_ll_usb.c **** /**
2206:Drivers/STM32F4xx_HAL_Driver/Src/stm32f4xx_ll_usb.c ****   * @brief  Stop Host Core
2207:Drivers/STM32F4xx_HAL_Driver/Src/stm32f4xx_ll_usb.c ****   * @param  USBx  Selected device
2208:Drivers/STM32F4xx_HAL_Driver/Src/stm32f4xx_ll_usb.c ****   * @retval HAL state
2209:Drivers/STM32F4xx_HAL_Driver/Src/stm32f4xx_ll_usb.c ****   */
2210:Drivers/STM32F4xx_HAL_Driver/Src/stm32f4xx_ll_usb.c **** HAL_StatusTypeDef USB_StopHost(USB_OTG_GlobalTypeDef *USBx)
2211:Drivers/STM32F4xx_HAL_Driver/Src/stm32f4xx_ll_usb.c **** {
 5134              		.loc 1 2211 1 is_stmt 1 view -0
 5135              		.cfi_startproc
 5136              		@ args = 0, pretend = 0, frame = 8
 5137              		@ frame_needed = 0, uses_anonymous_args = 0
 5138              		.loc 1 2211 1 is_stmt 0 view .LVU1771
 5139 0000 30B5     		push	{r4, r5, lr}
 5140              	.LCFI62:
 5141              		.cfi_def_cfa_offset 12
 5142              		.cfi_offset 4, -12
 5143              		.cfi_offset 5, -8
 5144              		.cfi_offset 14, -4
 5145 0002 83B0     		sub	sp, sp, #12
 5146              	.LCFI63:
 5147              		.cfi_def_cfa_offset 24
 5148 0004 0446     		mov	r4, r0
2212:Drivers/STM32F4xx_HAL_Driver/Src/stm32f4xx_ll_usb.c ****   HAL_StatusTypeDef ret = HAL_OK;
 5149              		.loc 1 2212 3 is_stmt 1 view .LVU1772
 5150              	.LVL364:
2213:Drivers/STM32F4xx_HAL_Driver/Src/stm32f4xx_ll_usb.c ****   uint32_t USBx_BASE = (uint32_t)USBx;
 5151              		.loc 1 2213 3 view .LVU1773
2214:Drivers/STM32F4xx_HAL_Driver/Src/stm32f4xx_ll_usb.c ****   __IO uint32_t count = 0U;
 5152              		.loc 1 2214 3 view .LVU1774
 5153              		.loc 1 2214 17 is_stmt 0 view .LVU1775
 5154 0006 0023     		movs	r3, #0
 5155 0008 0193     		str	r3, [sp, #4]
2215:Drivers/STM32F4xx_HAL_Driver/Src/stm32f4xx_ll_usb.c ****   uint32_t value;
 5156              		.loc 1 2215 3 is_stmt 1 view .LVU1776
2216:Drivers/STM32F4xx_HAL_Driver/Src/stm32f4xx_ll_usb.c ****   uint32_t i;
 5157              		.loc 1 2216 3 view .LVU1777
2217:Drivers/STM32F4xx_HAL_Driver/Src/stm32f4xx_ll_usb.c **** 
2218:Drivers/STM32F4xx_HAL_Driver/Src/stm32f4xx_ll_usb.c ****   (void)USB_DisableGlobalInt(USBx);
 5158              		.loc 1 2218 3 view .LVU1778
 5159              		.loc 1 2218 9 is_stmt 0 view .LVU1779
 5160 000a FFF7FEFF 		bl	USB_DisableGlobalInt
 5161              	.LVL365:
2219:Drivers/STM32F4xx_HAL_Driver/Src/stm32f4xx_ll_usb.c **** 
2220:Drivers/STM32F4xx_HAL_Driver/Src/stm32f4xx_ll_usb.c ****   /* Flush USB FIFO */
2221:Drivers/STM32F4xx_HAL_Driver/Src/stm32f4xx_ll_usb.c ****   if (USB_FlushTxFifo(USBx, 0x10U) != HAL_OK) /* all Tx FIFOs */
 5162              		.loc 1 2221 3 is_stmt 1 view .LVU1780
 5163              		.loc 1 2221 7 is_stmt 0 view .LVU1781
 5164 000e 1021     		movs	r1, #16
 5165 0010 2046     		mov	r0, r4
 5166 0012 FFF7FEFF 		bl	USB_FlushTxFifo
 5167              	.LVL366:
 5168              		.loc 1 2221 6 discriminator 1 view .LVU1782
 5169 0016 0546     		mov	r5, r0
 5170 0018 00B1     		cbz	r0, .L329
2222:Drivers/STM32F4xx_HAL_Driver/Src/stm32f4xx_ll_usb.c ****   {
2223:Drivers/STM32F4xx_HAL_Driver/Src/stm32f4xx_ll_usb.c ****     ret = HAL_ERROR;
ARM GAS  C:\Users\marci\AppData\Local\Temp\ccNtE0Aw.s 			page 153


 5171              		.loc 1 2223 9 view .LVU1783
 5172 001a 0125     		movs	r5, #1
 5173              	.L329:
 5174              	.LVL367:
2224:Drivers/STM32F4xx_HAL_Driver/Src/stm32f4xx_ll_usb.c ****   }
2225:Drivers/STM32F4xx_HAL_Driver/Src/stm32f4xx_ll_usb.c **** 
2226:Drivers/STM32F4xx_HAL_Driver/Src/stm32f4xx_ll_usb.c ****   if (USB_FlushRxFifo(USBx) != HAL_OK)
 5175              		.loc 1 2226 3 is_stmt 1 view .LVU1784
 5176              		.loc 1 2226 7 is_stmt 0 view .LVU1785
 5177 001c 2046     		mov	r0, r4
 5178 001e FFF7FEFF 		bl	USB_FlushRxFifo
 5179              	.LVL368:
 5180              		.loc 1 2226 6 discriminator 1 view .LVU1786
 5181 0022 00B1     		cbz	r0, .L330
2227:Drivers/STM32F4xx_HAL_Driver/Src/stm32f4xx_ll_usb.c ****   {
2228:Drivers/STM32F4xx_HAL_Driver/Src/stm32f4xx_ll_usb.c ****     ret = HAL_ERROR;
 5182              		.loc 1 2228 9 view .LVU1787
 5183 0024 0125     		movs	r5, #1
 5184              	.LVL369:
 5185              	.L330:
2229:Drivers/STM32F4xx_HAL_Driver/Src/stm32f4xx_ll_usb.c ****   }
2230:Drivers/STM32F4xx_HAL_Driver/Src/stm32f4xx_ll_usb.c **** 
2231:Drivers/STM32F4xx_HAL_Driver/Src/stm32f4xx_ll_usb.c ****   /* Flush out any leftover queued requests. */
2232:Drivers/STM32F4xx_HAL_Driver/Src/stm32f4xx_ll_usb.c ****   for (i = 0U; i <= 15U; i++)
 5186              		.loc 1 2232 3 is_stmt 1 view .LVU1788
 5187              		.loc 1 2232 10 is_stmt 0 view .LVU1789
 5188 0026 0022     		movs	r2, #0
 5189              		.loc 1 2232 3 view .LVU1790
 5190 0028 0AE0     		b	.L331
 5191              	.LVL370:
 5192              	.L332:
2233:Drivers/STM32F4xx_HAL_Driver/Src/stm32f4xx_ll_usb.c ****   {
2234:Drivers/STM32F4xx_HAL_Driver/Src/stm32f4xx_ll_usb.c ****     value = USBx_HC(i)->HCCHAR;
 5193              		.loc 1 2234 5 is_stmt 1 view .LVU1791
 5194              		.loc 1 2234 13 is_stmt 0 view .LVU1792
 5195 002a 04EB4211 		add	r1, r4, r2, lsl #5
 5196              		.loc 1 2234 11 view .LVU1793
 5197 002e D1F80035 		ldr	r3, [r1, #1280]
 5198              	.LVL371:
2235:Drivers/STM32F4xx_HAL_Driver/Src/stm32f4xx_ll_usb.c ****     value |=  USB_OTG_HCCHAR_CHDIS;
 5199              		.loc 1 2235 5 is_stmt 1 view .LVU1794
2236:Drivers/STM32F4xx_HAL_Driver/Src/stm32f4xx_ll_usb.c ****     value &= ~USB_OTG_HCCHAR_CHENA;
 5200              		.loc 1 2236 5 view .LVU1795
2237:Drivers/STM32F4xx_HAL_Driver/Src/stm32f4xx_ll_usb.c ****     value &= ~USB_OTG_HCCHAR_EPDIR;
 5201              		.loc 1 2237 5 view .LVU1796
 5202 0032 23F08023 		bic	r3, r3, #-2147450880
 5203              	.LVL372:
 5204              		.loc 1 2237 11 is_stmt 0 view .LVU1797
 5205 0036 43F08043 		orr	r3, r3, #1073741824
 5206              	.LVL373:
2238:Drivers/STM32F4xx_HAL_Driver/Src/stm32f4xx_ll_usb.c ****     USBx_HC(i)->HCCHAR = value;
 5207              		.loc 1 2238 5 is_stmt 1 view .LVU1798
 5208              		.loc 1 2238 24 is_stmt 0 view .LVU1799
 5209 003a C1F80035 		str	r3, [r1, #1280]
2232:Drivers/STM32F4xx_HAL_Driver/Src/stm32f4xx_ll_usb.c ****   {
 5210              		.loc 1 2232 27 is_stmt 1 discriminator 3 view .LVU1800
 5211 003e 0132     		adds	r2, r2, #1
ARM GAS  C:\Users\marci\AppData\Local\Temp\ccNtE0Aw.s 			page 154


 5212              	.LVL374:
 5213              	.L331:
2232:Drivers/STM32F4xx_HAL_Driver/Src/stm32f4xx_ll_usb.c ****   {
 5214              		.loc 1 2232 18 discriminator 1 view .LVU1801
 5215 0040 0F2A     		cmp	r2, #15
 5216 0042 F2D9     		bls	.L332
2239:Drivers/STM32F4xx_HAL_Driver/Src/stm32f4xx_ll_usb.c ****   }
2240:Drivers/STM32F4xx_HAL_Driver/Src/stm32f4xx_ll_usb.c **** 
2241:Drivers/STM32F4xx_HAL_Driver/Src/stm32f4xx_ll_usb.c ****   /* Halt all channels to put them into a known state. */
2242:Drivers/STM32F4xx_HAL_Driver/Src/stm32f4xx_ll_usb.c ****   for (i = 0U; i <= 15U; i++)
 5217              		.loc 1 2242 10 is_stmt 0 view .LVU1802
 5218 0044 0021     		movs	r1, #0
 5219 0046 00E0     		b	.L333
 5220              	.LVL375:
 5221              	.L334:
 5222              		.loc 1 2242 27 is_stmt 1 discriminator 2 view .LVU1803
 5223 0048 0131     		adds	r1, r1, #1
 5224              	.LVL376:
 5225              	.L333:
 5226              		.loc 1 2242 18 discriminator 1 view .LVU1804
 5227 004a 0F29     		cmp	r1, #15
 5228 004c 16D8     		bhi	.L340
2243:Drivers/STM32F4xx_HAL_Driver/Src/stm32f4xx_ll_usb.c ****   {
2244:Drivers/STM32F4xx_HAL_Driver/Src/stm32f4xx_ll_usb.c ****     value = USBx_HC(i)->HCCHAR;
 5229              		.loc 1 2244 5 view .LVU1805
 5230              		.loc 1 2244 13 is_stmt 0 view .LVU1806
 5231 004e 04EB4110 		add	r0, r4, r1, lsl #5
 5232 0052 00F5A062 		add	r2, r0, #1280
 5233              		.loc 1 2244 11 view .LVU1807
 5234 0056 D0F80035 		ldr	r3, [r0, #1280]
 5235              	.LVL377:
2245:Drivers/STM32F4xx_HAL_Driver/Src/stm32f4xx_ll_usb.c ****     value |= USB_OTG_HCCHAR_CHDIS;
 5236              		.loc 1 2245 5 is_stmt 1 view .LVU1808
2246:Drivers/STM32F4xx_HAL_Driver/Src/stm32f4xx_ll_usb.c ****     value |= USB_OTG_HCCHAR_CHENA;
 5237              		.loc 1 2246 5 view .LVU1809
2247:Drivers/STM32F4xx_HAL_Driver/Src/stm32f4xx_ll_usb.c ****     value &= ~USB_OTG_HCCHAR_EPDIR;
 5238              		.loc 1 2247 5 view .LVU1810
 5239 005a 23F40043 		bic	r3, r3, #32768
 5240              	.LVL378:
 5241              		.loc 1 2247 11 is_stmt 0 view .LVU1811
 5242 005e 43F04043 		orr	r3, r3, #-1073741824
 5243              	.LVL379:
2248:Drivers/STM32F4xx_HAL_Driver/Src/stm32f4xx_ll_usb.c ****     USBx_HC(i)->HCCHAR = value;
 5244              		.loc 1 2248 5 is_stmt 1 view .LVU1812
 5245              		.loc 1 2248 24 is_stmt 0 view .LVU1813
 5246 0062 C0F80035 		str	r3, [r0, #1280]
 5247              	.LVL380:
 5248              	.L335:
2249:Drivers/STM32F4xx_HAL_Driver/Src/stm32f4xx_ll_usb.c **** 
2250:Drivers/STM32F4xx_HAL_Driver/Src/stm32f4xx_ll_usb.c ****     do
 5249              		.loc 1 2250 5 is_stmt 1 view .LVU1814
2251:Drivers/STM32F4xx_HAL_Driver/Src/stm32f4xx_ll_usb.c ****     {
2252:Drivers/STM32F4xx_HAL_Driver/Src/stm32f4xx_ll_usb.c ****       count++;
 5250              		.loc 1 2252 7 view .LVU1815
 5251              		.loc 1 2252 12 is_stmt 0 view .LVU1816
 5252 0066 019B     		ldr	r3, [sp, #4]
 5253 0068 0133     		adds	r3, r3, #1
ARM GAS  C:\Users\marci\AppData\Local\Temp\ccNtE0Aw.s 			page 155


 5254 006a 0193     		str	r3, [sp, #4]
2253:Drivers/STM32F4xx_HAL_Driver/Src/stm32f4xx_ll_usb.c **** 
2254:Drivers/STM32F4xx_HAL_Driver/Src/stm32f4xx_ll_usb.c ****       if (count > 1000U)
 5255              		.loc 1 2254 7 is_stmt 1 view .LVU1817
 5256              		.loc 1 2254 17 is_stmt 0 view .LVU1818
 5257 006c 019B     		ldr	r3, [sp, #4]
 5258              		.loc 1 2254 10 view .LVU1819
 5259 006e B3F57A7F 		cmp	r3, #1000
 5260 0072 E9D8     		bhi	.L334
2255:Drivers/STM32F4xx_HAL_Driver/Src/stm32f4xx_ll_usb.c ****       {
2256:Drivers/STM32F4xx_HAL_Driver/Src/stm32f4xx_ll_usb.c ****         break;
2257:Drivers/STM32F4xx_HAL_Driver/Src/stm32f4xx_ll_usb.c ****       }
2258:Drivers/STM32F4xx_HAL_Driver/Src/stm32f4xx_ll_usb.c ****     } while ((USBx_HC(i)->HCCHAR & USB_OTG_HCCHAR_CHENA) == USB_OTG_HCCHAR_CHENA);
 5261              		.loc 1 2258 58 is_stmt 1 view .LVU1820
 5262              		.loc 1 2258 25 is_stmt 0 view .LVU1821
 5263 0074 1368     		ldr	r3, [r2]
 5264              		.loc 1 2258 58 view .LVU1822
 5265 0076 002B     		cmp	r3, #0
 5266 0078 F5DB     		blt	.L335
 5267 007a E5E7     		b	.L334
 5268              	.LVL381:
 5269              	.L340:
2259:Drivers/STM32F4xx_HAL_Driver/Src/stm32f4xx_ll_usb.c ****   }
2260:Drivers/STM32F4xx_HAL_Driver/Src/stm32f4xx_ll_usb.c **** 
2261:Drivers/STM32F4xx_HAL_Driver/Src/stm32f4xx_ll_usb.c ****   /* Clear any pending Host interrupts */
2262:Drivers/STM32F4xx_HAL_Driver/Src/stm32f4xx_ll_usb.c ****   USBx_HOST->HAINT = CLEAR_INTERRUPT_MASK;
 5270              		.loc 1 2262 3 is_stmt 1 view .LVU1823
 5271              		.loc 1 2262 20 is_stmt 0 view .LVU1824
 5272 007c 4FF0FF33 		mov	r3, #-1
 5273 0080 C4F81434 		str	r3, [r4, #1044]
2263:Drivers/STM32F4xx_HAL_Driver/Src/stm32f4xx_ll_usb.c ****   USBx->GINTSTS = CLEAR_INTERRUPT_MASK;
 5274              		.loc 1 2263 3 is_stmt 1 view .LVU1825
 5275              		.loc 1 2263 17 is_stmt 0 view .LVU1826
 5276 0084 6361     		str	r3, [r4, #20]
2264:Drivers/STM32F4xx_HAL_Driver/Src/stm32f4xx_ll_usb.c **** 
2265:Drivers/STM32F4xx_HAL_Driver/Src/stm32f4xx_ll_usb.c ****   (void)USB_EnableGlobalInt(USBx);
 5277              		.loc 1 2265 3 is_stmt 1 view .LVU1827
 5278              		.loc 1 2265 9 is_stmt 0 view .LVU1828
 5279 0086 2046     		mov	r0, r4
 5280 0088 FFF7FEFF 		bl	USB_EnableGlobalInt
 5281              	.LVL382:
2266:Drivers/STM32F4xx_HAL_Driver/Src/stm32f4xx_ll_usb.c **** 
2267:Drivers/STM32F4xx_HAL_Driver/Src/stm32f4xx_ll_usb.c ****   return ret;
 5282              		.loc 1 2267 3 is_stmt 1 view .LVU1829
2268:Drivers/STM32F4xx_HAL_Driver/Src/stm32f4xx_ll_usb.c **** }
 5283              		.loc 1 2268 1 is_stmt 0 view .LVU1830
 5284 008c 2846     		mov	r0, r5
 5285 008e 03B0     		add	sp, sp, #12
 5286              	.LCFI64:
 5287              		.cfi_def_cfa_offset 12
 5288              		@ sp needed
 5289 0090 30BD     		pop	{r4, r5, pc}
 5290              		.loc 1 2268 1 view .LVU1831
 5291              		.cfi_endproc
 5292              	.LFE180:
 5294              		.section	.text.USB_ActivateRemoteWakeup,"ax",%progbits
 5295              		.align	1
ARM GAS  C:\Users\marci\AppData\Local\Temp\ccNtE0Aw.s 			page 156


 5296              		.global	USB_ActivateRemoteWakeup
 5297              		.syntax unified
 5298              		.thumb
 5299              		.thumb_func
 5301              	USB_ActivateRemoteWakeup:
 5302              	.LVL383:
 5303              	.LFB181:
2269:Drivers/STM32F4xx_HAL_Driver/Src/stm32f4xx_ll_usb.c **** 
2270:Drivers/STM32F4xx_HAL_Driver/Src/stm32f4xx_ll_usb.c **** /**
2271:Drivers/STM32F4xx_HAL_Driver/Src/stm32f4xx_ll_usb.c ****   * @brief  USB_ActivateRemoteWakeup active remote wakeup signalling
2272:Drivers/STM32F4xx_HAL_Driver/Src/stm32f4xx_ll_usb.c ****   * @param  USBx Selected device
2273:Drivers/STM32F4xx_HAL_Driver/Src/stm32f4xx_ll_usb.c ****   * @retval HAL status
2274:Drivers/STM32F4xx_HAL_Driver/Src/stm32f4xx_ll_usb.c ****   */
2275:Drivers/STM32F4xx_HAL_Driver/Src/stm32f4xx_ll_usb.c **** HAL_StatusTypeDef USB_ActivateRemoteWakeup(const USB_OTG_GlobalTypeDef *USBx)
2276:Drivers/STM32F4xx_HAL_Driver/Src/stm32f4xx_ll_usb.c **** {
 5304              		.loc 1 2276 1 is_stmt 1 view -0
 5305              		.cfi_startproc
 5306              		@ args = 0, pretend = 0, frame = 0
 5307              		@ frame_needed = 0, uses_anonymous_args = 0
 5308              		@ link register save eliminated.
2277:Drivers/STM32F4xx_HAL_Driver/Src/stm32f4xx_ll_usb.c ****   uint32_t USBx_BASE = (uint32_t)USBx;
 5309              		.loc 1 2277 3 view .LVU1833
2278:Drivers/STM32F4xx_HAL_Driver/Src/stm32f4xx_ll_usb.c **** 
2279:Drivers/STM32F4xx_HAL_Driver/Src/stm32f4xx_ll_usb.c ****   if ((USBx_DEVICE->DSTS & USB_OTG_DSTS_SUSPSTS) == USB_OTG_DSTS_SUSPSTS)
 5310              		.loc 1 2279 3 view .LVU1834
 5311              		.loc 1 2279 19 is_stmt 0 view .LVU1835
 5312 0000 D0F80838 		ldr	r3, [r0, #2056]
 5313              		.loc 1 2279 8 view .LVU1836
 5314 0004 00F50060 		add	r0, r0, #2048
 5315              	.LVL384:
 5316              		.loc 1 2279 6 view .LVU1837
 5317 0008 13F0010F 		tst	r3, #1
 5318 000c 03D0     		beq	.L342
2280:Drivers/STM32F4xx_HAL_Driver/Src/stm32f4xx_ll_usb.c ****   {
2281:Drivers/STM32F4xx_HAL_Driver/Src/stm32f4xx_ll_usb.c ****     /* active Remote wakeup signalling */
2282:Drivers/STM32F4xx_HAL_Driver/Src/stm32f4xx_ll_usb.c ****     USBx_DEVICE->DCTL |= USB_OTG_DCTL_RWUSIG;
 5319              		.loc 1 2282 5 is_stmt 1 view .LVU1838
 5320              		.loc 1 2282 16 is_stmt 0 view .LVU1839
 5321 000e 4368     		ldr	r3, [r0, #4]
 5322              		.loc 1 2282 23 view .LVU1840
 5323 0010 43F00103 		orr	r3, r3, #1
 5324 0014 4360     		str	r3, [r0, #4]
 5325              	.L342:
2283:Drivers/STM32F4xx_HAL_Driver/Src/stm32f4xx_ll_usb.c ****   }
2284:Drivers/STM32F4xx_HAL_Driver/Src/stm32f4xx_ll_usb.c **** 
2285:Drivers/STM32F4xx_HAL_Driver/Src/stm32f4xx_ll_usb.c ****   return HAL_OK;
 5326              		.loc 1 2285 3 is_stmt 1 view .LVU1841
2286:Drivers/STM32F4xx_HAL_Driver/Src/stm32f4xx_ll_usb.c **** }
 5327              		.loc 1 2286 1 is_stmt 0 view .LVU1842
 5328 0016 0020     		movs	r0, #0
 5329              	.LVL385:
 5330              		.loc 1 2286 1 view .LVU1843
 5331 0018 7047     		bx	lr
 5332              		.cfi_endproc
 5333              	.LFE181:
 5335              		.section	.text.USB_DeActivateRemoteWakeup,"ax",%progbits
 5336              		.align	1
ARM GAS  C:\Users\marci\AppData\Local\Temp\ccNtE0Aw.s 			page 157


 5337              		.global	USB_DeActivateRemoteWakeup
 5338              		.syntax unified
 5339              		.thumb
 5340              		.thumb_func
 5342              	USB_DeActivateRemoteWakeup:
 5343              	.LVL386:
 5344              	.LFB182:
2287:Drivers/STM32F4xx_HAL_Driver/Src/stm32f4xx_ll_usb.c **** 
2288:Drivers/STM32F4xx_HAL_Driver/Src/stm32f4xx_ll_usb.c **** /**
2289:Drivers/STM32F4xx_HAL_Driver/Src/stm32f4xx_ll_usb.c ****   * @brief  USB_DeActivateRemoteWakeup de-active remote wakeup signalling
2290:Drivers/STM32F4xx_HAL_Driver/Src/stm32f4xx_ll_usb.c ****   * @param  USBx Selected device
2291:Drivers/STM32F4xx_HAL_Driver/Src/stm32f4xx_ll_usb.c ****   * @retval HAL status
2292:Drivers/STM32F4xx_HAL_Driver/Src/stm32f4xx_ll_usb.c ****   */
2293:Drivers/STM32F4xx_HAL_Driver/Src/stm32f4xx_ll_usb.c **** HAL_StatusTypeDef USB_DeActivateRemoteWakeup(const USB_OTG_GlobalTypeDef *USBx)
2294:Drivers/STM32F4xx_HAL_Driver/Src/stm32f4xx_ll_usb.c **** {
 5345              		.loc 1 2294 1 is_stmt 1 view -0
 5346              		.cfi_startproc
 5347              		@ args = 0, pretend = 0, frame = 0
 5348              		@ frame_needed = 0, uses_anonymous_args = 0
 5349              		@ link register save eliminated.
2295:Drivers/STM32F4xx_HAL_Driver/Src/stm32f4xx_ll_usb.c ****   uint32_t USBx_BASE = (uint32_t)USBx;
 5350              		.loc 1 2295 3 view .LVU1845
2296:Drivers/STM32F4xx_HAL_Driver/Src/stm32f4xx_ll_usb.c **** 
2297:Drivers/STM32F4xx_HAL_Driver/Src/stm32f4xx_ll_usb.c ****   /* active Remote wakeup signalling */
2298:Drivers/STM32F4xx_HAL_Driver/Src/stm32f4xx_ll_usb.c ****   USBx_DEVICE->DCTL &= ~(USB_OTG_DCTL_RWUSIG);
 5351              		.loc 1 2298 3 view .LVU1846
 5352              		.loc 1 2298 14 is_stmt 0 view .LVU1847
 5353 0000 D0F80438 		ldr	r3, [r0, #2052]
 5354              		.loc 1 2298 21 view .LVU1848
 5355 0004 23F00103 		bic	r3, r3, #1
 5356 0008 C0F80438 		str	r3, [r0, #2052]
2299:Drivers/STM32F4xx_HAL_Driver/Src/stm32f4xx_ll_usb.c **** 
2300:Drivers/STM32F4xx_HAL_Driver/Src/stm32f4xx_ll_usb.c ****   return HAL_OK;
 5357              		.loc 1 2300 3 is_stmt 1 view .LVU1849
2301:Drivers/STM32F4xx_HAL_Driver/Src/stm32f4xx_ll_usb.c **** }
 5358              		.loc 1 2301 1 is_stmt 0 view .LVU1850
 5359 000c 0020     		movs	r0, #0
 5360              	.LVL387:
 5361              		.loc 1 2301 1 view .LVU1851
 5362 000e 7047     		bx	lr
 5363              		.cfi_endproc
 5364              	.LFE182:
 5366              		.text
 5367              	.Letext0:
 5368              		.file 2 "C:/Program Files (x86)/Arm GNU Toolchain arm-none-eabi/13.2 Rel1/arm-none-eabi/include/ma
 5369              		.file 3 "C:/Program Files (x86)/Arm GNU Toolchain arm-none-eabi/13.2 Rel1/arm-none-eabi/include/sy
 5370              		.file 4 "Drivers/CMSIS/Include/cmsis_gcc.h"
 5371              		.file 5 "Drivers/CMSIS/Device/ST/STM32F4xx/Include/stm32f413xx.h"
 5372              		.file 6 "Drivers/STM32F4xx_HAL_Driver/Inc/stm32f4xx_hal_def.h"
 5373              		.file 7 "Drivers/STM32F4xx_HAL_Driver/Inc/stm32f4xx_ll_usb.h"
 5374              		.file 8 "Drivers/STM32F4xx_HAL_Driver/Inc/stm32f4xx_hal.h"
ARM GAS  C:\Users\marci\AppData\Local\Temp\ccNtE0Aw.s 			page 158


DEFINED SYMBOLS
                            *ABS*:00000000 stm32f4xx_ll_usb.c
C:\Users\marci\AppData\Local\Temp\ccNtE0Aw.s:21     .text.USB_CoreReset:00000000 $t
C:\Users\marci\AppData\Local\Temp\ccNtE0Aw.s:26     .text.USB_CoreReset:00000000 USB_CoreReset
C:\Users\marci\AppData\Local\Temp\ccNtE0Aw.s:121    .text.USB_CoreInit:00000000 $t
C:\Users\marci\AppData\Local\Temp\ccNtE0Aw.s:127    .text.USB_CoreInit:00000000 USB_CoreInit
C:\Users\marci\AppData\Local\Temp\ccNtE0Aw.s:269    .text.USB_SetTurnaroundTime:00000000 $t
C:\Users\marci\AppData\Local\Temp\ccNtE0Aw.s:275    .text.USB_SetTurnaroundTime:00000000 USB_SetTurnaroundTime
C:\Users\marci\AppData\Local\Temp\ccNtE0Aw.s:428    .text.USB_SetTurnaroundTime:000000a8 $d
C:\Users\marci\AppData\Local\Temp\ccNtE0Aw.s:447    .text.USB_EnableGlobalInt:00000000 $t
C:\Users\marci\AppData\Local\Temp\ccNtE0Aw.s:453    .text.USB_EnableGlobalInt:00000000 USB_EnableGlobalInt
C:\Users\marci\AppData\Local\Temp\ccNtE0Aw.s:477    .text.USB_DisableGlobalInt:00000000 $t
C:\Users\marci\AppData\Local\Temp\ccNtE0Aw.s:483    .text.USB_DisableGlobalInt:00000000 USB_DisableGlobalInt
C:\Users\marci\AppData\Local\Temp\ccNtE0Aw.s:507    .text.USB_FlushTxFifo:00000000 $t
C:\Users\marci\AppData\Local\Temp\ccNtE0Aw.s:513    .text.USB_FlushTxFifo:00000000 USB_FlushTxFifo
C:\Users\marci\AppData\Local\Temp\ccNtE0Aw.s:610    .text.USB_FlushRxFifo:00000000 $t
C:\Users\marci\AppData\Local\Temp\ccNtE0Aw.s:616    .text.USB_FlushRxFifo:00000000 USB_FlushRxFifo
C:\Users\marci\AppData\Local\Temp\ccNtE0Aw.s:709    .text.USB_SetDevSpeed:00000000 $t
C:\Users\marci\AppData\Local\Temp\ccNtE0Aw.s:715    .text.USB_SetDevSpeed:00000000 USB_SetDevSpeed
C:\Users\marci\AppData\Local\Temp\ccNtE0Aw.s:742    .text.USB_DevInit:00000000 $t
C:\Users\marci\AppData\Local\Temp\ccNtE0Aw.s:748    .text.USB_DevInit:00000000 USB_DevInit
C:\Users\marci\AppData\Local\Temp\ccNtE0Aw.s:1100   .text.USB_DevInit:00000188 $d
C:\Users\marci\AppData\Local\Temp\ccNtE0Aw.s:1105   .text.USB_GetDevSpeed:00000000 $t
C:\Users\marci\AppData\Local\Temp\ccNtE0Aw.s:1111   .text.USB_GetDevSpeed:00000000 USB_GetDevSpeed
C:\Users\marci\AppData\Local\Temp\ccNtE0Aw.s:1164   .text.USB_ActivateEndpoint:00000000 $t
C:\Users\marci\AppData\Local\Temp\ccNtE0Aw.s:1170   .text.USB_ActivateEndpoint:00000000 USB_ActivateEndpoint
C:\Users\marci\AppData\Local\Temp\ccNtE0Aw.s:1286   .text.USB_ActivateDedicatedEndpoint:00000000 $t
C:\Users\marci\AppData\Local\Temp\ccNtE0Aw.s:1292   .text.USB_ActivateDedicatedEndpoint:00000000 USB_ActivateDedicatedEndpoint
C:\Users\marci\AppData\Local\Temp\ccNtE0Aw.s:1417   .text.USB_DeactivateEndpoint:00000000 $t
C:\Users\marci\AppData\Local\Temp\ccNtE0Aw.s:1423   .text.USB_DeactivateEndpoint:00000000 USB_DeactivateEndpoint
C:\Users\marci\AppData\Local\Temp\ccNtE0Aw.s:1594   .text.USB_DeactivateEndpoint:000000d8 $d
C:\Users\marci\AppData\Local\Temp\ccNtE0Aw.s:1600   .text.USB_DeactivateDedicatedEndpoint:00000000 $t
C:\Users\marci\AppData\Local\Temp\ccNtE0Aw.s:1606   .text.USB_DeactivateDedicatedEndpoint:00000000 USB_DeactivateDedicatedEndpoint
C:\Users\marci\AppData\Local\Temp\ccNtE0Aw.s:1735   .text.USB_EPStopXfer:00000000 $t
C:\Users\marci\AppData\Local\Temp\ccNtE0Aw.s:1741   .text.USB_EPStopXfer:00000000 USB_EPStopXfer
C:\Users\marci\AppData\Local\Temp\ccNtE0Aw.s:1903   .text.USB_WritePacket:00000000 $t
C:\Users\marci\AppData\Local\Temp\ccNtE0Aw.s:1909   .text.USB_WritePacket:00000000 USB_WritePacket
C:\Users\marci\AppData\Local\Temp\ccNtE0Aw.s:1978   .text.USB_EPStartXfer:00000000 $t
C:\Users\marci\AppData\Local\Temp\ccNtE0Aw.s:1984   .text.USB_EPStartXfer:00000000 USB_EPStartXfer
C:\Users\marci\AppData\Local\Temp\ccNtE0Aw.s:2448   .text.USB_EPStartXfer:00000234 $d
C:\Users\marci\AppData\Local\Temp\ccNtE0Aw.s:2453   .text.USB_ReadPacket:00000000 $t
C:\Users\marci\AppData\Local\Temp\ccNtE0Aw.s:2459   .text.USB_ReadPacket:00000000 USB_ReadPacket
C:\Users\marci\AppData\Local\Temp\ccNtE0Aw.s:2558   .text.USB_EPSetStall:00000000 $t
C:\Users\marci\AppData\Local\Temp\ccNtE0Aw.s:2564   .text.USB_EPSetStall:00000000 USB_EPSetStall
C:\Users\marci\AppData\Local\Temp\ccNtE0Aw.s:2647   .text.USB_EPClearStall:00000000 $t
C:\Users\marci\AppData\Local\Temp\ccNtE0Aw.s:2653   .text.USB_EPClearStall:00000000 USB_EPClearStall
C:\Users\marci\AppData\Local\Temp\ccNtE0Aw.s:2738   .text.USB_StopDevice:00000000 $t
C:\Users\marci\AppData\Local\Temp\ccNtE0Aw.s:2744   .text.USB_StopDevice:00000000 USB_StopDevice
C:\Users\marci\AppData\Local\Temp\ccNtE0Aw.s:2826   .text.USB_SetDevAddress:00000000 $t
C:\Users\marci\AppData\Local\Temp\ccNtE0Aw.s:2832   .text.USB_SetDevAddress:00000000 USB_SetDevAddress
C:\Users\marci\AppData\Local\Temp\ccNtE0Aw.s:2868   .text.USB_DevConnect:00000000 $t
C:\Users\marci\AppData\Local\Temp\ccNtE0Aw.s:2874   .text.USB_DevConnect:00000000 USB_DevConnect
C:\Users\marci\AppData\Local\Temp\ccNtE0Aw.s:2904   .text.USB_DevDisconnect:00000000 $t
C:\Users\marci\AppData\Local\Temp\ccNtE0Aw.s:2910   .text.USB_DevDisconnect:00000000 USB_DevDisconnect
C:\Users\marci\AppData\Local\Temp\ccNtE0Aw.s:2940   .text.USB_ReadInterrupts:00000000 $t
C:\Users\marci\AppData\Local\Temp\ccNtE0Aw.s:2946   .text.USB_ReadInterrupts:00000000 USB_ReadInterrupts
C:\Users\marci\AppData\Local\Temp\ccNtE0Aw.s:2973   .text.USB_ReadChInterrupts:00000000 $t
ARM GAS  C:\Users\marci\AppData\Local\Temp\ccNtE0Aw.s 			page 159


C:\Users\marci\AppData\Local\Temp\ccNtE0Aw.s:2979   .text.USB_ReadChInterrupts:00000000 USB_ReadChInterrupts
C:\Users\marci\AppData\Local\Temp\ccNtE0Aw.s:3012   .text.USB_ReadDevAllOutEpInterrupt:00000000 $t
C:\Users\marci\AppData\Local\Temp\ccNtE0Aw.s:3018   .text.USB_ReadDevAllOutEpInterrupt:00000000 USB_ReadDevAllOutEpInterrupt
C:\Users\marci\AppData\Local\Temp\ccNtE0Aw.s:3051   .text.USB_ReadDevAllInEpInterrupt:00000000 $t
C:\Users\marci\AppData\Local\Temp\ccNtE0Aw.s:3057   .text.USB_ReadDevAllInEpInterrupt:00000000 USB_ReadDevAllInEpInterrupt
C:\Users\marci\AppData\Local\Temp\ccNtE0Aw.s:3090   .text.USB_ReadDevOutEPInterrupt:00000000 $t
C:\Users\marci\AppData\Local\Temp\ccNtE0Aw.s:3096   .text.USB_ReadDevOutEPInterrupt:00000000 USB_ReadDevOutEPInterrupt
C:\Users\marci\AppData\Local\Temp\ccNtE0Aw.s:3130   .text.USB_ReadDevInEPInterrupt:00000000 $t
C:\Users\marci\AppData\Local\Temp\ccNtE0Aw.s:3136   .text.USB_ReadDevInEPInterrupt:00000000 USB_ReadDevInEPInterrupt
C:\Users\marci\AppData\Local\Temp\ccNtE0Aw.s:3187   .text.USB_ClearInterrupts:00000000 $t
C:\Users\marci\AppData\Local\Temp\ccNtE0Aw.s:3193   .text.USB_ClearInterrupts:00000000 USB_ClearInterrupts
C:\Users\marci\AppData\Local\Temp\ccNtE0Aw.s:3213   .text.USB_GetMode:00000000 $t
C:\Users\marci\AppData\Local\Temp\ccNtE0Aw.s:3219   .text.USB_GetMode:00000000 USB_GetMode
C:\Users\marci\AppData\Local\Temp\ccNtE0Aw.s:3238   .text.USB_SetCurrentMode:00000000 $t
C:\Users\marci\AppData\Local\Temp\ccNtE0Aw.s:3244   .text.USB_SetCurrentMode:00000000 USB_SetCurrentMode
C:\Users\marci\AppData\Local\Temp\ccNtE0Aw.s:3364   .text.USB_ActivateSetup:00000000 $t
C:\Users\marci\AppData\Local\Temp\ccNtE0Aw.s:3370   .text.USB_ActivateSetup:00000000 USB_ActivateSetup
C:\Users\marci\AppData\Local\Temp\ccNtE0Aw.s:3401   .text.USB_EP0_OutStart:00000000 $t
C:\Users\marci\AppData\Local\Temp\ccNtE0Aw.s:3407   .text.USB_EP0_OutStart:00000000 USB_EP0_OutStart
C:\Users\marci\AppData\Local\Temp\ccNtE0Aw.s:3494   .text.USB_EP0_OutStart:0000005c $d
C:\Users\marci\AppData\Local\Temp\ccNtE0Aw.s:3499   .text.USB_HostInit:00000000 $t
C:\Users\marci\AppData\Local\Temp\ccNtE0Aw.s:3505   .text.USB_HostInit:00000000 USB_HostInit
C:\Users\marci\AppData\Local\Temp\ccNtE0Aw.s:3692   .text.USB_HostInit:000000cc $d
C:\Users\marci\AppData\Local\Temp\ccNtE0Aw.s:3698   .text.USB_InitFSLSPClkSel:00000000 $t
C:\Users\marci\AppData\Local\Temp\ccNtE0Aw.s:3704   .text.USB_InitFSLSPClkSel:00000000 USB_InitFSLSPClkSel
C:\Users\marci\AppData\Local\Temp\ccNtE0Aw.s:3767   .text.USB_ResetPort:00000000 $t
C:\Users\marci\AppData\Local\Temp\ccNtE0Aw.s:3773   .text.USB_ResetPort:00000000 USB_ResetPort
C:\Users\marci\AppData\Local\Temp\ccNtE0Aw.s:3842   .text.USB_DriveVbus:00000000 $t
C:\Users\marci\AppData\Local\Temp\ccNtE0Aw.s:3848   .text.USB_DriveVbus:00000000 USB_DriveVbus
C:\Users\marci\AppData\Local\Temp\ccNtE0Aw.s:3927   .text.USB_GetHostSpeed:00000000 $t
C:\Users\marci\AppData\Local\Temp\ccNtE0Aw.s:3933   .text.USB_GetHostSpeed:00000000 USB_GetHostSpeed
C:\Users\marci\AppData\Local\Temp\ccNtE0Aw.s:3971   .text.USB_GetCurrentFrame:00000000 $t
C:\Users\marci\AppData\Local\Temp\ccNtE0Aw.s:3977   .text.USB_GetCurrentFrame:00000000 USB_GetCurrentFrame
C:\Users\marci\AppData\Local\Temp\ccNtE0Aw.s:4000   .text.USB_HC_Init:00000000 $t
C:\Users\marci\AppData\Local\Temp\ccNtE0Aw.s:4006   .text.USB_HC_Init:00000000 USB_HC_Init
C:\Users\marci\AppData\Local\Temp\ccNtE0Aw.s:4048   .text.USB_HC_Init:00000022 $d
C:\Users\marci\AppData\Local\Temp\ccNtE0Aw.s:4052   .text.USB_HC_Init:00000026 $t
C:\Users\marci\AppData\Local\Temp\ccNtE0Aw.s:4246   .text.USB_HC_StartXfer:00000000 $t
C:\Users\marci\AppData\Local\Temp\ccNtE0Aw.s:4252   .text.USB_HC_StartXfer:00000000 USB_HC_StartXfer
C:\Users\marci\AppData\Local\Temp\ccNtE0Aw.s:4586   .text.USB_HC_StartXfer:00000178 $d
C:\Users\marci\AppData\Local\Temp\ccNtE0Aw.s:4591   .text.USB_HC_StartXfer:0000017c $t
C:\Users\marci\AppData\Local\Temp\ccNtE0Aw.s:4654   .text.USB_HC_StartXfer:000001c6 $d
C:\Users\marci\AppData\Local\Temp\ccNtE0Aw.s:4658   .text.USB_HC_StartXfer:000001ca $t
C:\Users\marci\AppData\Local\Temp\ccNtE0Aw.s:4815   .text.USB_HC_StartXfer:00000288 $d
C:\Users\marci\AppData\Local\Temp\ccNtE0Aw.s:4820   .text.USB_HC_ReadInterrupt:00000000 $t
C:\Users\marci\AppData\Local\Temp\ccNtE0Aw.s:4826   .text.USB_HC_ReadInterrupt:00000000 USB_HC_ReadInterrupt
C:\Users\marci\AppData\Local\Temp\ccNtE0Aw.s:4849   .text.USB_HC_Halt:00000000 $t
C:\Users\marci\AppData\Local\Temp\ccNtE0Aw.s:4855   .text.USB_HC_Halt:00000000 USB_HC_Halt
C:\Users\marci\AppData\Local\Temp\ccNtE0Aw.s:5074   .text.USB_DoPing:00000000 $t
C:\Users\marci\AppData\Local\Temp\ccNtE0Aw.s:5080   .text.USB_DoPing:00000000 USB_DoPing
C:\Users\marci\AppData\Local\Temp\ccNtE0Aw.s:5120   .text.USB_DoPing:00000020 $d
C:\Users\marci\AppData\Local\Temp\ccNtE0Aw.s:5125   .text.USB_StopHost:00000000 $t
C:\Users\marci\AppData\Local\Temp\ccNtE0Aw.s:5131   .text.USB_StopHost:00000000 USB_StopHost
C:\Users\marci\AppData\Local\Temp\ccNtE0Aw.s:5295   .text.USB_ActivateRemoteWakeup:00000000 $t
C:\Users\marci\AppData\Local\Temp\ccNtE0Aw.s:5301   .text.USB_ActivateRemoteWakeup:00000000 USB_ActivateRemoteWakeup
C:\Users\marci\AppData\Local\Temp\ccNtE0Aw.s:5336   .text.USB_DeActivateRemoteWakeup:00000000 $t
C:\Users\marci\AppData\Local\Temp\ccNtE0Aw.s:5342   .text.USB_DeActivateRemoteWakeup:00000000 USB_DeActivateRemoteWakeup
ARM GAS  C:\Users\marci\AppData\Local\Temp\ccNtE0Aw.s 			page 160



UNDEFINED SYMBOLS
HAL_Delay
